
AVRASM ver. 2.1.30  C:\Users\AtM5\Desktop\Soccer\VGU_code\Source Code Robokit\List\AK.asm Fri Aug 28 14:11:17 2015

C:\Users\AtM5\Desktop\Soccer\VGU_code\Source Code Robokit\List\AK.asm(1058): warning: Register r4 already defined by the .DEF directive
C:\Users\AtM5\Desktop\Soccer\VGU_code\Source Code Robokit\List\AK.asm(1059): warning: Register r6 already defined by the .DEF directive
C:\Users\AtM5\Desktop\Soccer\VGU_code\Source Code Robokit\List\AK.asm(1060): warning: Register r8 already defined by the .DEF directive
C:\Users\AtM5\Desktop\Soccer\VGU_code\Source Code Robokit\List\AK.asm(1061): warning: Register r10 already defined by the .DEF directive
C:\Users\AtM5\Desktop\Soccer\VGU_code\Source Code Robokit\List\AK.asm(1062): warning: Register r12 already defined by the .DEF directive
                 
                 
                 ;CodeVisionAVR C Compiler V2.05.0 Professional
                 ;(C) Copyright 1998-2010 Pavel Haiduc, HP InfoTech s.r.l.
                 ;http://www.hpinfotech.com
                 
                 ;Chip type                : ATmega32A
                 ;Program type             : Application
                 ;Clock frequency          : 8.000000 MHz
                 ;Memory model             : Small
                 ;Optimize for             : Size
                 ;(s)printf features       : float, width, precision
                 ;(s)scanf features        : int, width
                 ;External RAM size        : 0
                 ;Data Stack size          : 512 byte(s)
                 ;Heap size                : 0 byte(s)
                 ;Promote 'char' to 'int'  : Yes
                 ;'char' is unsigned       : Yes
                 ;8 bit enums              : Yes
                 ;global 'const' stored in FLASH: No
                 ;Enhanced core instructions    : On
                 ;Smart register allocation     : On
                 ;Automatic register allocation : On
                 
                 	#pragma AVRPART ADMIN PART_NAME ATmega32A
                 	#pragma AVRPART MEMORY PROG_FLASH 32768
                 	#pragma AVRPART MEMORY EEPROM 1024
                 	#pragma AVRPART MEMORY INT_SRAM SIZE 2143
                 	#pragma AVRPART MEMORY INT_SRAM START_ADDR 0x60
                 
                 	#define CALL_SUPPORTED 1
                 
                 	.LISTMAC
                 	.EQU UDRE=0x5
                 	.EQU RXC=0x7
                 	.EQU USR=0xB
                 	.EQU UDR=0xC
                 	.EQU SPSR=0xE
                 	.EQU SPDR=0xF
                 	.EQU EERE=0x0
                 	.EQU EEWE=0x1
                 	.EQU EEMWE=0x2
                 	.EQU EECR=0x1C
                 	.EQU EEDR=0x1D
                 	.EQU EEARL=0x1E
                 	.EQU EEARH=0x1F
                 	.EQU WDTCR=0x21
                 	.EQU MCUCR=0x35
                 	.EQU SPL=0x3D
                 	.EQU SPH=0x3E
                 	.EQU SREG=0x3F
                 
                 	.DEF R0X0=R0
                 	.DEF R0X1=R1
                 	.DEF R0X2=R2
                 	.DEF R0X3=R3
                 	.DEF R0X4=R4
                 	.DEF R0X5=R5
                 	.DEF R0X6=R6
                 	.DEF R0X7=R7
                 	.DEF R0X8=R8
                 	.DEF R0X9=R9
                 	.DEF R0XA=R10
                 	.DEF R0XB=R11
                 	.DEF R0XC=R12
                 	.DEF R0XD=R13
                 	.DEF R0XE=R14
                 	.DEF R0XF=R15
                 	.DEF R0X10=R16
                 	.DEF R0X11=R17
                 	.DEF R0X12=R18
                 	.DEF R0X13=R19
                 	.DEF R0X14=R20
                 	.DEF R0X15=R21
                 	.DEF R0X16=R22
                 	.DEF R0X17=R23
                 	.DEF R0X18=R24
                 	.DEF R0X19=R25
                 	.DEF R0X1A=R26
                 	.DEF R0X1B=R27
                 	.DEF R0X1C=R28
                 	.DEF R0X1D=R29
                 	.DEF R0X1E=R30
                 	.DEF R0X1F=R31
                 
                 	.EQU __SRAM_START=0x0060
                 	.EQU __SRAM_END=0x085F
                 	.EQU __DSTACK_SIZE=0x0200
                 	.EQU __HEAP_SIZE=0x0000
                 	.EQU __CLEAR_SRAM_SIZE=__SRAM_END-__SRAM_START+1
                 
                 	.MACRO __CPD1N
                 	CPI  R30,LOW(@0)
                 	LDI  R26,HIGH(@0)
                 	CPC  R31,R26
                 	LDI  R26,BYTE3(@0)
                 	CPC  R22,R26
                 	LDI  R26,BYTE4(@0)
                 	CPC  R23,R26
                 	.ENDM
                 
                 	.MACRO __CPD2N
                 	CPI  R26,LOW(@0)
                 	LDI  R30,HIGH(@0)
                 	CPC  R27,R30
                 	LDI  R30,BYTE3(@0)
                 	CPC  R24,R30
                 	LDI  R30,BYTE4(@0)
                 	CPC  R25,R30
                 	.ENDM
                 
                 	.MACRO __CPWRR
                 	CP   R@0,R@2
                 	CPC  R@1,R@3
                 	.ENDM
                 
                 	.MACRO __CPWRN
                 	CPI  R@0,LOW(@2)
                 	LDI  R30,HIGH(@2)
                 	CPC  R@1,R30
                 	.ENDM
                 
                 	.MACRO __ADDB1MN
                 	SUBI R30,LOW(-@0-(@1))
                 	.ENDM
                 
                 	.MACRO __ADDB2MN
                 	SUBI R26,LOW(-@0-(@1))
                 	.ENDM
                 
                 	.MACRO __ADDW1MN
                 	SUBI R30,LOW(-@0-(@1))
                 	SBCI R31,HIGH(-@0-(@1))
                 	.ENDM
                 
                 	.MACRO __ADDW2MN
                 	SUBI R26,LOW(-@0-(@1))
                 	SBCI R27,HIGH(-@0-(@1))
                 	.ENDM
                 
                 	.MACRO __ADDW1FN
                 	SUBI R30,LOW(-2*@0-(@1))
                 	SBCI R31,HIGH(-2*@0-(@1))
                 	.ENDM
                 
                 	.MACRO __ADDD1FN
                 	SUBI R30,LOW(-2*@0-(@1))
                 	SBCI R31,HIGH(-2*@0-(@1))
                 	SBCI R22,BYTE3(-2*@0-(@1))
                 	.ENDM
                 
                 	.MACRO __ADDD1N
                 	SUBI R30,LOW(-@0)
                 	SBCI R31,HIGH(-@0)
                 	SBCI R22,BYTE3(-@0)
                 	SBCI R23,BYTE4(-@0)
                 	.ENDM
                 
                 	.MACRO __ADDD2N
                 	SUBI R26,LOW(-@0)
                 	SBCI R27,HIGH(-@0)
                 	SBCI R24,BYTE3(-@0)
                 	SBCI R25,BYTE4(-@0)
                 	.ENDM
                 
                 	.MACRO __SUBD1N
                 	SUBI R30,LOW(@0)
                 	SBCI R31,HIGH(@0)
                 	SBCI R22,BYTE3(@0)
                 	SBCI R23,BYTE4(@0)
                 	.ENDM
                 
                 	.MACRO __SUBD2N
                 	SUBI R26,LOW(@0)
                 	SBCI R27,HIGH(@0)
                 	SBCI R24,BYTE3(@0)
                 	SBCI R25,BYTE4(@0)
                 	.ENDM
                 
                 	.MACRO __ANDBMNN
                 	LDS  R30,@0+(@1)
                 	ANDI R30,LOW(@2)
                 	STS  @0+(@1),R30
                 	.ENDM
                 
                 	.MACRO __ANDWMNN
                 	LDS  R30,@0+(@1)
                 	ANDI R30,LOW(@2)
                 	STS  @0+(@1),R30
                 	LDS  R30,@0+(@1)+1
                 	ANDI R30,HIGH(@2)
                 	STS  @0+(@1)+1,R30
                 	.ENDM
                 
                 	.MACRO __ANDD1N
                 	ANDI R30,LOW(@0)
                 	ANDI R31,HIGH(@0)
                 	ANDI R22,BYTE3(@0)
                 	ANDI R23,BYTE4(@0)
                 	.ENDM
                 
                 	.MACRO __ANDD2N
                 	ANDI R26,LOW(@0)
                 	ANDI R27,HIGH(@0)
                 	ANDI R24,BYTE3(@0)
                 	ANDI R25,BYTE4(@0)
                 	.ENDM
                 
                 	.MACRO __ORBMNN
                 	LDS  R30,@0+(@1)
                 	ORI  R30,LOW(@2)
                 	STS  @0+(@1),R30
                 	.ENDM
                 
                 	.MACRO __ORWMNN
                 	LDS  R30,@0+(@1)
                 	ORI  R30,LOW(@2)
                 	STS  @0+(@1),R30
                 	LDS  R30,@0+(@1)+1
                 	ORI  R30,HIGH(@2)
                 	STS  @0+(@1)+1,R30
                 	.ENDM
                 
                 	.MACRO __ORD1N
                 	ORI  R30,LOW(@0)
                 	ORI  R31,HIGH(@0)
                 	ORI  R22,BYTE3(@0)
                 	ORI  R23,BYTE4(@0)
                 	.ENDM
                 
                 	.MACRO __ORD2N
                 	ORI  R26,LOW(@0)
                 	ORI  R27,HIGH(@0)
                 	ORI  R24,BYTE3(@0)
                 	ORI  R25,BYTE4(@0)
                 	.ENDM
                 
                 	.MACRO __DELAY_USB
                 	LDI  R24,LOW(@0)
                 __DELAY_USB_LOOP:
                 	DEC  R24
                 	BRNE __DELAY_USB_LOOP
                 	.ENDM
                 
                 	.MACRO __DELAY_USW
                 	LDI  R24,LOW(@0)
                 	LDI  R25,HIGH(@0)
                 __DELAY_USW_LOOP:
                 	SBIW R24,1
                 	BRNE __DELAY_USW_LOOP
                 	.ENDM
                 
                 	.MACRO __GETD1S
                 	LDD  R30,Y+@0
                 	LDD  R31,Y+@0+1
                 	LDD  R22,Y+@0+2
                 	LDD  R23,Y+@0+3
                 	.ENDM
                 
                 	.MACRO __GETD2S
                 	LDD  R26,Y+@0
                 	LDD  R27,Y+@0+1
                 	LDD  R24,Y+@0+2
                 	LDD  R25,Y+@0+3
                 	.ENDM
                 
                 	.MACRO __PUTD1S
                 	STD  Y+@0,R30
                 	STD  Y+@0+1,R31
                 	STD  Y+@0+2,R22
                 	STD  Y+@0+3,R23
                 	.ENDM
                 
                 	.MACRO __PUTD2S
                 	STD  Y+@0,R26
                 	STD  Y+@0+1,R27
                 	STD  Y+@0+2,R24
                 	STD  Y+@0+3,R25
                 	.ENDM
                 
                 	.MACRO __PUTDZ2
                 	STD  Z+@0,R26
                 	STD  Z+@0+1,R27
                 	STD  Z+@0+2,R24
                 	STD  Z+@0+3,R25
                 	.ENDM
                 
                 	.MACRO __CLRD1S
                 	STD  Y+@0,R30
                 	STD  Y+@0+1,R30
                 	STD  Y+@0+2,R30
                 	STD  Y+@0+3,R30
                 	.ENDM
                 
                 	.MACRO __POINTB1MN
                 	LDI  R30,LOW(@0+(@1))
                 	.ENDM
                 
                 	.MACRO __POINTW1MN
                 	LDI  R30,LOW(@0+(@1))
                 	LDI  R31,HIGH(@0+(@1))
                 	.ENDM
                 
                 	.MACRO __POINTD1M
                 	LDI  R30,LOW(@0)
                 	LDI  R31,HIGH(@0)
                 	LDI  R22,BYTE3(@0)
                 	LDI  R23,BYTE4(@0)
                 	.ENDM
                 
                 	.MACRO __POINTW1FN
                 	LDI  R30,LOW(2*@0+(@1))
                 	LDI  R31,HIGH(2*@0+(@1))
                 	.ENDM
                 
                 	.MACRO __POINTD1FN
                 	LDI  R30,LOW(2*@0+(@1))
                 	LDI  R31,HIGH(2*@0+(@1))
                 	LDI  R22,BYTE3(2*@0+(@1))
                 	LDI  R23,BYTE4(2*@0+(@1))
                 	.ENDM
                 
                 	.MACRO __POINTB2MN
                 	LDI  R26,LOW(@0+(@1))
                 	.ENDM
                 
                 	.MACRO __POINTW2MN
                 	LDI  R26,LOW(@0+(@1))
                 	LDI  R27,HIGH(@0+(@1))
                 	.ENDM
                 
                 	.MACRO __POINTBRM
                 	LDI  R@0,LOW(@1)
                 	.ENDM
                 
                 	.MACRO __POINTWRM
                 	LDI  R@0,LOW(@2)
                 	LDI  R@1,HIGH(@2)
                 	.ENDM
                 
                 	.MACRO __POINTBRMN
                 	LDI  R@0,LOW(@1+(@2))
                 	.ENDM
                 
                 	.MACRO __POINTWRMN
                 	LDI  R@0,LOW(@2+(@3))
                 	LDI  R@1,HIGH(@2+(@3))
                 	.ENDM
                 
                 	.MACRO __POINTWRFN
                 	LDI  R@0,LOW(@2*2+(@3))
                 	LDI  R@1,HIGH(@2*2+(@3))
                 	.ENDM
                 
                 	.MACRO __GETD1N
                 	LDI  R30,LOW(@0)
                 	LDI  R31,HIGH(@0)
                 	LDI  R22,BYTE3(@0)
                 	LDI  R23,BYTE4(@0)
                 	.ENDM
                 
                 	.MACRO __GETD2N
                 	LDI  R26,LOW(@0)
                 	LDI  R27,HIGH(@0)
                 	LDI  R24,BYTE3(@0)
                 	LDI  R25,BYTE4(@0)
                 	.ENDM
                 
                 	.MACRO __GETB1MN
                 	LDS  R30,@0+(@1)
                 	.ENDM
                 
                 	.MACRO __GETB1HMN
                 	LDS  R31,@0+(@1)
                 	.ENDM
                 
                 	.MACRO __GETW1MN
                 	LDS  R30,@0+(@1)
                 	LDS  R31,@0+(@1)+1
                 	.ENDM
                 
                 	.MACRO __GETD1MN
                 	LDS  R30,@0+(@1)
                 	LDS  R31,@0+(@1)+1
                 	LDS  R22,@0+(@1)+2
                 	LDS  R23,@0+(@1)+3
                 	.ENDM
                 
                 	.MACRO __GETBRMN
                 	LDS  R@0,@1+(@2)
                 	.ENDM
                 
                 	.MACRO __GETWRMN
                 	LDS  R@0,@2+(@3)
                 	LDS  R@1,@2+(@3)+1
                 	.ENDM
                 
                 	.MACRO __GETWRZ
                 	LDD  R@0,Z+@2
                 	LDD  R@1,Z+@2+1
                 	.ENDM
                 
                 	.MACRO __GETD2Z
                 	LDD  R26,Z+@0
                 	LDD  R27,Z+@0+1
                 	LDD  R24,Z+@0+2
                 	LDD  R25,Z+@0+3
                 	.ENDM
                 
                 	.MACRO __GETB2MN
                 	LDS  R26,@0+(@1)
                 	.ENDM
                 
                 	.MACRO __GETW2MN
                 	LDS  R26,@0+(@1)
                 	LDS  R27,@0+(@1)+1
                 	.ENDM
                 
                 	.MACRO __GETD2MN
                 	LDS  R26,@0+(@1)
                 	LDS  R27,@0+(@1)+1
                 	LDS  R24,@0+(@1)+2
                 	LDS  R25,@0+(@1)+3
                 	.ENDM
                 
                 	.MACRO __PUTB1MN
                 	STS  @0+(@1),R30
                 	.ENDM
                 
                 	.MACRO __PUTW1MN
                 	STS  @0+(@1),R30
                 	STS  @0+(@1)+1,R31
                 	.ENDM
                 
                 	.MACRO __PUTD1MN
                 	STS  @0+(@1),R30
                 	STS  @0+(@1)+1,R31
                 	STS  @0+(@1)+2,R22
                 	STS  @0+(@1)+3,R23
                 	.ENDM
                 
                 	.MACRO __PUTB1EN
                 	LDI  R26,LOW(@0+(@1))
                 	LDI  R27,HIGH(@0+(@1))
                 	CALL __EEPROMWRB
                 	.ENDM
                 
                 	.MACRO __PUTW1EN
                 	LDI  R26,LOW(@0+(@1))
                 	LDI  R27,HIGH(@0+(@1))
                 	CALL __EEPROMWRW
                 	.ENDM
                 
                 	.MACRO __PUTD1EN
                 	LDI  R26,LOW(@0+(@1))
                 	LDI  R27,HIGH(@0+(@1))
                 	CALL __EEPROMWRD
                 	.ENDM
                 
                 	.MACRO __PUTBR0MN
                 	STS  @0+(@1),R0
                 	.ENDM
                 
                 	.MACRO __PUTBMRN
                 	STS  @0+(@1),R@2
                 	.ENDM
                 
                 	.MACRO __PUTWMRN
                 	STS  @0+(@1),R@2
                 	STS  @0+(@1)+1,R@3
                 	.ENDM
                 
                 	.MACRO __PUTBZR
                 	STD  Z+@1,R@0
                 	.ENDM
                 
                 	.MACRO __PUTWZR
                 	STD  Z+@2,R@0
                 	STD  Z+@2+1,R@1
                 	.ENDM
                 
                 	.MACRO __GETW1R
                 	MOV  R30,R@0
                 	MOV  R31,R@1
                 	.ENDM
                 
                 	.MACRO __GETW2R
                 	MOV  R26,R@0
                 	MOV  R27,R@1
                 	.ENDM
                 
                 	.MACRO __GETWRN
                 	LDI  R@0,LOW(@2)
                 	LDI  R@1,HIGH(@2)
                 	.ENDM
                 
                 	.MACRO __PUTW1R
                 	MOV  R@0,R30
                 	MOV  R@1,R31
                 	.ENDM
                 
                 	.MACRO __PUTW2R
                 	MOV  R@0,R26
                 	MOV  R@1,R27
                 	.ENDM
                 
                 	.MACRO __ADDWRN
                 	SUBI R@0,LOW(-@2)
                 	SBCI R@1,HIGH(-@2)
                 	.ENDM
                 
                 	.MACRO __ADDWRR
                 	ADD  R@0,R@2
                 	ADC  R@1,R@3
                 	.ENDM
                 
                 	.MACRO __SUBWRN
                 	SUBI R@0,LOW(@2)
                 	SBCI R@1,HIGH(@2)
                 	.ENDM
                 
                 	.MACRO __SUBWRR
                 	SUB  R@0,R@2
                 	SBC  R@1,R@3
                 	.ENDM
                 
                 	.MACRO __ANDWRN
                 	ANDI R@0,LOW(@2)
                 	ANDI R@1,HIGH(@2)
                 	.ENDM
                 
                 	.MACRO __ANDWRR
                 	AND  R@0,R@2
                 	AND  R@1,R@3
                 	.ENDM
                 
                 	.MACRO __ORWRN
                 	ORI  R@0,LOW(@2)
                 	ORI  R@1,HIGH(@2)
                 	.ENDM
                 
                 	.MACRO __ORWRR
                 	OR   R@0,R@2
                 	OR   R@1,R@3
                 	.ENDM
                 
                 	.MACRO __EORWRR
                 	EOR  R@0,R@2
                 	EOR  R@1,R@3
                 	.ENDM
                 
                 	.MACRO __GETWRS
                 	LDD  R@0,Y+@2
                 	LDD  R@1,Y+@2+1
                 	.ENDM
                 
                 	.MACRO __PUTBSR
                 	STD  Y+@1,R@0
                 	.ENDM
                 
                 	.MACRO __PUTWSR
                 	STD  Y+@2,R@0
                 	STD  Y+@2+1,R@1
                 	.ENDM
                 
                 	.MACRO __MOVEWRR
                 	MOV  R@0,R@2
                 	MOV  R@1,R@3
                 	.ENDM
                 
                 	.MACRO __INWR
                 	IN   R@0,@2
                 	IN   R@1,@2+1
                 	.ENDM
                 
                 	.MACRO __OUTWR
                 	OUT  @2+1,R@1
                 	OUT  @2,R@0
                 	.ENDM
                 
                 	.MACRO __CALL1MN
                 	LDS  R30,@0+(@1)
                 	LDS  R31,@0+(@1)+1
                 	ICALL
                 	.ENDM
                 
                 	.MACRO __CALL1FN
                 	LDI  R30,LOW(2*@0+(@1))
                 	LDI  R31,HIGH(2*@0+(@1))
                 	CALL __GETW1PF
                 	ICALL
                 	.ENDM
                 
                 	.MACRO __CALL2EN
                 	LDI  R26,LOW(@0+(@1))
                 	LDI  R27,HIGH(@0+(@1))
                 	CALL __EEPROMRDW
                 	ICALL
                 	.ENDM
                 
                 	.MACRO __GETW1STACK
                 	IN   R26,SPL
                 	IN   R27,SPH
                 	ADIW R26,@0+1
                 	LD   R30,X+
                 	LD   R31,X
                 	.ENDM
                 
                 	.MACRO __GETD1STACK
                 	IN   R26,SPL
                 	IN   R27,SPH
                 	ADIW R26,@0+1
                 	LD   R30,X+
                 	LD   R31,X+
                 	LD   R22,X
                 	.ENDM
                 
                 	.MACRO __NBST
                 	BST  R@0,@1
                 	IN   R30,SREG
                 	LDI  R31,0x40
                 	EOR  R30,R31
                 	OUT  SREG,R30
                 	.ENDM
                 
                 
                 	.MACRO __PUTB1SN
                 	LDD  R26,Y+@0
                 	LDD  R27,Y+@0+1
                 	SUBI R26,LOW(-@1)
                 	SBCI R27,HIGH(-@1)
                 	ST   X,R30
                 	.ENDM
                 
                 	.MACRO __PUTW1SN
                 	LDD  R26,Y+@0
                 	LDD  R27,Y+@0+1
                 	SUBI R26,LOW(-@1)
                 	SBCI R27,HIGH(-@1)
                 	ST   X+,R30
                 	ST   X,R31
                 	.ENDM
                 
                 	.MACRO __PUTD1SN
                 	LDD  R26,Y+@0
                 	LDD  R27,Y+@0+1
                 	SUBI R26,LOW(-@1)
                 	SBCI R27,HIGH(-@1)
                 	CALL __PUTDP1
                 	.ENDM
                 
                 	.MACRO __PUTB1SNS
                 	LDD  R26,Y+@0
                 	LDD  R27,Y+@0+1
                 	ADIW R26,@1
                 	ST   X,R30
                 	.ENDM
                 
                 	.MACRO __PUTW1SNS
                 	LDD  R26,Y+@0
                 	LDD  R27,Y+@0+1
                 	ADIW R26,@1
                 	ST   X+,R30
                 	ST   X,R31
                 	.ENDM
                 
                 	.MACRO __PUTD1SNS
                 	LDD  R26,Y+@0
                 	LDD  R27,Y+@0+1
                 	ADIW R26,@1
                 	CALL __PUTDP1
                 	.ENDM
                 
                 	.MACRO __PUTB1PMN
                 	LDS  R26,@0
                 	LDS  R27,@0+1
                 	SUBI R26,LOW(-@1)
                 	SBCI R27,HIGH(-@1)
                 	ST   X,R30
                 	.ENDM
                 
                 	.MACRO __PUTW1PMN
                 	LDS  R26,@0
                 	LDS  R27,@0+1
                 	SUBI R26,LOW(-@1)
                 	SBCI R27,HIGH(-@1)
                 	ST   X+,R30
                 	ST   X,R31
                 	.ENDM
                 
                 	.MACRO __PUTD1PMN
                 	LDS  R26,@0
                 	LDS  R27,@0+1
                 	SUBI R26,LOW(-@1)
                 	SBCI R27,HIGH(-@1)
                 	CALL __PUTDP1
                 	.ENDM
                 
                 	.MACRO __PUTB1PMNS
                 	LDS  R26,@0
                 	LDS  R27,@0+1
                 	ADIW R26,@1
                 	ST   X,R30
                 	.ENDM
                 
                 	.MACRO __PUTW1PMNS
                 	LDS  R26,@0
                 	LDS  R27,@0+1
                 	ADIW R26,@1
                 	ST   X+,R30
                 	ST   X,R31
                 	.ENDM
                 
                 	.MACRO __PUTD1PMNS
                 	LDS  R26,@0
                 	LDS  R27,@0+1
                 	ADIW R26,@1
                 	CALL __PUTDP1
                 	.ENDM
                 
                 	.MACRO __PUTB1RN
                 	MOVW R26,R@0
                 	SUBI R26,LOW(-@1)
                 	SBCI R27,HIGH(-@1)
                 	ST   X,R30
                 	.ENDM
                 
                 	.MACRO __PUTW1RN
                 	MOVW R26,R@0
                 	SUBI R26,LOW(-@1)
                 	SBCI R27,HIGH(-@1)
                 	ST   X+,R30
                 	ST   X,R31
                 	.ENDM
                 
                 	.MACRO __PUTD1RN
                 	MOVW R26,R@0
                 	SUBI R26,LOW(-@1)
                 	SBCI R27,HIGH(-@1)
                 	CALL __PUTDP1
                 	.ENDM
                 
                 	.MACRO __PUTB1RNS
                 	MOVW R26,R@0
                 	ADIW R26,@1
                 	ST   X,R30
                 	.ENDM
                 
                 	.MACRO __PUTW1RNS
                 	MOVW R26,R@0
                 	ADIW R26,@1
                 	ST   X+,R30
                 	ST   X,R31
                 	.ENDM
                 
                 	.MACRO __PUTD1RNS
                 	MOVW R26,R@0
                 	ADIW R26,@1
                 	CALL __PUTDP1
                 	.ENDM
                 
                 	.MACRO __PUTB1RON
                 	MOV  R26,R@0
                 	MOV  R27,R@1
                 	SUBI R26,LOW(-@2)
                 	SBCI R27,HIGH(-@2)
                 	ST   X,R30
                 	.ENDM
                 
                 	.MACRO __PUTW1RON
                 	MOV  R26,R@0
                 	MOV  R27,R@1
                 	SUBI R26,LOW(-@2)
                 	SBCI R27,HIGH(-@2)
                 	ST   X+,R30
                 	ST   X,R31
                 	.ENDM
                 
                 	.MACRO __PUTD1RON
                 	MOV  R26,R@0
                 	MOV  R27,R@1
                 	SUBI R26,LOW(-@2)
                 	SBCI R27,HIGH(-@2)
                 	CALL __PUTDP1
                 	.ENDM
                 
                 	.MACRO __PUTB1RONS
                 	MOV  R26,R@0
                 	MOV  R27,R@1
                 	ADIW R26,@2
                 	ST   X,R30
                 	.ENDM
                 
                 	.MACRO __PUTW1RONS
                 	MOV  R26,R@0
                 	MOV  R27,R@1
                 	ADIW R26,@2
                 	ST   X+,R30
                 	ST   X,R31
                 	.ENDM
                 
                 	.MACRO __PUTD1RONS
                 	MOV  R26,R@0
                 	MOV  R27,R@1
                 	ADIW R26,@2
                 	CALL __PUTDP1
                 	.ENDM
                 
                 
                 	.MACRO __GETB1SX
                 	MOVW R30,R28
                 	SUBI R30,LOW(-@0)
                 	SBCI R31,HIGH(-@0)
                 	LD   R30,Z
                 	.ENDM
                 
                 	.MACRO __GETB1HSX
                 	MOVW R30,R28
                 	SUBI R30,LOW(-@0)
                 	SBCI R31,HIGH(-@0)
                 	LD   R31,Z
                 	.ENDM
                 
                 	.MACRO __GETW1SX
                 	MOVW R30,R28
                 	SUBI R30,LOW(-@0)
                 	SBCI R31,HIGH(-@0)
                 	LD   R0,Z+
                 	LD   R31,Z
                 	MOV  R30,R0
                 	.ENDM
                 
                 	.MACRO __GETD1SX
                 	MOVW R30,R28
                 	SUBI R30,LOW(-@0)
                 	SBCI R31,HIGH(-@0)
                 	LD   R0,Z+
                 	LD   R1,Z+
                 	LD   R22,Z+
                 	LD   R23,Z
                 	MOVW R30,R0
                 	.ENDM
                 
                 	.MACRO __GETB2SX
                 	MOVW R26,R28
                 	SUBI R26,LOW(-@0)
                 	SBCI R27,HIGH(-@0)
                 	LD   R26,X
                 	.ENDM
                 
                 	.MACRO __GETW2SX
                 	MOVW R26,R28
                 	SUBI R26,LOW(-@0)
                 	SBCI R27,HIGH(-@0)
                 	LD   R0,X+
                 	LD   R27,X
                 	MOV  R26,R0
                 	.ENDM
                 
                 	.MACRO __GETD2SX
                 	MOVW R26,R28
                 	SUBI R26,LOW(-@0)
                 	SBCI R27,HIGH(-@0)
                 	LD   R0,X+
                 	LD   R1,X+
                 	LD   R24,X+
                 	LD   R25,X
                 	MOVW R26,R0
                 	.ENDM
                 
                 	.MACRO __GETBRSX
                 	MOVW R30,R28
                 	SUBI R30,LOW(-@1)
                 	SBCI R31,HIGH(-@1)
                 	LD   R@0,Z
                 	.ENDM
                 
                 	.MACRO __GETWRSX
                 	MOVW R30,R28
                 	SUBI R30,LOW(-@2)
                 	SBCI R31,HIGH(-@2)
                 	LD   R@0,Z+
                 	LD   R@1,Z
                 	.ENDM
                 
                 	.MACRO __GETBRSX2
                 	MOVW R26,R28
                 	SUBI R26,LOW(-@1)
                 	SBCI R27,HIGH(-@1)
                 	LD   R@0,X
                 	.ENDM
                 
                 	.MACRO __GETWRSX2
                 	MOVW R26,R28
                 	SUBI R26,LOW(-@2)
                 	SBCI R27,HIGH(-@2)
                 	LD   R@0,X+
                 	LD   R@1,X
                 	.ENDM
                 
                 	.MACRO __LSLW8SX
                 	MOVW R30,R28
                 	SUBI R30,LOW(-@0)
                 	SBCI R31,HIGH(-@0)
                 	LD   R31,Z
                 	CLR  R30
                 	.ENDM
                 
                 	.MACRO __PUTB1SX
                 	MOVW R26,R28
                 	SUBI R26,LOW(-@0)
                 	SBCI R27,HIGH(-@0)
                 	ST   X,R30
                 	.ENDM
                 
                 	.MACRO __PUTW1SX
                 	MOVW R26,R28
                 	SUBI R26,LOW(-@0)
                 	SBCI R27,HIGH(-@0)
                 	ST   X+,R30
                 	ST   X,R31
                 	.ENDM
                 
                 	.MACRO __PUTD1SX
                 	MOVW R26,R28
                 	SUBI R26,LOW(-@0)
                 	SBCI R27,HIGH(-@0)
                 	ST   X+,R30
                 	ST   X+,R31
                 	ST   X+,R22
                 	ST   X,R23
                 	.ENDM
                 
                 	.MACRO __CLRW1SX
                 	MOVW R26,R28
                 	SUBI R26,LOW(-@0)
                 	SBCI R27,HIGH(-@0)
                 	ST   X+,R30
                 	ST   X,R30
                 	.ENDM
                 
                 	.MACRO __CLRD1SX
                 	MOVW R26,R28
                 	SUBI R26,LOW(-@0)
                 	SBCI R27,HIGH(-@0)
                 	ST   X+,R30
                 	ST   X+,R30
                 	ST   X+,R30
                 	ST   X,R30
                 	.ENDM
                 
                 	.MACRO __PUTB2SX
                 	MOVW R30,R28
                 	SUBI R30,LOW(-@0)
                 	SBCI R31,HIGH(-@0)
                 	ST   Z,R26
                 	.ENDM
                 
                 	.MACRO __PUTW2SX
                 	MOVW R30,R28
                 	SUBI R30,LOW(-@0)
                 	SBCI R31,HIGH(-@0)
                 	ST   Z+,R26
                 	ST   Z,R27
                 	.ENDM
                 
                 	.MACRO __PUTD2SX
                 	MOVW R30,R28
                 	SUBI R30,LOW(-@0)
                 	SBCI R31,HIGH(-@0)
                 	ST   Z+,R26
                 	ST   Z+,R27
                 	ST   Z+,R24
                 	ST   Z,R25
                 	.ENDM
                 
                 	.MACRO __PUTBSRX
                 	MOVW R30,R28
                 	SUBI R30,LOW(-@1)
                 	SBCI R31,HIGH(-@1)
                 	ST   Z,R@0
                 	.ENDM
                 
                 	.MACRO __PUTWSRX
                 	MOVW R30,R28
                 	SUBI R30,LOW(-@2)
                 	SBCI R31,HIGH(-@2)
                 	ST   Z+,R@0
                 	ST   Z,R@1
                 	.ENDM
                 
                 	.MACRO __PUTB1SNX
                 	MOVW R26,R28
                 	SUBI R26,LOW(-@0)
                 	SBCI R27,HIGH(-@0)
                 	LD   R0,X+
                 	LD   R27,X
                 	MOV  R26,R0
                 	SUBI R26,LOW(-@1)
                 	SBCI R27,HIGH(-@1)
                 	ST   X,R30
                 	.ENDM
                 
                 	.MACRO __PUTW1SNX
                 	MOVW R26,R28
                 	SUBI R26,LOW(-@0)
                 	SBCI R27,HIGH(-@0)
                 	LD   R0,X+
                 	LD   R27,X
                 	MOV  R26,R0
                 	SUBI R26,LOW(-@1)
                 	SBCI R27,HIGH(-@1)
                 	ST   X+,R30
                 	ST   X,R31
                 	.ENDM
                 
                 	.MACRO __PUTD1SNX
                 	MOVW R26,R28
                 	SUBI R26,LOW(-@0)
                 	SBCI R27,HIGH(-@0)
                 	LD   R0,X+
                 	LD   R27,X
                 	MOV  R26,R0
                 	SUBI R26,LOW(-@1)
                 	SBCI R27,HIGH(-@1)
                 	ST   X+,R30
                 	ST   X+,R31
                 	ST   X+,R22
                 	ST   X,R23
                 	.ENDM
                 
                 	.MACRO __MULBRR
                 	MULS R@0,R@1
                 	MOVW R30,R0
                 	.ENDM
                 
                 	.MACRO __MULBRRU
                 	MUL  R@0,R@1
                 	MOVW R30,R0
                 	.ENDM
                 
                 	.MACRO __MULBRR0
                 	MULS R@0,R@1
                 	.ENDM
                 
                 	.MACRO __MULBRRU0
                 	MUL  R@0,R@1
                 	.ENDM
                 
                 	.MACRO __MULBNWRU
                 	LDI  R26,@2
                 	MUL  R26,R@0
                 	MOVW R30,R0
                 	MUL  R26,R@1
                 	ADD  R31,R0
                 	.ENDM
                 
                 ;NAME DEFINITIONS FOR GLOBAL VARIABLES ALLOCATED TO REGISTERS
                 	.DEF _flagtancong=R4
                 	.DEF _offsetphongthu=R6
                 	.DEF _goctancong=R8
                 	.DEF _cmdCtrlRobot=R10
                 	.DEF _idRobot=R12
                 
                 	.CSEG
                 	.ORG 0x00
                 
                 ;START OF CODE MARKER
                 __START_OF_CODE:
                 
                 ;INTERRUPT VECTORS
000000 940c 0281 	JMP  __RESET
000002 940c 04ee 	JMP  _ext_int0_isr
000004 940c 04f3 	JMP  _ext_int1_isr
000006 940c 0000 	JMP  0x00
000008 940c 0000 	JMP  0x00
00000a 940c 0000 	JMP  0x00
00000c 940c 0000 	JMP  0x00
00000e 940c 0000 	JMP  0x00
000010 940c 0000 	JMP  0x00
000012 940c 0bf2 	JMP  _timer1_ovf_isr
000014 940c 0000 	JMP  0x00
000016 940c 0000 	JMP  0x00
000018 940c 0000 	JMP  0x00
00001a 940c 0454 	JMP  _usart_rx_isr
00001c 940c 0000 	JMP  0x00
00001e 940c 049c 	JMP  _usart_tx_isr
000020 940c 0000 	JMP  0x00
000022 940c 0000 	JMP  0x00
000024 940c 0000 	JMP  0x00
000026 940c 0000 	JMP  0x00
000028 940c 0000 	JMP  0x00
                 
                 _ASCII:
00002a 0000
00002b 0000
00002c 0000
00002d 5f00      	.DB  0x0,0x0,0x0,0x0,0x0,0x0,0x0,0x5F
00002e 0000
00002f 0700
000030 0700
000031 1400      	.DB  0x0,0x0,0x0,0x7,0x0,0x7,0x0,0x14
000032 147f
000033 147f
000034 2a24
000035 2a7f      	.DB  0x7F,0x14,0x7F,0x14,0x24,0x2A,0x7F,0x2A
000036 2312
000037 0813
000038 6264
000039 4936      	.DB  0x12,0x23,0x13,0x8,0x64,0x62,0x36,0x49
00003a 2255
00003b 0050
00003c 0305
00003d 0000      	.DB  0x55,0x22,0x50,0x0,0x5,0x3,0x0,0x0
00003e 1c00
00003f 4122
000040 0000
000041 2241      	.DB  0x0,0x1C,0x22,0x41,0x0,0x0,0x41,0x22
000042 001c
000043 0814
000044 083e
000045 0814      	.DB  0x1C,0x0,0x14,0x8,0x3E,0x8,0x14,0x8
000046 3e08
000047 0808
000048 5000
000049 0030      	.DB  0x8,0x3E,0x8,0x8,0x0,0x50,0x30,0x0
00004a 0800
00004b 0808
00004c 0808
00004d 6000      	.DB  0x0,0x8,0x8,0x8,0x8,0x8,0x0,0x60
00004e 0060
00004f 2000
000050 0810
000051 0204      	.DB  0x60,0x0,0x0,0x20,0x10,0x8,0x4,0x2
000052 513e
000053 4549
000054 003e
000055 7f42      	.DB  0x3E,0x51,0x49,0x45,0x3E,0x0,0x42,0x7F
000056 0040
000057 6142
000058 4951
000059 2146      	.DB  0x40,0x0,0x42,0x61,0x51,0x49,0x46,0x21
00005a 4541
00005b 314b
00005c 1418
00005d 7f12      	.DB  0x41,0x45,0x4B,0x31,0x18,0x14,0x12,0x7F
00005e 2710
00005f 4545
000060 3945
000061 4a3c      	.DB  0x10,0x27,0x45,0x45,0x45,0x39,0x3C,0x4A
000062 4949
000063 0130
000064 0971
000065 0305      	.DB  0x49,0x49,0x30,0x1,0x71,0x9,0x5,0x3
000066 4936
000067 4949
000068 0636
000069 4949      	.DB  0x36,0x49,0x49,0x49,0x36,0x6,0x49,0x49
00006a 1e29
00006b 3600
00006c 0036
00006d 0000      	.DB  0x29,0x1E,0x0,0x36,0x36,0x0,0x0,0x0
00006e 3656
00006f 0000
000070 1408
000071 4122      	.DB  0x56,0x36,0x0,0x0,0x8,0x14,0x22,0x41
000072 1400
000073 1414
000074 1414
000075 4100      	.DB  0x0,0x14,0x14,0x14,0x14,0x14,0x0,0x41
000076 1422
000077 0208
000078 5101
000079 0609      	.DB  0x22,0x14,0x8,0x2,0x1,0x51,0x9,0x6
00007a 4932
00007b 4179
00007c 7e3e
00007d 1111      	.DB  0x32,0x49,0x79,0x41,0x3E,0x7E,0x11,0x11
00007e 7e11
00007f 497f
000080 4949
000081 3e36      	.DB  0x11,0x7E,0x7F,0x49,0x49,0x49,0x36,0x3E
000082 4141
000083 2241
000084 417f
000085 2241      	.DB  0x41,0x41,0x41,0x22,0x7F,0x41,0x41,0x22
000086 7f1c
000087 4949
000088 4149
000089 097f      	.DB  0x1C,0x7F,0x49,0x49,0x49,0x41,0x7F,0x9
00008a 0909
00008b 3e01
00008c 4941
00008d 7a49      	.DB  0x9,0x9,0x1,0x3E,0x41,0x49,0x49,0x7A
00008e 087f
00008f 0808
000090 007f
000091 7f41      	.DB  0x7F,0x8,0x8,0x8,0x7F,0x0,0x41,0x7F
000092 0041
000093 4020
000094 3f41
000095 7f01      	.DB  0x41,0x0,0x20,0x40,0x41,0x3F,0x1,0x7F
000096 1408
000097 4122
000098 407f
000099 4040      	.DB  0x8,0x14,0x22,0x41,0x7F,0x40,0x40,0x40
00009a 7f40
00009b 0c02
00009c 7f02
00009d 047f      	.DB  0x40,0x7F,0x2,0xC,0x2,0x7F,0x7F,0x4
00009e 1008
00009f 3e7f
0000a0 4141
0000a1 3e41      	.DB  0x8,0x10,0x7F,0x3E,0x41,0x41,0x41,0x3E
0000a2 097f
0000a3 0909
0000a4 3e06
0000a5 5141      	.DB  0x7F,0x9,0x9,0x9,0x6,0x3E,0x41,0x51
0000a6 5e21
0000a7 097f
0000a8 2919
0000a9 4646      	.DB  0x21,0x5E,0x7F,0x9,0x19,0x29,0x46,0x46
0000aa 4949
0000ab 3149
0000ac 0101
0000ad 017f      	.DB  0x49,0x49,0x49,0x31,0x1,0x1,0x7F,0x1
0000ae 3f01
0000af 4040
0000b0 3f40
0000b1 201f      	.DB  0x1,0x3F,0x40,0x40,0x40,0x3F,0x1F,0x20
0000b2 2040
0000b3 3f1f
0000b4 3840
0000b5 3f40      	.DB  0x40,0x20,0x1F,0x3F,0x40,0x38,0x40,0x3F
0000b6 1463
0000b7 1408
0000b8 0763
0000b9 7008      	.DB  0x63,0x14,0x8,0x14,0x63,0x7,0x8,0x70
0000ba 0708
0000bb 5161
0000bc 4549
0000bd 0043      	.DB  0x8,0x7,0x61,0x51,0x49,0x45,0x43,0x0
0000be 417f
0000bf 0041
0000c0 0402
0000c1 1008      	.DB  0x7F,0x41,0x41,0x0,0x2,0x4,0x8,0x10
0000c2 0020
0000c3 4141
0000c4 007f
0000c5 0204      	.DB  0x20,0x0,0x41,0x41,0x7F,0x0,0x4,0x2
0000c6 0201
0000c7 4004
0000c8 4040
0000c9 4040      	.DB  0x1,0x2,0x4,0x40,0x40,0x40,0x40,0x40
0000ca 0100
0000cb 0402
0000cc 2000
0000cd 5454      	.DB  0x0,0x1,0x2,0x4,0x0,0x20,0x54,0x54
0000ce 7854
0000cf 487f
0000d0 4444
0000d1 3838      	.DB  0x54,0x78,0x7F,0x48,0x44,0x44,0x38,0x38
0000d2 4444
0000d3 2044
0000d4 4438
0000d5 4844      	.DB  0x44,0x44,0x44,0x20,0x38,0x44,0x44,0x48
0000d6 387f
0000d7 5454
0000d8 1854
0000d9 7e08      	.DB  0x7F,0x38,0x54,0x54,0x54,0x18,0x8,0x7E
0000da 0109
0000db 0c02
0000dc 5252
0000dd 3e52      	.DB  0x9,0x1,0x2,0xC,0x52,0x52,0x52,0x3E
0000de 087f
0000df 0404
0000e0 0078
0000e1 7d44      	.DB  0x7F,0x8,0x4,0x4,0x78,0x0,0x44,0x7D
0000e2 0040
0000e3 4020
0000e4 3d44
0000e5 7f00      	.DB  0x40,0x0,0x20,0x40,0x44,0x3D,0x0,0x7F
0000e6 2810
0000e7 0044
0000e8 4100
0000e9 407f      	.DB  0x10,0x28,0x44,0x0,0x0,0x41,0x7F,0x40
0000ea 7c00
0000eb 1804
0000ec 7804
0000ed 087c      	.DB  0x0,0x7C,0x4,0x18,0x4,0x78,0x7C,0x8
0000ee 0404
0000ef 3878
0000f0 4444
0000f1 3844      	.DB  0x4,0x4,0x78,0x38,0x44,0x44,0x44,0x38
0000f2 147c
0000f3 1414
0000f4 0808
0000f5 1414      	.DB  0x7C,0x14,0x14,0x14,0x8,0x8,0x14,0x14
0000f6 7c18
0000f7 087c
0000f8 0404
0000f9 4808      	.DB  0x18,0x7C,0x7C,0x8,0x4,0x4,0x8,0x48
0000fa 5454
0000fb 2054
0000fc 3f04
0000fd 4044      	.DB  0x54,0x54,0x54,0x20,0x4,0x3F,0x44,0x40
0000fe 3c20
0000ff 4040
000100 7c20
000101 201c      	.DB  0x20,0x3C,0x40,0x40,0x20,0x7C,0x1C,0x20
000102 2040
000103 3c1c
000104 3040
000105 3c40      	.DB  0x40,0x20,0x1C,0x3C,0x40,0x30,0x40,0x3C
000106 2844
000107 2810
000108 0c44
000109 5050      	.DB  0x44,0x28,0x10,0x28,0x44,0xC,0x50,0x50
00010a 3c50
00010b 6444
00010c 4c54
00010d 0044      	.DB  0x50,0x3C,0x44,0x64,0x54,0x4C,0x44,0x0
00010e 3608
00010f 0041
000110 0000
000111 007f      	.DB  0x8,0x36,0x41,0x0,0x0,0x0,0x7F,0x0
000112 0000
000113 3641
000114 0008
000115 0810      	.DB  0x0,0x0,0x41,0x36,0x8,0x0,0x10,0x8
000116 1008
000117 7808
000118 4146
000119 7846      	.DB  0x8,0x10,0x8,0x78,0x46,0x41,0x46,0x78
                 
                 ;REGISTER BIT VARIABLES INITIALIZATION
                 __REG_BIT_VARS:
00011a 0000      	.DW  0x0000
                 
                 _0x3:
00011b e7e7
00011c e7e7
C:\Users\AtM5\Desktop\Soccer\VGU_code\Source Code Robokit\List\AK.asm(1160): warning: .cseg .db misalignment - padding zero byte
00011d 00e7      	.DB  0xE7,0xE7,0xE7,0xE7,0xE7
                 _0x4:
00011e e7e7
00011f e7e7
C:\Users\AtM5\Desktop\Soccer\VGU_code\Source Code Robokit\List\AK.asm(1162): warning: .cseg .db misalignment - padding zero byte
000120 00e7      	.DB  0xE7,0xE7,0xE7,0xE7,0xE7
                 _0x20003:
C:\Users\AtM5\Desktop\Soccer\VGU_code\Source Code Robokit\List\AK.asm(1164): warning: .cseg .db misalignment - padding zero byte
000121 0001      	.DB  0x1
                 _0x20004:
C:\Users\AtM5\Desktop\Soccer\VGU_code\Source Code Robokit\List\AK.asm(1166): warning: .cseg .db misalignment - padding zero byte
000122 000a      	.DB  0xA
                 _0x20005:
C:\Users\AtM5\Desktop\Soccer\VGU_code\Source Code Robokit\List\AK.asm(1168): warning: .cseg .db misalignment - padding zero byte
000123 0001      	.DB  0x1
                 _0x20006:
C:\Users\AtM5\Desktop\Soccer\VGU_code\Source Code Robokit\List\AK.asm(1170): warning: .cseg .db misalignment - padding zero byte
000124 000a      	.DB  0xA
                 _0x20007:
C:\Users\AtM5\Desktop\Soccer\VGU_code\Source Code Robokit\List\AK.asm(1172): warning: .cseg .db misalignment - padding zero byte
000125 0001      	.DB  0x1
                 _0x20008:
C:\Users\AtM5\Desktop\Soccer\VGU_code\Source Code Robokit\List\AK.asm(1174): warning: .cseg .db misalignment - padding zero byte
000126 0001      	.DB  0x1
                 _0x201AB:
000127 0000
000128 0000
000129 0000
00012a 0000      	.DB  0x0,0x0,0x0,0x0,0x0,0x0,0x0,0x0
00012b 0000
00012c 0000
00012d 0000
00012e 0000      	.DB  0x0,0x0,0x0,0x0,0x0,0x0,0x0,0x0
00012f 0000
000130 0000
000131 0000
000132 0000      	.DB  0x0,0x0,0x0,0x0,0x0,0x0,0x0,0x0
000133 0000
000134 0000
000135 0000
000136 0000      	.DB  0x0,0x0,0x0,0x0,0x0,0x0,0x0,0x0
000137 0000
000138 0000
000139 0000
00013a 0000      	.DB  0x0,0x0,0x0,0x0,0x0,0x0,0x0,0x0
00013b 0000
00013c 0000
00013d 0000
00013e 0000      	.DB  0x0,0x0,0x0,0x0,0x0,0x0,0x0,0x0
00013f 0000
000140 0000
000141 0000
C:\Users\AtM5\Desktop\Soccer\VGU_code\Source Code Robokit\List\AK.asm(1182): warning: .cseg .db misalignment - padding zero byte
000142 0000      	.DB  0x0,0x0,0x0,0x0,0x0,0x0,0x0
                 _0x202E6:
000143 0001
000144 0000
000145 0000      	.DB  0x1,0x0,0x0,0x0,0x0,0x0
                 _0x20000:
000146 6425
000147 2500
000148 2e30
000149 6632      	.DB  0x25,0x64,0x0,0x25,0x30,0x2E,0x32,0x66
00014a 2000
00014b 413c
00014c 424b
00014d 544f      	.DB  0x0,0x20,0x3C,0x41,0x4B,0x42,0x4F,0x54
00014e 494b
00014f 3e54
000150 5200
000151 424f      	.DB  0x4B,0x49,0x54,0x3E,0x0,0x52,0x4F,0x42
000152 544f
000153 5720
000154 4c41
000155 004c      	.DB  0x4F,0x54,0x20,0x57,0x41,0x4C,0x4C,0x0
000156 4857
000157 5449
000158 2045
000159 494c      	.DB  0x57,0x48,0x49,0x54,0x45,0x20,0x4C,0x49
00015a 454e
00015b 4600
00015c 4c4f
00015d 574f      	.DB  0x4E,0x45,0x0,0x46,0x4F,0x4C,0x4F,0x57
00015e 5245
00015f 4200
000160 414c
000161 4b43      	.DB  0x45,0x52,0x0,0x42,0x4C,0x41,0x43,0x4B
000162 4c20
000163 4e49
000164 0045
000165 4c42      	.DB  0x20,0x4C,0x49,0x4E,0x45,0x0,0x42,0x4C
000166 4555
000167 4f54
000168 544f
000169 0048      	.DB  0x55,0x45,0x54,0x4F,0x4F,0x54,0x48,0x0
00016a 5244
00016b 5649
00016c 0045
00016d 4554      	.DB  0x44,0x52,0x49,0x56,0x45,0x0,0x54,0x45
00016e 5453
00016f 4d20
000170 544f
000171 524f      	.DB  0x53,0x54,0x20,0x4D,0x4F,0x54,0x4F,0x52
000172 4d00
000173 746f
000174 726f
000175 004c      	.DB  0x0,0x4D,0x6F,0x74,0x6F,0x72,0x4C,0x0
000176 6f4d
000177 6f74
000178 5272
000179 5400      	.DB  0x4D,0x6F,0x74,0x6F,0x72,0x52,0x0,0x54
00017a 5345
00017b 2054
00017c 4155
00017d 5452      	.DB  0x45,0x53,0x54,0x20,0x55,0x41,0x52,0x54
00017e 5400
00017f 5345
000180 2054
000181 5249      	.DB  0x0,0x54,0x45,0x53,0x54,0x20,0x49,0x52
000182 3000
000183 002e
000184 2e31
000185 3200      	.DB  0x0,0x30,0x2E,0x0,0x31,0x2E,0x0,0x32
000186 002e
000187 2e33
000188 3400
000189 002e      	.DB  0x2E,0x0,0x33,0x2E,0x0,0x34,0x2E,0x0
00018a 2e35
00018b 3600
00018c 002e
00018d 2e37      	.DB  0x35,0x2E,0x0,0x36,0x2E,0x0,0x37,0x2E
00018e 3c00
00018f 4553
000190 464c
000191 5420      	.DB  0x0,0x3C,0x53,0x45,0x4C,0x46,0x20,0x54
000192 5345
000193 3e54
000194 2a00
000195 2a2a      	.DB  0x45,0x53,0x54,0x3E,0x0,0x2A,0x2A,0x2A
000196 2a2a
000197 2a2a
000198 2a2a
000199 2a2a      	.DB  0x2A,0x2A,0x2A,0x2A,0x2A,0x2A,0x2A,0x2A
00019a 002a
00019b 4352
00019c 5320
00019d 5245      	.DB  0x2A,0x0,0x52,0x43,0x20,0x53,0x45,0x52
00019e 4f56
00019f 3100
0001a0 522e
0001a1 424f      	.DB  0x56,0x4F,0x0,0x31,0x2E,0x52,0x4F,0x42
0001a2 544f
0001a3 5720
0001a4 4c41
0001a5 004c      	.DB  0x4F,0x54,0x20,0x57,0x41,0x4C,0x4C,0x0
0001a6 2e32
0001a7 4c42
0001a8 4555
0001a9 4f54      	.DB  0x32,0x2E,0x42,0x4C,0x55,0x45,0x54,0x4F
0001aa 544f
0001ab 2048
0001ac 3300
0001ad 572e      	.DB  0x4F,0x54,0x48,0x20,0x0,0x33,0x2E,0x57
0001ae 4948
0001af 4554
0001b0 4c20
0001b1 4e49      	.DB  0x48,0x49,0x54,0x45,0x20,0x4C,0x49,0x4E
0001b2 0045
0001b3 2e34
0001b4 4c42
0001b5 4341      	.DB  0x45,0x0,0x34,0x2E,0x42,0x4C,0x41,0x43
0001b6 204b
0001b7 494c
0001b8 454e
0001b9 3500      	.DB  0x4B,0x20,0x4C,0x49,0x4E,0x45,0x0,0x35
0001ba 542e
0001bb 5345
0001bc 2054
0001bd 4f4d      	.DB  0x2E,0x54,0x45,0x53,0x54,0x20,0x4D,0x4F
0001be 4f54
0001bf 0052
0001c0 2e36
0001c1 4554      	.DB  0x54,0x4F,0x52,0x0,0x36,0x2E,0x54,0x45
0001c2 5453
0001c3 4920
0001c4 2052
0001c5 2020      	.DB  0x53,0x54,0x20,0x49,0x52,0x20,0x20,0x20
0001c6 3700
0001c7 542e
0001c8 5345
0001c9 2054      	.DB  0x0,0x37,0x2E,0x54,0x45,0x53,0x54,0x20
0001ca 4652
0001cb 2020
0001cc 0020
0001cd 2e38      	.DB  0x52,0x46,0x20,0x20,0x20,0x0,0x38,0x2E
0001ce 4554
0001cf 5453
0001d0 5520
0001d1 5241      	.DB  0x54,0x45,0x53,0x54,0x20,0x55,0x41,0x52
0001d2 2054
0001d3 3900
0001d4 522e
0001d5 2043      	.DB  0x54,0x20,0x0,0x39,0x2E,0x52,0x43,0x20
0001d6 4553
0001d7 5652
0001d8 204f
0001d9 3100      	.DB  0x53,0x45,0x52,0x56,0x4F,0x20,0x0,0x31
0001da 2e30
0001db 5055
0001dc 4144
0001dd 4554      	.DB  0x30,0x2E,0x55,0x50,0x44,0x41,0x54,0x45
0001de 5220
0001df 0042
0001e0 414d
0001e1 4e49      	.DB  0x20,0x52,0x42,0x0,0x4D,0x41,0x49,0x4E
0001e2 5020
0001e3 4f52
0001e4 5247
0001e5 4d41      	.DB  0x20,0x50,0x52,0x4F,0x47,0x52,0x41,0x4D
C:\Users\AtM5\Desktop\Soccer\VGU_code\Source Code Robokit\List\AK.asm(1226): warning: .cseg .db misalignment - padding zero byte
0001e6 0000      	.DB  0x0
                 _0x2040000:
0001e7 4e2d
0001e8 4e41
C:\Users\AtM5\Desktop\Soccer\VGU_code\Source Code Robokit\List\AK.asm(1228): warning: .cseg .db misalignment - padding zero byte
0001e9 0000      	.DB  0x2D,0x4E,0x41,0x4E,0x0
                 _0x20A0060:
C:\Users\AtM5\Desktop\Soccer\VGU_code\Source Code Robokit\List\AK.asm(1230): warning: .cseg .db misalignment - padding zero byte
0001ea 0001      	.DB  0x1
                 _0x20A0000:
0001eb 4e2d
0001ec 4e41
0001ed 4900
0001ee 464e      	.DB  0x2D,0x4E,0x41,0x4E,0x0,0x49,0x4E,0x46
C:\Users\AtM5\Desktop\Soccer\VGU_code\Source Code Robokit\List\AK.asm(1233): warning: .cseg .db misalignment - padding zero byte
0001ef 0000      	.DB  0x0
                 
                 __GLOBAL_INI_TBL:
0001f0 0001      	.DW  0x01
0001f1 0002      	.DW  0x02
0001f2 0234      	.DW  __REG_BIT_VARS*2
                 
0001f3 0005      	.DW  0x05
0001f4 03c5      	.DW  _TX_ADDRESS
0001f5 0236      	.DW  _0x3*2
                 
0001f6 0005      	.DW  0x05
0001f7 03ca      	.DW  _RX_ADDRESS
0001f8 023c      	.DW  _0x4*2
                 
0001f9 0001      	.DW  0x01
0001fa 04b9      	.DW  _id
0001fb 0242      	.DW  _0x20003*2
                 
0001fc 0001      	.DW  0x01
0001fd 04e4      	.DW  _KpR
0001fe 0244      	.DW  _0x20004*2
                 
0001ff 0001      	.DW  0x01
000200 04e6      	.DW  _KiR
000201 0246      	.DW  _0x20005*2
                 
000202 0001      	.DW  0x01
000203 04e8      	.DW  _KpL
000204 0248      	.DW  _0x20006*2
                 
000205 0001      	.DW  0x01
000206 04ea      	.DW  _KiL
000207 024a      	.DW  _0x20007*2
                 
000208 000c      	.DW  0x0C
000209 0260      	.DW  _0x20044
00020a 0295      	.DW  _0x20000*2+9
                 
00020b 000b      	.DW  0x0B
00020c 026c      	.DW  _0x20164
00020d 02a1      	.DW  _0x20000*2+21
                 
00020e 000b      	.DW  0x0B
00020f 0277      	.DW  _0x20179
000210 02ac      	.DW  _0x20000*2+32
                 
000211 0008      	.DW  0x08
000212 0282      	.DW  _0x20179+11
000213 02b7      	.DW  _0x20000*2+43
                 
000214 000b      	.DW  0x0B
000215 028a      	.DW  _0x201AC
000216 02bf      	.DW  _0x20000*2+51
                 
000217 0008      	.DW  0x08
000218 0295      	.DW  _0x201AC+11
000219 02b7      	.DW  _0x20000*2+43
                 
00021a 000a      	.DW  0x0A
00021b 029d      	.DW  _0x201FA
00021c 02ca      	.DW  _0x20000*2+62
                 
00021d 0006      	.DW  0x06
00021e 02a7      	.DW  _0x201FA+10
00021f 02d4      	.DW  _0x20000*2+72
                 
000220 000b      	.DW  0x0B
000221 02ad      	.DW  _0x20211
000222 02da      	.DW  _0x20000*2+78
                 
000223 0007      	.DW  0x07
000224 02b8      	.DW  _0x20211+11
000225 02e5      	.DW  _0x20000*2+89
                 
000226 0007      	.DW  0x07
000227 02bf      	.DW  _0x20211+18
000228 02ec      	.DW  _0x20000*2+96
                 
000229 000a      	.DW  0x0A
00022a 02c6      	.DW  _0x20216
00022b 02f3      	.DW  _0x20000*2+103
                 
00022c 0008      	.DW  0x08
00022d 02d0      	.DW  _0x20217
00022e 02fd      	.DW  _0x20000*2+113
                 
00022f 0003      	.DW  0x03
000230 02d8      	.DW  _0x20217+8
000231 0305      	.DW  _0x20000*2+121
                 
000232 0003      	.DW  0x03
000233 02db      	.DW  _0x20217+11
000234 0308      	.DW  _0x20000*2+124
                 
000235 0003      	.DW  0x03
000236 02de      	.DW  _0x20217+14
000237 030b      	.DW  _0x20000*2+127
                 
000238 0003      	.DW  0x03
000239 02e1      	.DW  _0x20217+17
00023a 030e      	.DW  _0x20000*2+130
                 
00023b 0003      	.DW  0x03
00023c 02e4      	.DW  _0x20217+20
00023d 0311      	.DW  _0x20000*2+133
                 
00023e 0003      	.DW  0x03
00023f 02e7      	.DW  _0x20217+23
000240 0314      	.DW  _0x20000*2+136
                 
000241 0003      	.DW  0x03
000242 02ea      	.DW  _0x20217+26
000243 0317      	.DW  _0x20000*2+139
                 
000244 0003      	.DW  0x03
000245 02ed      	.DW  _0x20217+29
000246 031a      	.DW  _0x20000*2+142
                 
000247 000c      	.DW  0x0C
000248 02f0      	.DW  _0x2021B
000249 031d      	.DW  _0x20000*2+145
                 
00024a 000d      	.DW  0x0D
00024b 02fc      	.DW  _0x2021B+12
00024c 0329      	.DW  _0x20000*2+157
                 
00024d 0009      	.DW  0x09
00024e 0309      	.DW  _0x20284
00024f 0336      	.DW  _0x20000*2+170
                 
000250 000d      	.DW  0x0D
000251 0312      	.DW  _0x20290
000252 033f      	.DW  _0x20000*2+179
                 
000253 000d      	.DW  0x0D
000254 031f      	.DW  _0x20290+13
000255 033f      	.DW  _0x20000*2+179
                 
000256 000d      	.DW  0x0D
000257 032c      	.DW  _0x20290+26
000258 034c      	.DW  _0x20000*2+192
                 
000259 000d      	.DW  0x0D
00025a 0339      	.DW  _0x20290+39
00025b 0359      	.DW  _0x20000*2+205
                 
00025c 000d      	.DW  0x0D
00025d 0346      	.DW  _0x20290+52
00025e 0366      	.DW  _0x20000*2+218
                 
00025f 000d      	.DW  0x0D
000260 0353      	.DW  _0x20290+65
000261 0373      	.DW  _0x20000*2+231
                 
000262 000d      	.DW  0x0D
000263 0360      	.DW  _0x20290+78
000264 0380      	.DW  _0x20000*2+244
                 
000265 000d      	.DW  0x0D
000266 036d      	.DW  _0x20290+91
000267 038d      	.DW  _0x20000*2+257
                 
000268 000d      	.DW  0x0D
000269 037a      	.DW  _0x20290+104
00026a 039a      	.DW  _0x20000*2+270
                 
00026b 000c      	.DW  0x0C
00026c 0387      	.DW  _0x20290+117
00026d 03a7      	.DW  _0x20000*2+283
                 
00026e 000d      	.DW  0x0D
00026f 0393      	.DW  _0x20290+129
000270 03b3      	.DW  _0x20000*2+295
                 
000271 000b      	.DW  0x0B
000272 03a0      	.DW  _0x202BC
000273 0296      	.DW  _0x20000*2+10
                 
000274 000d      	.DW  0x0D
000275 03ab      	.DW  _0x202BC+11
000276 0329      	.DW  _0x20000*2+157
                 
000277 000d      	.DW  0x0D
000278 03b8      	.DW  _0x202BC+24
000279 03c0      	.DW  _0x20000*2+308
                 
00027a 0006      	.DW  0x06
00027b 0004      	.DW  0x04
00027c 0286      	.DW  _0x202E6*2
                 
00027d 0001      	.DW  0x01
00027e 0518      	.DW  __seed_G105
00027f 03d4      	.DW  _0x20A0060*2
                 
                 _0xFFFFFFFF:
000280 0000      	.DW  0
                 
                 __RESET:
000281 94f8      	CLI
000282 27ee      	CLR  R30
000283 bbec      	OUT  EECR,R30
                 
                 ;INTERRUPT VECTORS ARE PLACED
                 ;AT THE START OF FLASH
000284 e0f1      	LDI  R31,1
000285 bff5      	OUT  MCUCR,R31
000286 bfe5      	OUT  MCUCR,R30
                 
                 ;DISABLE WATCHDOG
000287 e1f8      	LDI  R31,0x18
000288 bdf1      	OUT  WDTCR,R31
000289 bde1      	OUT  WDTCR,R30
                 
                 ;CLEAR R2-R14
00028a e08d      	LDI  R24,(14-2)+1
00028b e0a2      	LDI  R26,2
00028c 27bb      	CLR  R27
                 __CLEAR_REG:
00028d 93ed      	ST   X+,R30
00028e 958a      	DEC  R24
00028f f7e9      	BRNE __CLEAR_REG
                 
                 ;CLEAR SRAM
000290 e080      	LDI  R24,LOW(__CLEAR_SRAM_SIZE)
000291 e098      	LDI  R25,HIGH(__CLEAR_SRAM_SIZE)
000292 e6a0      	LDI  R26,__SRAM_START
                 __CLEAR_SRAM:
000293 93ed      	ST   X+,R30
000294 9701      	SBIW R24,1
000295 f7e9      	BRNE __CLEAR_SRAM
                 
                 ;GLOBAL VARIABLES INITIALIZATION
000296 eee0      	LDI  R30,LOW(__GLOBAL_INI_TBL*2)
000297 e0f3      	LDI  R31,HIGH(__GLOBAL_INI_TBL*2)
                 __GLOBAL_INI_NEXT:
000298 9185      	LPM  R24,Z+
000299 9195      	LPM  R25,Z+
00029a 9700      	SBIW R24,0
00029b f061      	BREQ __GLOBAL_INI_END
00029c 91a5      	LPM  R26,Z+
00029d 91b5      	LPM  R27,Z+
00029e 9005      	LPM  R0,Z+
00029f 9015      	LPM  R1,Z+
0002a0 01bf      	MOVW R22,R30
0002a1 01f0      	MOVW R30,R0
                 __GLOBAL_INI_LOOP:
0002a2 9005      	LPM  R0,Z+
0002a3 920d      	ST   X+,R0
0002a4 9701      	SBIW R24,1
0002a5 f7e1      	BRNE __GLOBAL_INI_LOOP
0002a6 01fb      	MOVW R30,R22
0002a7 cff0      	RJMP __GLOBAL_INI_NEXT
                 __GLOBAL_INI_END:
                 
                 ;HARDWARE STACK POINTER INITIALIZATION
0002a8 e5ef      	LDI  R30,LOW(__SRAM_END-__HEAP_SIZE)
0002a9 bfed      	OUT  SPL,R30
0002aa e0e8      	LDI  R30,HIGH(__SRAM_END-__HEAP_SIZE)
0002ab bfee      	OUT  SPH,R30
                 
                 ;DATA STACK POINTER INITIALIZATION
0002ac e6c0      	LDI  R28,LOW(__SRAM_START+__DSTACK_SIZE)
0002ad e0d2      	LDI  R29,HIGH(__SRAM_START+__DSTACK_SIZE)
                 
0002ae 940c 157b 	JMP  _main
                 
                 	.ESEG
                 	.ORG 0
                 
                 	.DSEG
                 	.ORG 0x260
                 
                 	.CSEG
                 ;#include <mega32a.h>
                 	#ifndef __SLEEP_DEFINED__
                 	#define __SLEEP_DEFINED__
                 	.EQU __se_bit=0x80
                 	.EQU __sm_mask=0x70
                 	.EQU __sm_powerdown=0x20
                 	.EQU __sm_powersave=0x30
                 	.EQU __sm_standby=0x60
                 	.EQU __sm_ext_standby=0x70
                 	.EQU __sm_adc_noise_red=0x10
                 	.SET power_ctrl_reg=mcucr
                 	#endif
                 ;#include <string.h>
                 ;#include <nRF24L01/nRF24L01.h>
                 ;#include <delay.h>
                 ;#include <spi.h>
                 ;
                 ;#define CSN    PORTC.2
                 ;#define CE     PORTC.3
                 ;#define SCK    PORTB.7
                 ;#define MISO   PINB.6
                 ;#define MOSI   PORTB.5
                 ;//********************************************************************************
                 ;//unsigned char const TX_ADDRESS[TX_ADR_WIDTH]= {0x34,0x43,0x10,0x10,0x01};	//
                 ;//unsigned char const RX_ADDRESS[RX_ADR_WIDTH]= {0x34,0x43,0x10,0x10,0x01};	//
                 ;unsigned char const TX_ADDRESS[TX_ADR_WIDTH]= {0xE7,0xE7,0xE7,0xE7,0xE7};	// dia chi phat du lieu
                 
                 	.DSEG
                 ;unsigned char const RX_ADDRESS[RX_ADR_WIDTH]= {0xE7,0xE7,0xE7,0xE7,0xE7};	// dia chi nhan du lieu
                 ;//****************************************************************************************
                 ;//*NRF24L01
                 ;//***************************************************************************************/
                 ;void init_NRF24L01(void)
                 ; 0000 0015 {
                 
                 	.CSEG
                 _init_NRF24L01:
                 ; 0000 0016     //init SPI
                 ; 0000 0017     SPCR=0x51; //set this to 0x50 for 1 mbits
0002b0 e5e1      	LDI  R30,LOW(81)
0002b1 b9ed      	OUT  0xD,R30
                 ; 0000 0018     SPSR=0x00;
0002b2 e0e0      	LDI  R30,LOW(0)
0002b3 b9ee      	OUT  0xE,R30
                 ; 0000 0019 
                 ; 0000 001A     //inerDelay_us(100);
                 ; 0000 001B     delay_us(100);
                +
0002b4 ec88     +LDI R24 , LOW ( 200 )
0002b5 e090     +LDI R25 , HIGH ( 200 )
                +__DELAY_USW_LOOP :
0002b6 9701     +SBIW R24 , 1
0002b7 f7f1     +BRNE __DELAY_USW_LOOP
                 	__DELAY_USW 200
                 ; 0000 001C  	CE=0;    // chip enable
0002b8 98ab      	CBI  0x15,3
                 ; 0000 001D  	CSN=1;   // Spi disable
0002b9 9aaa      	SBI  0x15,2
                 ; 0000 001E  	//SCK=0;   // Spi clock line init high
                 ; 0000 001F 	SPI_Write_Buf(WRITE_REG + TX_ADDR, TX_ADDRESS, TX_ADR_WIDTH);    //
0002ba e3e0      	LDI  R30,LOW(48)
0002bb 93ea      	ST   -Y,R30
0002bc ece5      	LDI  R30,LOW(_TX_ADDRESS)
0002bd e0f3      	LDI  R31,HIGH(_TX_ADDRESS)
0002be 940e 185a 	CALL SUBOPT_0x0
                 ; 0000 0020 	SPI_Write_Buf(WRITE_REG + RX_ADDR_P0, RX_ADDRESS, RX_ADR_WIDTH); //
0002c0 e2ea      	LDI  R30,LOW(42)
0002c1 93ea      	ST   -Y,R30
0002c2 ecea      	LDI  R30,LOW(_RX_ADDRESS)
0002c3 e0f3      	LDI  R31,HIGH(_RX_ADDRESS)
0002c4 940e 185a 	CALL SUBOPT_0x0
                 ; 0000 0021 	SPI_RW_Reg(WRITE_REG + EN_AA, 0x00);      // EN P0, 2-->P1
0002c6 e2e1      	LDI  R30,LOW(33)
0002c7 93ea      	ST   -Y,R30
0002c8 e0e0      	LDI  R30,LOW(0)
0002c9 93ea      	ST   -Y,R30
0002ca d02c      	RCALL _SPI_RW_Reg
                 ; 0000 0022 	SPI_RW_Reg(WRITE_REG + EN_RXADDR, 0x01);  //Enable data P0
0002cb e2e2      	LDI  R30,LOW(34)
0002cc 93ea      	ST   -Y,R30
0002cd e0e1      	LDI  R30,LOW(1)
0002ce 93ea      	ST   -Y,R30
0002cf d027      	RCALL _SPI_RW_Reg
                 ; 0000 0023 	SPI_RW_Reg(WRITE_REG + RF_CH, 2);        // Chanel 0 RF = 2400 + RF_CH* (1or 2 M)
0002d0 e2e5      	LDI  R30,LOW(37)
0002d1 93ea      	ST   -Y,R30
0002d2 e0e2      	LDI  R30,LOW(2)
0002d3 93ea      	ST   -Y,R30
0002d4 d022      	RCALL _SPI_RW_Reg
                 ; 0000 0024 	SPI_RW_Reg(WRITE_REG + RX_PW_P0, RX_PLOAD_WIDTH); // Do rong data truyen 32 byte
0002d5 e3e1      	LDI  R30,LOW(49)
0002d6 93ea      	ST   -Y,R30
0002d7 e2e0      	LDI  R30,LOW(32)
0002d8 93ea      	ST   -Y,R30
0002d9 d01d      	RCALL _SPI_RW_Reg
                 ; 0000 0025 	SPI_RW_Reg(WRITE_REG + RF_SETUP, 0x07);   		// 1M, 0dbm
0002da e2e6      	LDI  R30,LOW(38)
0002db 93ea      	ST   -Y,R30
0002dc e0e7      	LDI  R30,LOW(7)
0002dd 93ea      	ST   -Y,R30
0002de d018      	RCALL _SPI_RW_Reg
                 ; 0000 0026 	SPI_RW_Reg(WRITE_REG + CONFIG, 0x0e);   		 // Enable CRC, 2 byte CRC, Send
0002df e2e0      	LDI  R30,LOW(32)
0002e0 93ea      	ST   -Y,R30
0002e1 e0ee      	LDI  R30,LOW(14)
0002e2 93ea      	ST   -Y,R30
0002e3 d013      	RCALL _SPI_RW_Reg
                 ; 0000 0027 
                 ; 0000 0028 }
0002e4 9508      	RET
                 ;/****************************************************************************************************/
                 ;//unsigned char SPI_RW(unsigned char Buff)
                 ;//NRF24L01
                 ;/****************************************************************************************************/
                 ;unsigned char SPI_RW(unsigned char Buff)
                 ; 0000 002E {
                 _SPI_RW:
                 ; 0000 002F    return spi(Buff);
                 ;	Buff -> Y+0
0002e5 81e8      	LD   R30,Y
0002e6 93ea      	ST   -Y,R30
0002e7 940e 163f 	CALL _spi
0002e9 940c 0532 	JMP  _0x20C000D
                 ; 0000 0030 }
                 ;/****************************************************************************************************/
                 ;//unsigned char SPI_Read(unsigned char reg)
                 ;//NRF24L01
                 ;/****************************************************************************************************/
                 ;unsigned char SPI_Read(unsigned char reg)
                 ; 0000 0036 {
                 _SPI_Read:
                 ; 0000 0037 	unsigned char reg_val;
                 ; 0000 0038 
                 ; 0000 0039 	CSN = 0;                // CSN low, initialize SPI communication...
0002eb 931a      	ST   -Y,R17
                 ;	reg -> Y+1
                 ;	reg_val -> R17
0002ec 98aa      	CBI  0x15,2
                 ; 0000 003A 	SPI_RW(reg);            // Select register to read from..
0002ed 81e9      	LDD  R30,Y+1
0002ee 93ea      	ST   -Y,R30
0002ef dff5      	RCALL _SPI_RW
                 ; 0000 003B 	reg_val = SPI_RW(0);    // ..then read registervalue
0002f0 e0e0      	LDI  R30,LOW(0)
0002f1 940e 1862 	CALL SUBOPT_0x1
                 ; 0000 003C 	CSN = 1;                // CSN high, terminate SPI communication
0002f3 9aaa      	SBI  0x15,2
                 ; 0000 003D 
                 ; 0000 003E 	return(reg_val);        // return register value
0002f4 2fe1      	MOV  R30,R17
0002f5 8118      	LDD  R17,Y+0
0002f6 c142      	RJMP _0x20C000E
                 ; 0000 003F }
                 ;/****************************************************************************************************/
                 ;//unsigned char SPI_RW_Reg(unsigned char reg, unsigned char value)
                 ;/****************************************************************************************************/
                 ;unsigned char SPI_RW_Reg(unsigned char reg, unsigned char value)
                 ; 0000 0044 {
                 _SPI_RW_Reg:
                 ; 0000 0045 	unsigned char status;
                 ; 0000 0046 
                 ; 0000 0047 	CSN = 0;                   // CSN low, init SPI transaction
0002f7 931a      	ST   -Y,R17
                 ;	reg -> Y+2
                 ;	value -> Y+1
                 ;	status -> R17
0002f8 98aa      	CBI  0x15,2
                 ; 0000 0048 	status = SPI_RW(reg);      // select register
0002f9 81ea      	LDD  R30,Y+2
0002fa 940e 1862 	CALL SUBOPT_0x1
                 ; 0000 0049 	SPI_RW(value);             // ..and write value to it..
0002fc 81e9      	LDD  R30,Y+1
0002fd 93ea      	ST   -Y,R30
0002fe dfe6      	RCALL _SPI_RW
                 ; 0000 004A 	CSN = 1;                   // CSN high again
0002ff 9aaa      	SBI  0x15,2
                 ; 0000 004B 
                 ; 0000 004C 	return(status);            // return nRF24L01 status uchar
000300 2fe1      	MOV  R30,R17
000301 8118      	LDD  R17,Y+0
000302 c0ac      	RJMP _0x20C0011
                 ; 0000 004D }
                 ;/****************************************************************************************************/
                 ;//unsigned char SPI_Read_Buf(unsigned char reg, unsigned char *pBuf, unsigned char uchars)
                 ;//
                 ;/****************************************************************************************************/
                 ;unsigned char SPI_Read_Buf(unsigned char reg, unsigned char *pBuf, unsigned char uchars)
                 ; 0000 0053 {
                 _SPI_Read_Buf:
                 ; 0000 0054 	unsigned char status,uchar_ctr;
                 ; 0000 0055 
                 ; 0000 0056 	CSN = 0;                    		// Set CSN low, init SPI tranaction
000303 931a      	ST   -Y,R17
000304 930a      	ST   -Y,R16
                 ;	reg -> Y+5
                 ;	*pBuf -> Y+3
                 ;	uchars -> Y+2
                 ;	status -> R17
                 ;	uchar_ctr -> R16
000305 98aa      	CBI  0x15,2
                 ; 0000 0057 	status = SPI_RW(reg);       		// Select register to write to and read status uchar
000306 81ed      	LDD  R30,Y+5
000307 940e 1862 	CALL SUBOPT_0x1
                 ; 0000 0058 
                 ; 0000 0059 	for(uchar_ctr=0;uchar_ctr<uchars;uchar_ctr++)
000309 e000      	LDI  R16,LOW(0)
                 _0x14:
00030a 81ea      	LDD  R30,Y+2
00030b 170e      	CP   R16,R30
00030c f480      	BRSH _0x15
                 ; 0000 005A 		pBuf[uchar_ctr] = SPI_RW(0);    //
00030d 2fe0      	MOV  R30,R16
00030e 81ab      	LDD  R26,Y+3
00030f 81bc      	LDD  R27,Y+3+1
000310 e0f0      	LDI  R31,0
000311 0fea      	ADD  R30,R26
000312 1ffb      	ADC  R31,R27
000313 93ff      	PUSH R31
000314 93ef      	PUSH R30
000315 e0e0      	LDI  R30,LOW(0)
000316 93ea      	ST   -Y,R30
000317 dfcd      	RCALL _SPI_RW
000318 91af      	POP  R26
000319 91bf      	POP  R27
00031a 93ec      	ST   X,R30
00031b 5f0f      	SUBI R16,-1
00031c cfed      	RJMP _0x14
                 _0x15:
                 ; 0000 005C PORTC.2 = 1;
00031d 9aaa      	SBI  0x15,2
                 ; 0000 005D 
                 ; 0000 005E 	return(status);                    // return nRF24L01 status uchar
00031e 2fe1      	MOV  R30,R17
00031f 8119      	LDD  R17,Y+1
000320 8108      	LDD  R16,Y+0
000321 9626      	ADIW R28,6
000322 9508      	RET
                 ; 0000 005F }
                 ;/*********************************************************************************************************/
                 ;//uint SPI_Write_Buf(uchar reg, uchar *pBuf, uchar uchars)
                 ;/*****************************************************************************************************/
                 ;unsigned char SPI_Write_Buf(unsigned char reg, unsigned char *pBuf, unsigned uchars)
                 ; 0000 0064 {
                 _SPI_Write_Buf:
                 ; 0000 0065 	unsigned char status,uchar_ctr;
                 ; 0000 0066 	CSN = 0;            //SPI
000323 931a      	ST   -Y,R17
000324 930a      	ST   -Y,R16
                 ;	reg -> Y+6
                 ;	*pBuf -> Y+4
                 ;	uchars -> Y+2
                 ;	status -> R17
                 ;	uchar_ctr -> R16
000325 98aa      	CBI  0x15,2
                 ; 0000 0067 	status = SPI_RW(reg);
000326 81ee      	LDD  R30,Y+6
000327 940e 1862 	CALL SUBOPT_0x1
                 ; 0000 0068 	for(uchar_ctr=0; uchar_ctr<uchars; uchar_ctr++) //
000329 e000      	LDI  R16,LOW(0)
                 _0x1B:
00032a 81ea      	LDD  R30,Y+2
00032b 81fb      	LDD  R31,Y+2+1
00032c 2fa0      	MOV  R26,R16
00032d e0b0      	LDI  R27,0
00032e 17ae      	CP   R26,R30
00032f 07bf      	CPC  R27,R31
000330 f448      	BRSH _0x1C
                 ; 0000 0069 	SPI_RW(*pBuf++);
000331 81ac      	LDD  R26,Y+4
000332 81bd      	LDD  R27,Y+4+1
000333 91ed      	LD   R30,X+
000334 83ac      	STD  Y+4,R26
000335 83bd      	STD  Y+4+1,R27
000336 93ea      	ST   -Y,R30
000337 dfad      	RCALL _SPI_RW
000338 5f0f      	SUBI R16,-1
000339 cff0      	RJMP _0x1B
                 _0x1C:
                 ; 0000 006A PORTC.2 = 1;
00033a 9aaa      	SBI  0x15,2
                 ; 0000 006B 	return(status);    //
00033b 2fe1      	MOV  R30,R17
00033c 8119      	LDD  R17,Y+1
00033d 8108      	LDD  R16,Y+0
00033e 9627      	ADIW R28,7
00033f 9508      	RET
                 ; 0000 006C }
                 ;/****************************************************************************************************/
                 ;//void SetRX_Mode(void)
                 ;//
                 ;/****************************************************************************************************/
                 ;void SetRX_Mode(void)
                 ; 0000 0072 {
                 _SetRX_Mode:
                 ; 0000 0073 	CE=0;
000340 98ab      	CBI  0x15,3
                 ; 0000 0074 	SPI_RW_Reg(WRITE_REG + CONFIG, 0x07);   		// enable power up and prx
000341 e2e0      	LDI  R30,LOW(32)
000342 93ea      	ST   -Y,R30
000343 e0e7      	LDI  R30,LOW(7)
000344 93ea      	ST   -Y,R30
000345 dfb1      	RCALL _SPI_RW_Reg
                 ; 0000 0075 	CE = 1;
000346 9aab      	SBI  0x15,3
                 ; 0000 0076 	delay_us(130);    //
                +
000347 e084     +LDI R24 , LOW ( 260 )
000348 e091     +LDI R25 , HIGH ( 260 )
                +__DELAY_USW_LOOP :
000349 9701     +SBIW R24 , 1
00034a f7f1     +BRNE __DELAY_USW_LOOP
                 	__DELAY_USW 260
                 ; 0000 0077 }
00034b 9508      	RET
                 ;/****************************************************************************************************/
                 ;//void SetTX_Mode(void)
                 ;//
                 ;/****************************************************************************************************/
                 ;void SetTX_Mode(void)
                 ; 0000 007D {
                 ; 0000 007E 	CE=0;
                 ; 0000 007F 	SPI_RW_Reg(WRITE_REG + CONFIG, 0x0e);   		// Enable CRC, 2 byte CRC, Send
                 ; 0000 0080 	CE = 1;
                 ; 0000 0081 	delay_us(130);    //
                 ; 0000 0082 }
                 ;
                 ;/******************************************************************************************************/
                 ;//unsigned char nRF24L01_RxPacket(unsigned char* rx_buf)
                 ;/******************************************************************************************************/
                 ;unsigned char nRF24L01_RxPacket(unsigned char* rx_buf)
                 ; 0000 0088 {
                 _nRF24L01_RxPacket:
                 ; 0000 0089     unsigned char revale=0;
                 ; 0000 008A     unsigned char sta;
                 ; 0000 008B 	sta=SPI_Read(STATUS);	// Read Status
00034c 931a      	ST   -Y,R17
00034d 930a      	ST   -Y,R16
                 ;	*rx_buf -> Y+2
                 ;	revale -> R17
                 ;	sta -> R16
00034e e010      	LDI  R17,0
00034f e0e7      	LDI  R30,LOW(7)
000350 93ea      	ST   -Y,R30
000351 df99      	RCALL _SPI_Read
000352 2f0e      	MOV  R16,R30
                 ; 0000 008C 	//if(RX_DR)				// Data in RX FIFO
                 ; 0000 008D     if((sta&0x40)!=0)		// Data in RX FIFO
000353 ff06      	SBRS R16,6
000354 c00b      	RJMP _0x27
                 ; 0000 008E 	{
                 ; 0000 008F 	    CE = 0; 			//SPI
000355 98ab      	CBI  0x15,3
                 ; 0000 0090 		SPI_Read_Buf(RD_RX_PLOAD,rx_buf,TX_PLOAD_WIDTH);// read receive payload from RX_FIFO buffer
000356 e6e1      	LDI  R30,LOW(97)
000357 93ea      	ST   -Y,R30
000358 81eb      	LDD  R30,Y+3
000359 81fc      	LDD  R31,Y+3+1
00035a 93fa      	ST   -Y,R31
00035b 93ea      	ST   -Y,R30
00035c e2e0      	LDI  R30,LOW(32)
00035d 93ea      	ST   -Y,R30
00035e dfa4      	RCALL _SPI_Read_Buf
                 ; 0000 0091 		revale =1;
00035f e011      	LDI  R17,LOW(1)
                 ; 0000 0092 	}
                 ; 0000 0093 	SPI_RW_Reg(WRITE_REG+STATUS,sta);
                 _0x27:
000360 e2e7      	LDI  R30,LOW(39)
000361 93ea      	ST   -Y,R30
000362 930a      	ST   -Y,R16
000363 df93      	RCALL _SPI_RW_Reg
                 ; 0000 0094     CE = 1; 			//SPI
000364 9aab      	SBI  0x15,3
                 ; 0000 0095 	return revale;
000365 2fe1      	MOV  R30,R17
000366 8119      	LDD  R17,Y+1
000367 8108      	LDD  R16,Y+0
000368 940c 0658 	JMP  _0x20C000A
                 ; 0000 0096 }
                 ;/***********************************************************************************************************/
                 ;//void nRF24L01_TxPacket(unsigned char * tx_buf)
                 ;//
                 ;/**********************************************************************************************************/
                 ;void nRF24L01_TxPacket(unsigned char * tx_buf)
                 ; 0000 009C {
                 ; 0000 009D 	CE=0;
                 ;	*tx_buf -> Y+0
                 ; 0000 009E 	SPI_Write_Buf(WRITE_REG + RX_ADDR_P0, TX_ADDRESS, TX_ADR_WIDTH); // Send Address
                 ; 0000 009F 	SPI_Write_Buf(WR_TX_PLOAD, tx_buf, TX_PLOAD_WIDTH); 			 //send data
                 ; 0000 00A0 	SPI_RW_Reg(WRITE_REG + CONFIG, 0x0e);   		 // Send Out
                 ; 0000 00A1 	CE=1;
                 ; 0000 00A2 }
                 ;
                 ;// --------------------END OF FILE------------------------
                 ;// -------------------------------------------------------
                 ;/*****************************************************
                 ;This program was produced by the
                 ;CodeWizardAVR V2.05.0 Evaluation
                 ;Automatic Program Generator
                 ; Copyright 1998-2010 Pavel Haiduc, HP InfoTech s.r.l.
                 ;http://www.hpinfotech.com
                 ;
                 ;Project :
                 ;Version :
                 ;Date    : 6/4/2015
                 ;Author  : Freeware, for evaluation and non-commercial use only
                 ;Company :
                 ;Comments:
                 ;
                 ;
                 ;Chip type               : ATmega32A
                 ;Program type            : Application
                 ;AVR Core Clock frequency: 8.000000 MHz
                 ;Memory model            : Small
                 ;External RAM size       : 0
                 ;Data Stack size         : 512
                 ;*****************************************************/
                 ;
                 ;#include <stdio.h>
                 ;#include <string.h>
                 ;#include <stdarg.h>
                 ;#include <mega32a.h>
                 	#ifndef __SLEEP_DEFINED__
                 	#endif
                 ;#include <delay.h>
                 ;#include <spi.h>
                 ;#include <nRF24L01/nRF24L01.h>
                 ;#include <math.h>
                 ;
                 ;/* PIN DEFINITION */
                 ;// PIN LED ROBO KIT
                 ;#define LEDL	PORTC.4
                 ;#define LEDR	PORTC.5
                 ;#define LEDFL   PORTA.4
                 ;#define LEDFR   PORTA.5
                 ;#define LEDBL   PORTA.6
                 ;#define LEDBR   PORTA.7
                 ;#define keyKT   PINC.0 // Nut ben trai
                 ;#define keyKP   PINC.1 // Nut ben phai
                 ;#define S0  PINA.0
                 ;#define S1  PINA.1
                 ;#define S2  PINA.2
                 ;#define S3  PINA.3
                 ;#define S4  PINA.7
                 ;#define MLdir   PORTC.6
                 ;#define MRdir   PORTC.7
                 ;// PIN NOKIA 5110
                 ;#define RST    PORTB.0
                 ;#define SCE    PORTB.1
                 ;#define DC     PORTB.2
                 ;#define DIN    PORTB.5
                 ;#define SCK    PORTB.7
                 ;#define LCD_C     0
                 ;#define LCD_D     1
                 ;#define LCD_X     84
                 ;#define LCD_Y     48
                 ;#define Black 1
                 ;#define White 0
                 ;#define Filled 1
                 ;#define NotFilled 0
                 ;// VARIABLES FOR ROBOT CONTROL
                 ;#define CtrVelocity    //uncomment de chon chay pid dieu khien van toc, va su dung cac ham vMLtoi,vMLlui,....
                 ;#define ROBOT_ID 4
                 ;#define SAN_ID 1  //CHON HUONG TAN CONG LA X >0;
                 ;#define M_PI    3.14159265358979323846    /* pi */
                 ;
                 ;typedef   signed          char int8_t;
                 ;typedef   signed           int int16_t;
                 ;typedef   signed  long    int int32_t;
                 ;typedef   unsigned         char uint8_t;
                 ;typedef   unsigned        int  uint16_t;
                 ;typedef   unsigned long    int  uint32_t;
                 ;typedef   float            float32_t;
                 ;typedef struct   {
                 ;        float x;
                 ;        float y;
                 ;} Ball ;
                 ;typedef struct {
                 ;    int x;
                 ;    int y;
                 ;} IntBall;
                 ;typedef struct   {
                 ;        float id;
                 ;        float x;
                 ;        float y;
                 ;        float ox;
                 ;        float oy;
                 ;        Ball ball;
                 ;} Robot;
                 ;typedef struct {
                 ;    int id;
                 ;    int x;
                 ;    int y;
                 ;    int ox;
                 ;    int oy;
                 ;    IntBall ball;
                 ;} IntRobot;
                 ;
                 ;// FUNCTION DECLARATION
                 ;IntRobot convertRobot2IntRobot(Robot robot);
                 ;unsigned char readposition();
                 ;void runEscBlindSpot();
                 ;void ctrrobot();// can phai luon luon chay de dieu khien robot
                 ;void rb_move(float x,float y);
                 ;int rb_wait(unsigned long int time );
                 ;void rb_rotate(int angle);     // goc xoay so voi truc x cua toa do
                 ;void calcvitri(float x,float y);
                 ;int calcVangle(int angle);
                 ;
                 ;// VARIABLES DECLARATION
                 ;Robot rb;
                 ;IntRobot robot11, robot12, robot13, robot21, robot22, robot23, robotctrl;
                 ;float errangle=0, distance=0,orentation=0;
                 ;int flagtancong=1;
                 ;int offsetphongthu=0;
                 ;int goctancong=0;
                 ;unsigned char RxBuf[32];
                 ;float setRobotX=0;
                 ;float setRobotY=0;
                 ;float setRobotXmin=0;
                 ;float setRobotXmax=0;
                 ;float setRobotAngleX=0;
                 ;float setRobotAngleY=0;
                 ;float offestsanco=0;
                 ;float rbctrlHomeX=0;
                 ;float rbctrlHomeY=0;
                 ;float rbctrlPenaltyX=0;
                 ;float rbctrlPenaltyY=0;
                 ;float rbctrlPenaltyAngle=0;
                 ;float rbctrlHomeAngle=0;
                 ;unsigned int cmdCtrlRobot,idRobot;
                 ;unsigned int cntsethomeRB  =0;
                 ;unsigned int cntstuckRB=0;
                 ;unsigned int cntunlookRB=0;
                 ;unsigned int flagunlookRB=0;
                 ;unsigned int cntunsignalRF=0;
                 ;unsigned int flagunsignalRF=0;
                 ;unsigned int flagsethome=0;
                 ;unsigned int flagselftest = 0;
                 ;unsigned int cntselftest = 0;
                 ;
                 ;//======USER VARIABLES=========
                 ;unsigned char id = 1;
                 
                 	.DSEG
                 ;//======IR READER VARIABLES====
                 ;unsigned int IRFL=0;
                 ;unsigned int IRFR=0;
                 ;unsigned int IRBL=0;
                 ;unsigned int IRLINE[5];
                 ;//======MOTOR CONTROL========
                 ;//------VELOCITY CONTROL=====
                 ;unsigned int timerstick=0,timerstickdis =0,timerstickang=0,timerstickctr=0;
                 ;unsigned int vQEL=0;  //do (xung/250ms)
                 ;unsigned int vQER=0;  //do (xung/250ms)
                 ;unsigned int oldQEL=0;
                 ;unsigned int oldQER=0;
                 ;unsigned int svQEL=0;  //dat (xung/250ms) (range: 0-22)
                 ;unsigned int svQER=0;  //dat (xung/250ms) (range: 0-22)
                 ;static int seRki=0,seLki=0;
                 ;int uL = 0 ;
                 ;int uR = 0;
                 ;int KpR = 10;
                 ;int KiR = 1;
                 ;int KpL = 10;
                 ;int KiL = 1;
                 ;//------POSITION CONTROL-----
                 ;unsigned int sd=0;// dat khoang cach  di chuyen (xung)
                 ;unsigned int oldd=0;// bien luu gia tri vi tri cu
                 ;unsigned char flagwaitctrRobot = 0;
                 ;//-----ANGLES CONTROL----
                 ;unsigned int sa=0;// dat goc quay (xung) ( 54 xung/vong quay)
                 ;unsigned int olda=0;// bien luu gia tri goc cu
                 ;unsigned char  flagwaitctrAngle = 0;
                 ;//-----ROBOT BEHAVIOR CONTROL-----
                 ;unsigned int flagtask=0;
                 ;unsigned int flagtaskold=0;
                 ;unsigned int flaghuongtrue=0;
                 ;int verranglekisum = 0;
                 ;//=====ENCODER======
                 ; unsigned int QEL=0;
                 ; unsigned int QER=0;
                 ;//=====LCD=========
                 ; unsigned char menu=0,test=0,ok=0,runing_test=0,run_robot=0,ft=1,timer=0;
                 ;flash unsigned char ASCII[][5] = {
                 ; {0x00, 0x00, 0x00, 0x00, 0x00} // 20
                 ;,{0x00, 0x00, 0x5f, 0x00, 0x00} // 21 !
                 ;,{0x00, 0x07, 0x00, 0x07, 0x00} // 22 "
                 ;,{0x14, 0x7f, 0x14, 0x7f, 0x14} // 23 #
                 ;,{0x24, 0x2a, 0x7f, 0x2a, 0x12} // 24 $
                 ;,{0x23, 0x13, 0x08, 0x64, 0x62} // 25 %
                 ;,{0x36, 0x49, 0x55, 0x22, 0x50} // 26 &
                 ;,{0x00, 0x05, 0x03, 0x00, 0x00} // 27 '
                 ;,{0x00, 0x1c, 0x22, 0x41, 0x00} // 28 (
                 ;,{0x00, 0x41, 0x22, 0x1c, 0x00} // 29 )
                 ;,{0x14, 0x08, 0x3e, 0x08, 0x14} // 2a *
                 ;,{0x08, 0x08, 0x3e, 0x08, 0x08} // 2b +
                 ;,{0x00, 0x50, 0x30, 0x00, 0x00} // 2c ,
                 ;,{0x08, 0x08, 0x08, 0x08, 0x08} // 2d -
                 ;,{0x00, 0x60, 0x60, 0x00, 0x00} // 2e .
                 ;,{0x20, 0x10, 0x08, 0x04, 0x02} // 2f /
                 ;,{0x3e, 0x51, 0x49, 0x45, 0x3e} // 30 0
                 ;,{0x00, 0x42, 0x7f, 0x40, 0x00} // 31 1
                 ;,{0x42, 0x61, 0x51, 0x49, 0x46} // 32 2
                 ;,{0x21, 0x41, 0x45, 0x4b, 0x31} // 33 3
                 ;,{0x18, 0x14, 0x12, 0x7f, 0x10} // 34 4
                 ;,{0x27, 0x45, 0x45, 0x45, 0x39} // 35 5
                 ;,{0x3c, 0x4a, 0x49, 0x49, 0x30} // 36 6
                 ;,{0x01, 0x71, 0x09, 0x05, 0x03} // 37 7
                 ;,{0x36, 0x49, 0x49, 0x49, 0x36} // 38 8
                 ;,{0x06, 0x49, 0x49, 0x29, 0x1e} // 39 9
                 ;,{0x00, 0x36, 0x36, 0x00, 0x00} // 3a :
                 ;,{0x00, 0x56, 0x36, 0x00, 0x00} // 3b ;
                 ;,{0x08, 0x14, 0x22, 0x41, 0x00} // 3c <
                 ;,{0x14, 0x14, 0x14, 0x14, 0x14} // 3d =
                 ;,{0x00, 0x41, 0x22, 0x14, 0x08} // 3e >
                 ;,{0x02, 0x01, 0x51, 0x09, 0x06} // 3f ?
                 ;,{0x32, 0x49, 0x79, 0x41, 0x3e} // 40 @
                 ;,{0x7e, 0x11, 0x11, 0x11, 0x7e} // 41 A
                 ;,{0x7f, 0x49, 0x49, 0x49, 0x36} // 42 B
                 ;,{0x3e, 0x41, 0x41, 0x41, 0x22} // 43 C
                 ;,{0x7f, 0x41, 0x41, 0x22, 0x1c} // 44 D
                 ;,{0x7f, 0x49, 0x49, 0x49, 0x41} // 45 E
                 ;,{0x7f, 0x09, 0x09, 0x09, 0x01} // 46 F
                 ;,{0x3e, 0x41, 0x49, 0x49, 0x7a} // 47 G
                 ;,{0x7f, 0x08, 0x08, 0x08, 0x7f} // 48 H
                 ;,{0x00, 0x41, 0x7f, 0x41, 0x00} // 49 I
                 ;,{0x20, 0x40, 0x41, 0x3f, 0x01} // 4a J
                 ;,{0x7f, 0x08, 0x14, 0x22, 0x41} // 4b K
                 ;,{0x7f, 0x40, 0x40, 0x40, 0x40} // 4c L
                 ;,{0x7f, 0x02, 0x0c, 0x02, 0x7f} // 4d M
                 ;,{0x7f, 0x04, 0x08, 0x10, 0x7f} // 4e N
                 ;,{0x3e, 0x41, 0x41, 0x41, 0x3e} // 4f O
                 ;,{0x7f, 0x09, 0x09, 0x09, 0x06} // 50 P
                 ;,{0x3e, 0x41, 0x51, 0x21, 0x5e} // 51 Q
                 ;,{0x7f, 0x09, 0x19, 0x29, 0x46} // 52 R
                 ;,{0x46, 0x49, 0x49, 0x49, 0x31} // 53 S
                 ;,{0x01, 0x01, 0x7f, 0x01, 0x01} // 54 T
                 ;,{0x3f, 0x40, 0x40, 0x40, 0x3f} // 55 U
                 ;,{0x1f, 0x20, 0x40, 0x20, 0x1f} // 56 V
                 ;,{0x3f, 0x40, 0x38, 0x40, 0x3f} // 57 W
                 ;,{0x63, 0x14, 0x08, 0x14, 0x63} // 58 X
                 ;,{0x07, 0x08, 0x70, 0x08, 0x07} // 59 Y
                 ;,{0x61, 0x51, 0x49, 0x45, 0x43} // 5a Z
                 ;,{0x00, 0x7f, 0x41, 0x41, 0x00} // 5b [
                 ;,{0x02, 0x04, 0x08, 0x10, 0x20} // 5c 
                 ;,{0x00, 0x41, 0x41, 0x7f, 0x00} // 5d ]
                 ;,{0x04, 0x02, 0x01, 0x02, 0x04} // 5e ^
                 ;,{0x40, 0x40, 0x40, 0x40, 0x40} // 5f _
                 ;,{0x00, 0x01, 0x02, 0x04, 0x00} // 60 `
                 ;,{0x20, 0x54, 0x54, 0x54, 0x78} // 61 a
                 ;,{0x7f, 0x48, 0x44, 0x44, 0x38} // 62 b
                 ;,{0x38, 0x44, 0x44, 0x44, 0x20} // 63 c
                 ;,{0x38, 0x44, 0x44, 0x48, 0x7f} // 64 d
                 ;,{0x38, 0x54, 0x54, 0x54, 0x18} // 65 e
                 ;,{0x08, 0x7e, 0x09, 0x01, 0x02} // 66 f
                 ;,{0x0c, 0x52, 0x52, 0x52, 0x3e} // 67 g
                 ;,{0x7f, 0x08, 0x04, 0x04, 0x78} // 68 h
                 ;,{0x00, 0x44, 0x7d, 0x40, 0x00} // 69 i
                 ;,{0x20, 0x40, 0x44, 0x3d, 0x00} // 6a j
                 ;,{0x7f, 0x10, 0x28, 0x44, 0x00} // 6b k
                 ;,{0x00, 0x41, 0x7f, 0x40, 0x00} // 6c l
                 ;,{0x7c, 0x04, 0x18, 0x04, 0x78} // 6d m
                 ;,{0x7c, 0x08, 0x04, 0x04, 0x78} // 6e n
                 ;,{0x38, 0x44, 0x44, 0x44, 0x38} // 6f o
                 ;,{0x7c, 0x14, 0x14, 0x14, 0x08} // 70 p
                 ;,{0x08, 0x14, 0x14, 0x18, 0x7c} // 71 q
                 ;,{0x7c, 0x08, 0x04, 0x04, 0x08} // 72 r
                 ;,{0x48, 0x54, 0x54, 0x54, 0x20} // 73 s
                 ;,{0x04, 0x3f, 0x44, 0x40, 0x20} // 74 t
                 ;,{0x3c, 0x40, 0x40, 0x20, 0x7c} // 75 u
                 ;,{0x1c, 0x20, 0x40, 0x20, 0x1c} // 76 v
                 ;,{0x3c, 0x40, 0x30, 0x40, 0x3c} // 77 w
                 ;,{0x44, 0x28, 0x10, 0x28, 0x44} // 78 x
                 ;,{0x0c, 0x50, 0x50, 0x50, 0x3c} // 79 y
                 ;,{0x44, 0x64, 0x54, 0x4c, 0x44} // 7a z
                 ;,{0x00, 0x08, 0x36, 0x41, 0x00} // 7b {
                 ;,{0x00, 0x00, 0x7f, 0x00, 0x00} // 7c |
                 ;,{0x00, 0x41, 0x36, 0x08, 0x00} // 7d }
                 ;,{0x10, 0x08, 0x08, 0x10, 0x08} // 7e ?
                 ;,{0x78, 0x46, 0x41, 0x46, 0x78} // 7f ?
                 ;};
                 ;
                 ;/* LED FUNCTIONS */
                 ;void LEDLtoggle()
                 ; 0001 011F {
                 
                 	.CSEG
                 _LEDLtoggle:
                 ; 0001 0120     if(LEDL==0){LEDL=1;}else{LEDL=0;}
00036a 99ac      	SBIC 0x15,4
00036b c002      	RJMP _0x20009
00036c 9aac      	SBI  0x15,4
00036d c001      	RJMP _0x2000C
                 _0x20009:
00036e 98ac      	CBI  0x15,4
                 _0x2000C:
                 ; 0001 0121 }
00036f 9508      	RET
                 ;
                 ;void LEDRtoggle()
                 ; 0001 0124 {
                 _LEDRtoggle:
                 ; 0001 0125     if(LEDR==0){LEDR=1;}else{LEDR=0;}
000370 99ad      	SBIC 0x15,5
000371 c002      	RJMP _0x2000F
000372 9aad      	SBI  0x15,5
000373 c001      	RJMP _0x20012
                 _0x2000F:
000374 98ad      	CBI  0x15,5
                 _0x20012:
                 ; 0001 0126 }
000375 9508      	RET
                 ;
                 ;/* SPI */
                 ;void spitx(unsigned char temtx)
                 ; 0001 012A {
                 _spitx:
                 ; 0001 012B // unsigned char transpi;
                 ; 0001 012C     SPDR = temtx;
                 ;	temtx -> Y+0
000376 81e8      	LD   R30,Y
000377 b9ef      	OUT  0xF,R30
                 ; 0001 012D     while (!(SPSR & 0x80));
                 _0x20015:
000378 9b77      	SBIS 0xE,7
000379 cffe      	RJMP _0x20015
                 ; 0001 012E }
00037a c1b7      	RJMP _0x20C000D
                 ;
                 ;/* LCD FUNCTIONS */
                 ;void LcdWrite(unsigned char dc, unsigned char data)
                 ; 0001 0132 {
                 _LcdWrite:
                 ; 0001 0133     DC = dc;
                 ;	dc -> Y+1
                 ;	data -> Y+0
00037b 81e9      	LDD  R30,Y+1
00037c 30e0      	CPI  R30,0
00037d f411      	BRNE _0x20018
00037e 98c2      	CBI  0x18,2
00037f c001      	RJMP _0x20019
                 _0x20018:
000380 9ac2      	SBI  0x18,2
                 _0x20019:
                 ; 0001 0134     SCE=1;
000381 9ac1      	SBI  0x18,1
                 ; 0001 0135     SCE=0;
000382 98c1      	CBI  0x18,1
                 ; 0001 0136     spitx(data);
000383 81e8      	LD   R30,Y
000384 93ea      	ST   -Y,R30
000385 dff0      	RCALL _spitx
                 ; 0001 0137     SCE=1;
000386 9ac1      	SBI  0x18,1
                 ; 0001 0138 }
000387 c0b1      	RJMP _0x20C000E
                 ;//This takes a large array of bits and sends them to the LCD
                 ;void LcdBitmap(char my_array[]){
                 ; 0001 013A void LcdBitmap(char my_array[]){
                 ; 0001 013B     int index = 0;
                 ; 0001 013C     for (index = 0 ; index < (LCD_X * LCD_Y / 8) ; index++)
                 ;	my_array -> Y+2
                 ;	index -> R16,R17
                 ; 0001 013D         LcdWrite(LCD_D, my_array[index]);
                 ; 0001 013E }
                 ;
                 ;void hc(int x, int y) {
                 ; 0001 0140 void hc(int x, int y) {
                 _hc:
                 ; 0001 0141     LcdWrite(0, 0x40 | x);  // Row.  ?
                 ;	x -> Y+2
                 ;	y -> Y+0
000388 e0e0      	LDI  R30,LOW(0)
000389 93ea      	ST   -Y,R30
00038a 81eb      	LDD  R30,Y+3
00038b 64e0      	ORI  R30,0x40
00038c 940e 1867 	CALL SUBOPT_0x2
                 ; 0001 0142     LcdWrite(0, 0x80 | y);  // Column.
00038e 81e9      	LDD  R30,Y+1
00038f 68e0      	ORI  R30,0x80
000390 93ea      	ST   -Y,R30
000391 dfe9      	RCALL _LcdWrite
                 ; 0001 0143 }
000392 c2c5      	RJMP _0x20C000A
                 ;
                 ;void LcdCharacter(unsigned char character)
                 ; 0001 0146 {
                 _LcdCharacter:
                 ; 0001 0147     int index = 0;
                 ; 0001 0148     LcdWrite(LCD_D, 0x00);
000393 940e 186d 	CALL SUBOPT_0x3
                 ;	character -> Y+2
                 ;	index -> R16,R17
                 ; 0001 0149     for (index = 0; index < 5; index++)
                 _0x20024:
                +
000395 3005     +CPI R16 , LOW ( 5 )
000396 e0e0     +LDI R30 , HIGH ( 5 )
000397 071e     +CPC R17 , R30
                 	__CPWRN 16,17,5
000398 f42c      	BRGE _0x20025
                 ; 0001 014A     {
                 ; 0001 014B         LcdWrite(LCD_D, ASCII[character - 0x20][index]);
000399 940e 187a 	CALL SUBOPT_0x4
                 ; 0001 014C     }
                +
00039b 5f0f     +SUBI R16 , LOW ( - 1 )
00039c 4f1f     +SBCI R17 , HIGH ( - 1 )
                 	__ADDWRN 16,17,1
00039d cff7      	RJMP _0x20024
                 _0x20025:
                 ; 0001 014D     LcdWrite(LCD_D, 0x00);
00039e c00b      	RJMP _0x20C0010
                 ; 0001 014E }
                 ;
                 ;void wc(unsigned char character)
                 ; 0001 0151 {
                 _wc:
                 ; 0001 0152     int index = 0;
                 ; 0001 0153     LcdWrite(LCD_D, 0x00);
00039f 940e 186d 	CALL SUBOPT_0x3
                 ;	character -> Y+2
                 ;	index -> R16,R17
                 ; 0001 0154     for (index = 0; index < 5; index++)
                 _0x20027:
                +
0003a1 3005     +CPI R16 , LOW ( 5 )
0003a2 e0e0     +LDI R30 , HIGH ( 5 )
0003a3 071e     +CPC R17 , R30
                 	__CPWRN 16,17,5
0003a4 f42c      	BRGE _0x20028
                 ; 0001 0155     {
                 ; 0001 0156         LcdWrite(LCD_D, ASCII[character - 0x20][index]);
0003a5 940e 187a 	CALL SUBOPT_0x4
                 ; 0001 0157     }
                +
0003a7 5f0f     +SUBI R16 , LOW ( - 1 )
0003a8 4f1f     +SBCI R17 , HIGH ( - 1 )
                 	__ADDWRN 16,17,1
0003a9 cff7      	RJMP _0x20027
                 _0x20028:
                 ; 0001 0158     LcdWrite(LCD_D, 0x00);
                 _0x20C0010:
0003aa e0e1      	LDI  R30,LOW(1)
0003ab 940e 188b 	CALL SUBOPT_0x5
                 ; 0001 0159 }
0003ad 8119      	LDD  R17,Y+1
0003ae 8108      	LDD  R16,Y+0
                 _0x20C0011:
0003af 9623      	ADIW R28,3
0003b0 9508      	RET
                 ;
                 ;void ws(unsigned char *characters)
                 ; 0001 015C {
                 _ws:
                 ; 0001 015D     while (*characters)
                 ;	*characters -> Y+0
                 _0x20029:
0003b1 81a8      	LD   R26,Y
0003b2 81b9      	LDD  R27,Y+1
0003b3 91ec      	LD   R30,X
0003b4 30e0      	CPI  R30,0
0003b5 f031      	BREQ _0x2002B
                 ; 0001 015E     {
                 ; 0001 015F         LcdCharacter(*characters++);
0003b6 91ed      	LD   R30,X+
0003b7 83a8      	ST   Y,R26
0003b8 83b9      	STD  Y+1,R27
0003b9 93ea      	ST   -Y,R30
0003ba dfd8      	RCALL _LcdCharacter
                 ; 0001 0160     }
0003bb cff5      	RJMP _0x20029
                 _0x2002B:
                 ; 0001 0161 }
0003bc c07c      	RJMP _0x20C000E
                 ;
                 ;void LcdClear(void)
                 ; 0001 0164 {
                 _LcdClear:
                 ; 0001 0165     int index=0;
                 ; 0001 0166     for (index = 0; index < LCD_X * LCD_Y / 8; index++)
0003bd 940e 1890 	CALL SUBOPT_0x6
                 ;	index -> R16,R17
                 _0x2002D:
                +
0003bf 3f08     +CPI R16 , LOW ( 504 )
0003c0 e0e1     +LDI R30 , HIGH ( 504 )
0003c1 071e     +CPC R17 , R30
                 	__CPWRN 16,17,504
0003c2 f434      	BRGE _0x2002E
                 ; 0001 0167     {
                 ; 0001 0168         LcdWrite(LCD_D, 0);
0003c3 e0e1      	LDI  R30,LOW(1)
0003c4 940e 188b 	CALL SUBOPT_0x5
                 ; 0001 0169     }
                +
0003c6 5f0f     +SUBI R16 , LOW ( - 1 )
0003c7 4f1f     +SBCI R17 , HIGH ( - 1 )
                 	__ADDWRN 16,17,1
0003c8 cff6      	RJMP _0x2002D
                 _0x2002E:
                 ; 0001 016A     hc(0, 0); //After we clear the display, return to the home position
0003c9 c00c      	RJMP _0x20C000F
                 ; 0001 016B }
                 ;
                 ;void clear(void)
                 ; 0001 016E {
                 _clear:
                 ; 0001 016F     int index=0;
                 ; 0001 0170     for (index = 0; index < LCD_X * LCD_Y / 8; index++)
0003ca 940e 1890 	CALL SUBOPT_0x6
                 ;	index -> R16,R17
                 _0x20030:
                +
0003cc 3f08     +CPI R16 , LOW ( 504 )
0003cd e0e1     +LDI R30 , HIGH ( 504 )
0003ce 071e     +CPC R17 , R30
                 	__CPWRN 16,17,504
0003cf f434      	BRGE _0x20031
                 ; 0001 0171     {
                 ; 0001 0172         LcdWrite(LCD_D, 0);
0003d0 e0e1      	LDI  R30,LOW(1)
0003d1 940e 188b 	CALL SUBOPT_0x5
                 ; 0001 0173     }
                +
0003d3 5f0f     +SUBI R16 , LOW ( - 1 )
0003d4 4f1f     +SBCI R17 , HIGH ( - 1 )
                 	__ADDWRN 16,17,1
0003d5 cff6      	RJMP _0x20030
                 _0x20031:
                 ; 0001 0174     hc(0, 0); //After we clear the display, return to the home position
                 _0x20C000F:
0003d6 e0e0      	LDI  R30,LOW(0)
0003d7 e0f0      	LDI  R31,HIGH(0)
0003d8 940e 1897 	CALL SUBOPT_0x7
                 ; 0001 0175 }
0003da 9109      	LD   R16,Y+
0003db 9119      	LD   R17,Y+
0003dc 9508      	RET
                 ;
                 ;void wn164(unsigned int so)
                 ; 0001 0178 {
                 _wn164:
                 ; 0001 0179     unsigned char a[5],i;
                 ; 0001 017A     for(i=0;i<5;i++)
0003dd 9725      	SBIW R28,5
0003de 931a      	ST   -Y,R17
                 ;	so -> Y+6
                 ;	a -> Y+1
                 ;	i -> R17
0003df e010      	LDI  R17,LOW(0)
                 _0x20033:
0003e0 3015      	CPI  R17,5
0003e1 f430      	BRSH _0x20034
                 ; 0001 017B     {
                 ; 0001 017C         a[i]=so%10;        //a[0]= byte thap nhat
0003e2 940e 189f 	CALL SUBOPT_0x8
0003e4 940e 18a2 	CALL SUBOPT_0x9
                 ; 0001 017D         so=so/10;
                 ; 0001 017E     }
0003e6 5f1f      	SUBI R17,-1
0003e7 cff8      	RJMP _0x20033
                 _0x20034:
                 ; 0001 017F     for(i=1;i<5;i++)
0003e8 e011      	LDI  R17,LOW(1)
                 _0x20036:
0003e9 3015      	CPI  R17,5
0003ea f438      	BRSH _0x20037
                 ; 0001 0180         {wc(a[4-i]+0x30);}
0003eb 940e 189f 	CALL SUBOPT_0x8
0003ed 940e 18b8 	CALL SUBOPT_0xA
0003ef dfaf      	RCALL _wc
0003f0 5f1f      	SUBI R17,-1
0003f1 cff7      	RJMP _0x20036
                 _0x20037:
                 ; 0001 0181 }
0003f2 8118      	LDD  R17,Y+0
0003f3 c1a6      	RJMP _0x20C000B
                 ;
                 ;void LcdInitialise()
                 ; 0001 0184 {
                 _LcdInitialise:
                 ; 0001 0185     //reset
                 ; 0001 0186     RST=0;
0003f4 98c0      	CBI  0x18,0
                 ; 0001 0187     delay_us(10);
                +
0003f5 e18b     +LDI R24 , LOW ( 27 )
                +__DELAY_USB_LOOP :
0003f6 958a     +DEC R24
0003f7 f7f1     +BRNE __DELAY_USB_LOOP
                 	__DELAY_USB 27
                 ; 0001 0188     RST=1;
0003f8 9ac0      	SBI  0x18,0
                 ; 0001 0189 
                 ; 0001 018A     delay_ms(1000);
0003f9 940e 18c6 	CALL SUBOPT_0xB
                 ; 0001 018B     //khoi dong
                 ; 0001 018C     LcdWrite(LCD_C, 0x21 );  //Tell LCD that extended commands follow
0003fb e0e0      	LDI  R30,LOW(0)
0003fc 93ea      	ST   -Y,R30
0003fd e2e1      	LDI  R30,LOW(33)
0003fe 940e 1867 	CALL SUBOPT_0x2
                 ; 0001 018D     LcdWrite(LCD_C, 0xBF  );  //Set LCD Vop (Contrast): Try 0xB1(good @ 3.3V) or 0xBF = Dam nhat
000400 ebef      	LDI  R30,LOW(191)
000401 940e 1867 	CALL SUBOPT_0x2
                 ; 0001 018E     LcdWrite(LCD_C, 0x06 );  // Set Temp coefficent. //0x04
000403 e0e6      	LDI  R30,LOW(6)
000404 940e 1867 	CALL SUBOPT_0x2
                 ; 0001 018F     LcdWrite(LCD_C, 0x13 );  //LCD bias mode 1:48: Try 0x13 or 0x14
000406 e1e3      	LDI  R30,LOW(19)
000407 940e 1867 	CALL SUBOPT_0x2
                 ; 0001 0190     LcdWrite(LCD_C, 0x20 );  //We must send 0x20 before modifying the display control mode
000409 e2e0      	LDI  R30,LOW(32)
00040a 940e 1867 	CALL SUBOPT_0x2
                 ; 0001 0191     LcdWrite(LCD_C, 0x0C );  //Set display control, normal mode. 0x0D for inverse, 0x0C normal
00040c e0ec      	LDI  R30,LOW(12)
00040d 93ea      	ST   -Y,R30
00040e df6c      	RCALL _LcdWrite
                 ; 0001 0192 }
00040f 9508      	RET
                 ;// Hien thi so 16 bits
                 ;void wn16(unsigned int so)
                 ; 0001 0195 {
                 _wn16:
                 ; 0001 0196     unsigned char a[5],i;
                 ; 0001 0197     for(i=0;i<5;i++)
000410 9725      	SBIW R28,5
000411 931a      	ST   -Y,R17
                 ;	so -> Y+6
                 ;	a -> Y+1
                 ;	i -> R17
000412 e010      	LDI  R17,LOW(0)
                 _0x2003D:
000413 3015      	CPI  R17,5
000414 f430      	BRSH _0x2003E
                 ; 0001 0198     {
                 ; 0001 0199         a[i]=so%10;        //a[0]= byte thap nhat
000415 940e 189f 	CALL SUBOPT_0x8
000417 940e 18a2 	CALL SUBOPT_0x9
                 ; 0001 019A         so=so/10;
                 ; 0001 019B     }
000419 5f1f      	SUBI R17,-1
00041a cff8      	RJMP _0x2003D
                 _0x2003E:
                 ; 0001 019C     for(i=0;i<5;i++)
00041b e010      	LDI  R17,LOW(0)
                 _0x20040:
00041c 3015      	CPI  R17,5
00041d f438      	BRSH _0x20041
                 ; 0001 019D     {LcdCharacter(a[4-i]+0x30);}
00041e 940e 189f 	CALL SUBOPT_0x8
000420 940e 18b8 	CALL SUBOPT_0xA
000422 df70      	RCALL _LcdCharacter
000423 5f1f      	SUBI R17,-1
000424 cff7      	RJMP _0x20040
                 _0x20041:
                 ; 0001 019E }
000425 8118      	LDD  R17,Y+0
000426 c173      	RJMP _0x20C000B
                 ;// Hien thi so 16 bits co dau
                 ; void wn16s( int so)
                 ; 0001 01A1 {
                 _wn16s:
                 ; 0001 01A2     if(so<0){so=0-so; LcdCharacter('-');} else{ LcdCharacter(' ');}
                 ;	so -> Y+0
000427 81a9      	LDD  R26,Y+1
000428 23aa      	TST  R26
000429 f442      	BRPL _0x20042
00042a 81a8      	LD   R26,Y
00042b 81b9      	LDD  R27,Y+1
00042c e0e0      	LDI  R30,LOW(0)
00042d e0f0      	LDI  R31,HIGH(0)
00042e 940e 18cc 	CALL SUBOPT_0xC
000430 e2ed      	LDI  R30,LOW(45)
000431 c001      	RJMP _0x202CD
                 _0x20042:
000432 e2e0      	LDI  R30,LOW(32)
                 _0x202CD:
000433 93ea      	ST   -Y,R30
000434 df5e      	RCALL _LcdCharacter
                 ; 0001 01A3     wn16(so);
000435 81e8      	LD   R30,Y
000436 81f9      	LDD  R31,Y+1
000437 940e 18d1 	CALL SUBOPT_0xD
                 ; 0001 01A4 }
                 _0x20C000E:
000439 9622      	ADIW R28,2
00043a 9508      	RET
                 ;// hien thi so 32bit co dau
                 ; void wn32s( int so)
                 ; 0001 01A7 {
                 ; 0001 01A8     char tmp[20];
                 ; 0001 01A9     sprintf(tmp,"%d",so);
                 ;	so -> Y+20
                 ;	tmp -> Y+0
                 ; 0001 01AA     ws(tmp);
                 ; 0001 01AB }
                 ;// Hien thi so 32bit co dau
                 ; void wnf( float so)
                 ; 0001 01AE {
                 ; 0001 01AF     char tmp[30];
                 ; 0001 01B0     sprintf(tmp,"%0.2f",so);
                 ;	so -> Y+30
                 ;	tmp -> Y+0
                 ; 0001 01B1     ws(tmp);
                 ; 0001 01B2 }
                 ;// Hien thi so 32bit co dau
                 ; void wfmt(float so)
                 ; 0001 01B5 {
                 ; 0001 01B6     char tmp[30];
                 ; 0001 01B7     sprintf(tmp,"%0.2f",so);
                 ;	so -> Y+30
                 ;	tmp -> Y+0
                 ; 0001 01B8     ws(tmp);
                 ; 0001 01B9 }
                 ;/* SPI & LCD INIT */
                 ;void SPIinit()
                 ; 0001 01BC {
                 _SPIinit:
                 ; 0001 01BD     SPCR |=1<<SPE | 1<<MSTR;                                         //if spi is used, uncomment this section out
00043b b1ed      	IN   R30,0xD
00043c 65e0      	ORI  R30,LOW(0x50)
00043d b9ed      	OUT  0xD,R30
                 ; 0001 01BE     SPSR |=1<<SPI2X;
00043e 9a70      	SBI  0xE,0
                 ; 0001 01BF }
00043f 9508      	RET
                 ;void LCDinit()
                 ; 0001 01C1 {
                 _LCDinit:
                 ; 0001 01C2     LcdInitialise();
000440 dfb3      	RCALL _LcdInitialise
                 ; 0001 01C3     LcdClear();
000441 df7b      	RCALL _LcdClear
                 ; 0001 01C4     ws(" <AKBOTKIT>");
                +
000442 e6e0     +LDI R30 , LOW ( _0x20044 + ( 0 ) )
000443 e0f2     +LDI R31 , HIGH ( _0x20044 + ( 0 ) )
                 	__POINTW1MN _0x20044,0
000444 940e 18d5 	CALL SUBOPT_0xE
                 ; 0001 01C5 }
000446 9508      	RET
                 
                 	.DSEG
                 _0x20044:
000260           	.BYTE 0xC
                 ;
                 ;/* ADC */
                 ;#define ADC_VREF_TYPE 0x40
                 ;// Read the AD conversion result
                 ;unsigned int read_adc(unsigned char adc_input)
                 ; 0001 01CB {
                 
                 	.CSEG
                 _read_adc:
                 ; 0001 01CC     ADMUX=adc_input | (ADC_VREF_TYPE & 0xff);
                 ;	adc_input -> Y+0
000447 81e8      	LD   R30,Y
000448 64e0      	ORI  R30,0x40
000449 b9e7      	OUT  0x7,R30
                 ; 0001 01CD     // Delay needed for the stabilization of the ADC input voltage
                 ; 0001 01CE     delay_us(10);
                +
00044a e18b     +LDI R24 , LOW ( 27 )
                +__DELAY_USB_LOOP :
00044b 958a     +DEC R24
00044c f7f1     +BRNE __DELAY_USB_LOOP
                 	__DELAY_USB 27
                 ; 0001 01CF     // Start the AD conversion
                 ; 0001 01D0     ADCSRA|=0x40;
00044d 9a36      	SBI  0x6,6
                 ; 0001 01D1     // Wait for the AD conversion to complete
                 ; 0001 01D2     while ((ADCSRA & 0x10)==0);
                 _0x20045:
00044e 9b34      	SBIS 0x6,4
00044f cffe      	RJMP _0x20045
                 ; 0001 01D3     ADCSRA|=0x10;
000450 9a34      	SBI  0x6,4
                 ; 0001 01D4     return ADCW;
000451 b1e4      	IN   R30,0x4
000452 b1f5      	IN   R31,0x4+1
000453 c0de      	RJMP _0x20C000D
                 ; 0001 01D5 }
                 ;
                 ;/* UART BLUETOOTH */
                 ;#ifndef RXB8
                 ;#define RXB8 1
                 ;#endif
                 ;
                 ;#ifndef TXB8
                 ;#define TXB8 0
                 ;#endif
                 ;
                 ;#ifndef UPE
                 ;#define UPE 2
                 ;#endif
                 ;
                 ;#ifndef DOR
                 ;#define DOR 3
                 ;#endif
                 ;
                 ;#ifndef FE
                 ;#define FE 4
                 ;#endif
                 ;
                 ;#ifndef UDRE
                 ;#define UDRE 5
                 ;#endif
                 ;
                 ;#ifndef RXC
                 ;#define RXC 7
                 ;#endif
                 ;
                 ;#define FRAMING_ERROR (1<<FE)
                 ;#define PARITY_ERROR (1<<UPE)
                 ;#define DATA_OVERRUN (1<<DOR)
                 ;#define DATA_REGISTER_EMPTY (1<<UDRE)
                 ;#define RX_COMPLETE (1<<RXC)
                 ;
                 ;// USART Receiver buffer
                 ;#define RX_BUFFER_SIZE 8
                 ;char rx_buffer[RX_BUFFER_SIZE];
                 ;
                 ;#if RX_BUFFER_SIZE <= 256
                 ;unsigned char rx_wr_index,rx_rd_index,rx_counter;
                 ;#else
                 ;unsigned int rx_wr_index,rx_rd_index,rx_counter;
                 ;#endif
                 ;
                 ;// This flag is set on USART Receiver buffer overflow
                 ;bit rx_buffer_overflow;
                 ;
                 ;// USART Receiver interrupt service routine
                 ;interrupt [USART_RXC] void usart_rx_isr(void)
                 ; 0001 0209 {
                 _usart_rx_isr:
000454 93aa      	ST   -Y,R26
000455 93ea      	ST   -Y,R30
000456 93fa      	ST   -Y,R31
000457 b7ef      	IN   R30,SREG
000458 93ea      	ST   -Y,R30
                 ; 0001 020A     char status,data;
                 ; 0001 020B     status=UCSRA;
000459 931a      	ST   -Y,R17
00045a 930a      	ST   -Y,R16
                 ;	status -> R17
                 ;	data -> R16
00045b b11b      	IN   R17,11
                 ; 0001 020C     data=UDR;
00045c b10c      	IN   R16,12
                 ; 0001 020D     if ((status & (FRAMING_ERROR | PARITY_ERROR | DATA_OVERRUN))==0)
00045d 2fe1      	MOV  R30,R17
00045e 71ec      	ANDI R30,LOW(0x1C)
00045f f4d9      	BRNE _0x20048
                 ; 0001 020E     {
                 ; 0001 020F         rx_buffer[rx_wr_index++]=data;
000460 91e0 050a 	LDS  R30,_rx_wr_index
000462 5fef      	SUBI R30,-LOW(1)
000463 93e0 050a 	STS  _rx_wr_index,R30
000465 940e 18d9 	CALL SUBOPT_0xF
000467 8300      	ST   Z,R16
                 ; 0001 0210         #if RX_BUFFER_SIZE == 256
                 ; 0001 0211         // special case for receiver buffer size=256
                 ; 0001 0212         if (++rx_counter == 0) {
                 ; 0001 0213         #else
                 ; 0001 0214         if (rx_wr_index == RX_BUFFER_SIZE) rx_wr_index=0;
000468 91a0 050a 	LDS  R26,_rx_wr_index
00046a 30a8      	CPI  R26,LOW(0x8)
00046b f419      	BRNE _0x20049
00046c e0e0      	LDI  R30,LOW(0)
00046d 93e0 050a 	STS  _rx_wr_index,R30
                 ; 0001 0215         if (++rx_counter == RX_BUFFER_SIZE) {
                 _0x20049:
00046f 91a0 050c 	LDS  R26,_rx_counter
000471 5faf      	SUBI R26,-LOW(1)
000472 93a0 050c 	STS  _rx_counter,R26
000474 30a8      	CPI  R26,LOW(0x8)
000475 f429      	BRNE _0x2004A
                 ; 0001 0216             rx_counter=0;
000476 e0e0      	LDI  R30,LOW(0)
000477 93e0 050c 	STS  _rx_counter,R30
                 ; 0001 0217         #endif
                 ; 0001 0218             rx_buffer_overflow=1;
000479 9468      	SET
00047a f820      	BLD  R2,0
                 ; 0001 0219         }
                 ; 0001 021A     }
                 _0x2004A:
                 ; 0001 021B }
                 _0x20048:
00047b 9109      	LD   R16,Y+
00047c 9119      	LD   R17,Y+
00047d c03a      	RJMP _0x202E5
                 ;
                 ;#ifndef _DEBUG_TERMINAL_IO_
                 ;// Get a character from the USART Receiver buffer
                 ;#define _ALTERNATE_GETCHAR_
                 ;#pragma used+
                 ;char getchar(void)
                 ; 0001 0222 {
                 _getchar:
                 ; 0001 0223     char data;
                 ; 0001 0224     while (rx_counter==0);
00047e 931a      	ST   -Y,R17
                 ;	data -> R17
                 _0x2004B:
00047f 91e0 050c 	LDS  R30,_rx_counter
000481 30e0      	CPI  R30,0
000482 f3e1      	BREQ _0x2004B
                 ; 0001 0225     data=rx_buffer[rx_rd_index++];
000483 91e0 050b 	LDS  R30,_rx_rd_index
000485 5fef      	SUBI R30,-LOW(1)
000486 93e0 050b 	STS  _rx_rd_index,R30
000488 940e 18d9 	CALL SUBOPT_0xF
00048a 8110      	LD   R17,Z
                 ; 0001 0226     #if RX_BUFFER_SIZE != 256
                 ; 0001 0227     if (rx_rd_index == RX_BUFFER_SIZE) rx_rd_index=0;
00048b 91a0 050b 	LDS  R26,_rx_rd_index
00048d 30a8      	CPI  R26,LOW(0x8)
00048e f419      	BRNE _0x2004E
00048f e0e0      	LDI  R30,LOW(0)
000490 93e0 050b 	STS  _rx_rd_index,R30
                 ; 0001 0228     #endif
                 ; 0001 0229     #asm("cli")
                 _0x2004E:
000492 94f8      	cli
                 ; 0001 022A     --rx_counter;
000493 91e0 050c 	LDS  R30,_rx_counter
000495 50e1      	SUBI R30,LOW(1)
000496 93e0 050c 	STS  _rx_counter,R30
                 ; 0001 022B     #asm("sei")
000498 9478      	sei
                 ; 0001 022C     return data;
000499 2fe1      	MOV  R30,R17
00049a 9119      	LD   R17,Y+
00049b 9508      	RET
                 ; 0001 022D }
                 ;#pragma used-
                 ;#endif
                 ;
                 ;// USART Transmitter buffer
                 ;#define TX_BUFFER_SIZE 8
                 ;char tx_buffer[TX_BUFFER_SIZE];
                 ;
                 ;#if TX_BUFFER_SIZE <= 256
                 ;unsigned char tx_wr_index,tx_rd_index,tx_counter;
                 ;#else
                 ;unsigned int tx_wr_index,tx_rd_index,tx_counter;
                 ;#endif
                 ;
                 ;// USART Transmitter interrupt service routine
                 ;interrupt [USART_TXC] void usart_tx_isr(void)
                 ; 0001 023D {
                 _usart_tx_isr:
00049c 93aa      	ST   -Y,R26
00049d 93ea      	ST   -Y,R30
00049e 93fa      	ST   -Y,R31
00049f b7ef      	IN   R30,SREG
0004a0 93ea      	ST   -Y,R30
                 ; 0001 023E     if (tx_counter)
0004a1 91e0 0517 	LDS  R30,_tx_counter
0004a3 30e0      	CPI  R30,0
0004a4 f099      	BREQ _0x2004F
                 ; 0001 023F        {
                 ; 0001 0240        --tx_counter;
0004a5 50e1      	SUBI R30,LOW(1)
0004a6 93e0 0517 	STS  _tx_counter,R30
                 ; 0001 0241        UDR=tx_buffer[tx_rd_index++];
0004a8 91e0 0516 	LDS  R30,_tx_rd_index
0004aa 5fef      	SUBI R30,-LOW(1)
0004ab 93e0 0516 	STS  _tx_rd_index,R30
0004ad 940e 18de 	CALL SUBOPT_0x10
0004af 81e0      	LD   R30,Z
0004b0 b9ec      	OUT  0xC,R30
                 ; 0001 0242     #if TX_BUFFER_SIZE != 256
                 ; 0001 0243        if (tx_rd_index == TX_BUFFER_SIZE) tx_rd_index=0;
0004b1 91a0 0516 	LDS  R26,_tx_rd_index
0004b3 30a8      	CPI  R26,LOW(0x8)
0004b4 f419      	BRNE _0x20050
0004b5 e0e0      	LDI  R30,LOW(0)
0004b6 93e0 0516 	STS  _tx_rd_index,R30
                 ; 0001 0244     #endif
                 ; 0001 0245        }
                 _0x20050:
                 ; 0001 0246 }
                 _0x2004F:
                 _0x202E5:
0004b8 91e9      	LD   R30,Y+
0004b9 bfef      	OUT  SREG,R30
0004ba 91f9      	LD   R31,Y+
0004bb 91e9      	LD   R30,Y+
0004bc 91a9      	LD   R26,Y+
0004bd 9518      	RETI
                 ;
                 ;#ifndef _DEBUG_TERMINAL_IO_
                 ;// Write a character to the USART Transmitter buffer
                 ;#define _ALTERNATE_PUTCHAR_
                 ;#pragma used+
                 ;void putchar(char c)
                 ; 0001 024D {
                 _putchar:
                 ; 0001 024E     while (tx_counter == TX_BUFFER_SIZE);
                 ;	c -> Y+0
                 _0x20051:
0004be 91a0 0517 	LDS  R26,_tx_counter
0004c0 30a8      	CPI  R26,LOW(0x8)
0004c1 f3e1      	BREQ _0x20051
                 ; 0001 024F     #asm("cli")
0004c2 94f8      	cli
                 ; 0001 0250     if (tx_counter || ((UCSRA & DATA_REGISTER_EMPTY)==0))
0004c3 91e0 0517 	LDS  R30,_tx_counter
0004c5 30e0      	CPI  R30,0
0004c6 f411      	BRNE _0x20055
0004c7 995d      	SBIC 0xB,5
0004c8 c016      	RJMP _0x20054
                 _0x20055:
                 ; 0001 0251        {
                 ; 0001 0252        tx_buffer[tx_wr_index++]=c;
0004c9 91e0 0515 	LDS  R30,_tx_wr_index
0004cb 5fef      	SUBI R30,-LOW(1)
0004cc 93e0 0515 	STS  _tx_wr_index,R30
0004ce 940e 18de 	CALL SUBOPT_0x10
0004d0 81a8      	LD   R26,Y
0004d1 83a0      	STD  Z+0,R26
                 ; 0001 0253     #if TX_BUFFER_SIZE != 256
                 ; 0001 0254        if (tx_wr_index == TX_BUFFER_SIZE) tx_wr_index=0;
0004d2 91a0 0515 	LDS  R26,_tx_wr_index
0004d4 30a8      	CPI  R26,LOW(0x8)
0004d5 f419      	BRNE _0x20057
0004d6 e0e0      	LDI  R30,LOW(0)
0004d7 93e0 0515 	STS  _tx_wr_index,R30
                 ; 0001 0255     #endif
                 ; 0001 0256        ++tx_counter;
                 _0x20057:
0004d9 91e0 0517 	LDS  R30,_tx_counter
0004db 5fef      	SUBI R30,-LOW(1)
0004dc 93e0 0517 	STS  _tx_counter,R30
                 ; 0001 0257        }
                 ; 0001 0258     else
0004de c002      	RJMP _0x20058
                 _0x20054:
                 ; 0001 0259        UDR=c;
0004df 81e8      	LD   R30,Y
0004e0 b9ec      	OUT  0xC,R30
                 ; 0001 025A     #asm("sei")
                 _0x20058:
0004e1 9478      	sei
                 ; 0001 025B }
0004e2 c04f      	RJMP _0x20C000D
                 ;#pragma used-
                 ;#endif
                 ;void inituart()
                 ; 0001 025F {
                 _inituart:
                 ; 0001 0260     // USART initialization
                 ; 0001 0261     // Communication Parameters: 8 Data, 1 Stop, No Parity
                 ; 0001 0262     // USART Receiver: On
                 ; 0001 0263     // USART Transmitter: On
                 ; 0001 0264     // USART Mode: Asynchronous
                 ; 0001 0265     // USART Baud Rate: 38400
                 ; 0001 0266     UCSRA=0x00;
0004e3 e0e0      	LDI  R30,LOW(0)
0004e4 b9eb      	OUT  0xB,R30
                 ; 0001 0267     UCSRB=0xD8;
0004e5 ede8      	LDI  R30,LOW(216)
0004e6 b9ea      	OUT  0xA,R30
                 ; 0001 0268     UCSRC=0x06;
0004e7 e0e6      	LDI  R30,LOW(6)
0004e8 bde0      	OUT  0x20,R30
                 ; 0001 0269     UBRRH=0x00;
0004e9 e0e0      	LDI  R30,LOW(0)
0004ea bde0      	OUT  0x20,R30
                 ; 0001 026A     UBRRL=0x0C;
0004eb e0ec      	LDI  R30,LOW(12)
0004ec b9e9      	OUT  0x9,R30
                 ; 0001 026B }
0004ed 9508      	RET
                 ;
                 ;//========================================================
                 ;// External Interrupt 0 service routine
                 ;interrupt [EXT_INT0] void ext_int0_isr(void)
                 ; 0001 0270 {
                 _ext_int0_isr:
0004ee 940e 18e3 	CALL SUBOPT_0x11
                 ; 0001 0271      QEL++;
0004f0 efae      	LDI  R26,LOW(_QEL)
0004f1 e0b4      	LDI  R27,HIGH(_QEL)
0004f2 c004      	RJMP _0x202E4
                 ; 0001 0272 }
                 ;
                 ;// External Interrupt 1 service routine
                 ;interrupt [EXT_INT1] void ext_int1_isr(void)
                 ; 0001 0276 {
                 _ext_int1_isr:
0004f3 940e 18e3 	CALL SUBOPT_0x11
                 ; 0001 0277     QER++;
0004f5 e0a0      	LDI  R26,LOW(_QER)
0004f6 e0b5      	LDI  R27,HIGH(_QER)
                 _0x202E4:
0004f7 91ed      	LD   R30,X+
0004f8 91fd      	LD   R31,X+
0004f9 9631      	ADIW R30,1
0004fa 93fe      	ST   -X,R31
0004fb 93ee      	ST   -X,R30
                 ; 0001 0278 }
0004fc 91e9      	LD   R30,Y+
0004fd bfef      	OUT  SREG,R30
0004fe 91f9      	LD   R31,Y+
0004ff 91e9      	LD   R30,Y+
000500 91b9      	LD   R27,Y+
000501 91a9      	LD   R26,Y+
000502 9518      	RETI
                 ;//========================================================
                 ;//khoi tao encoder
                 ;void initencoder()
                 ; 0001 027C {
                 _initencoder:
                 ; 0001 027D     // Dem 24 xung / 1 vong banh xe
                 ; 0001 027E     // External Interrupt(s) initialization
                 ; 0001 027F     // INT0: On
                 ; 0001 0280     // INT0 Mode: Any change
                 ; 0001 0281     // INT1: On
                 ; 0001 0282     // INT1 Mode: Any change
                 ; 0001 0283     // INT2: Off
                 ; 0001 0284     GICR|=0xC0;
000503 b7eb      	IN   R30,0x3B
000504 6ce0      	ORI  R30,LOW(0xC0)
000505 bfeb      	OUT  0x3B,R30
                 ; 0001 0285     MCUCR=0x05;
000506 e0e5      	LDI  R30,LOW(5)
000507 bfe5      	OUT  0x35,R30
                 ; 0001 0286     MCUCSR=0x00;
000508 e0e0      	LDI  R30,LOW(0)
000509 bfe4      	OUT  0x34,R30
                 ; 0001 0287     GIFR=0xC0;
00050a ece0      	LDI  R30,LOW(192)
00050b bfea      	OUT  0x3A,R30
                 ; 0001 0288     // Global enable interrupts
                 ; 0001 0289 
                 ; 0001 028A     //OCR1A=0-255; MOTOR LEFT
                 ; 0001 028B     //OCR1B=0-255; MOTOR RIGHT
                 ; 0001 028C }
00050c 9508      	RET
                 ;
                 ;//========================================================
                 ;//control velocity motor
                 ;void vMLtoi(unsigned char v) //congsuat=0-22 (%)
                 ; 0001 0291 {
                 _vMLtoi:
                 ; 0001 0292     seRki=0;//reset thanh phan I
                 ;	v -> Y+0
00050d 940e 18ea 	CALL SUBOPT_0x12
                 ; 0001 0293     seLki=0;//reset thanh phan I
                 ; 0001 0294     //uRold=0;
                 ; 0001 0295     MLdir = 1;
00050f 9aae      	SBI  0x15,6
                 ; 0001 0296     svQEL = v;
000510 940e 18f4 	CALL SUBOPT_0x13
                 ; 0001 0297 }
000512 c01f      	RJMP _0x20C000D
                 ;//========================================================
                 ;void vMLlui(unsigned char v) //congsuat=0-22 (%)
                 ; 0001 029A {
                 _vMLlui:
                 ; 0001 029B     seRki=0;//reset thanh phan I
                 ;	v -> Y+0
000513 940e 18ea 	CALL SUBOPT_0x12
                 ; 0001 029C     seLki=0;//reset thanh phan I
                 ; 0001 029D 
                 ; 0001 029E     //uRold=0;
                 ; 0001 029F     MLdir = 0;
000515 98ae      	CBI  0x15,6
                 ; 0001 02A0     svQEL = v;
000516 940e 18f4 	CALL SUBOPT_0x13
                 ; 0001 02A1 }
000518 c019      	RJMP _0x20C000D
                 ;//========================================================
                 ;void vMLstop()
                 ; 0001 02A4 {
                 _vMLstop:
                 ; 0001 02A5     seRki=0;//reset thanh phan I
000519 940e 18ea 	CALL SUBOPT_0x12
                 ; 0001 02A6     seLki=0;//reset thanh phan I
                 ; 0001 02A7     MLdir = 1;
00051b 9aae      	SBI  0x15,6
                 ; 0001 02A8     OCR1A = 0;
00051c e0e0      	LDI  R30,LOW(0)
00051d e0f0      	LDI  R31,HIGH(0)
00051e bdfb      	OUT  0x2A+1,R31
00051f bdea      	OUT  0x2A,R30
                 ; 0001 02A9     svQEL = 0;
000520 93e0 04d8 	STS  _svQEL,R30
000522 93e0 04d9 	STS  _svQEL+1,R30
                 ; 0001 02AA }
000524 9508      	RET
                 ;//========================================================
                 ;//========================================================
                 ;void vMRtoi(unsigned char v) //congsuat=0-22 (%)
                 ; 0001 02AE {
                 _vMRtoi:
                 ; 0001 02AF     seRki=0;//reset thanh phan I
                 ;	v -> Y+0
000525 940e 18ea 	CALL SUBOPT_0x12
                 ; 0001 02B0     seLki=0;//reset thanh phan I
                 ; 0001 02B1     MRdir = 1;
000527 9aaf      	SBI  0x15,7
                 ; 0001 02B2     svQER = v;
000528 c003      	RJMP _0x20C000C
                 ; 0001 02B3 }
                 ;//========================================================
                 ;void vMRlui(unsigned char v) //congsuat=0-22 (%)
                 ; 0001 02B6 {
                 _vMRlui:
                 ; 0001 02B7     seRki=0;//reset thanh phan I
                 ;	v -> Y+0
000529 940e 18ea 	CALL SUBOPT_0x12
                 ; 0001 02B8     seLki=0;//reset thanh phan I
                 ; 0001 02B9     MRdir = 0;
00052b 98af      	CBI  0x15,7
                 ; 0001 02BA     svQER = v;
                 _0x20C000C:
00052c 81e8      	LD   R30,Y
00052d e0f0      	LDI  R31,0
00052e 93e0 04da 	STS  _svQER,R30
000530 93f0 04db 	STS  _svQER+1,R31
                 ; 0001 02BB }
                 _0x20C000D:
000532 9621      	ADIW R28,1
000533 9508      	RET
                 ;//========================================================
                 ;void vMRstop()
                 ; 0001 02BE {
                 _vMRstop:
                 ; 0001 02BF     seRki=0;//reset thanh phan I
000534 940e 18ea 	CALL SUBOPT_0x12
                 ; 0001 02C0     seLki=0;//reset thanh phan I
                 ; 0001 02C1     MRdir = 1;
000536 9aaf      	SBI  0x15,7
                 ; 0001 02C2     OCR1B = 0;
000537 e0e0      	LDI  R30,LOW(0)
000538 e0f0      	LDI  R31,HIGH(0)
000539 bdf9      	OUT  0x28+1,R31
00053a bde8      	OUT  0x28,R30
                 ; 0001 02C3     svQER=0;
00053b 93e0 04da 	STS  _svQER,R30
00053d 93e0 04db 	STS  _svQER+1,R30
                 ; 0001 02C4 }
00053f 9508      	RET
                 ;//========================================================
                 ;// ham dieu khien vi tri
                 ;void ctrRobottoi(unsigned int d,unsigned int v)  //v:0-22
                 ; 0001 02C8 {
                 _ctrRobottoi:
                 ; 0001 02C9      flagwaitctrAngle=0;
                 ;	d -> Y+2
                 ;	v -> Y+0
000540 940e 18fb 	CALL SUBOPT_0x14
                 ; 0001 02CA      flagwaitctrRobot=1;
                 ; 0001 02CB      sd=d;// set gia tri khoang cach di chuyen
                 ; 0001 02CC      oldd = (QEL+QER)/2; // luu gia tri vi tri hien tai
                 ; 0001 02CD      vMRtoi(v);
000542 dfe2      	RCALL _vMRtoi
                 ; 0001 02CE      vMLtoi(v);
000543 81e8      	LD   R30,Y
000544 93ea      	ST   -Y,R30
000545 dfc7      	RCALL _vMLtoi
                 ; 0001 02CF }
000546 c111      	RJMP _0x20C000A
                 ;// ham dieu khien vi tri
                 ;void ctrRobotlui(unsigned int d,unsigned int v)  //v:0-22
                 ; 0001 02D2 {
                 _ctrRobotlui:
                 ; 0001 02D3      flagwaitctrAngle=0;
                 ;	d -> Y+2
                 ;	v -> Y+0
000547 940e 18fb 	CALL SUBOPT_0x14
                 ; 0001 02D4      flagwaitctrRobot=1;
                 ; 0001 02D5      sd=d;// set gia tri khoang cach di chuyen
                 ; 0001 02D6      oldd = (QEL+QER)/2; // luu gia tri vi tri hien tai
                 ; 0001 02D7      vMRlui(v);
000549 dfdf      	RCALL _vMRlui
                 ; 0001 02D8      vMLlui(v);
00054a 81e8      	LD   R30,Y
00054b 93ea      	ST   -Y,R30
00054c dfc6      	RCALL _vMLlui
                 ; 0001 02D9 }
00054d c10a      	RJMP _0x20C000A
                 ;// ham dieu khien goc quay
                 ;void ctrRobotXoay(int angle,unsigned int v)  //v:0-22
                 ; 0001 02DC {
                 _ctrRobotXoay:
                 ; 0001 02DD      float fangle=0;
                 ; 0001 02DE      flagwaitctrRobot=0;
00054e 940e 191b 	CALL SUBOPT_0x15
                 ;	angle -> Y+6
                 ;	v -> Y+4
                 ;	fangle -> Y+0
000550 e0e0      	LDI  R30,LOW(0)
000551 93e0 04f0 	STS  _flagwaitctrRobot,R30
                 ; 0001 02DF      if(angle>0)  { //xoay trai
000553 81ae      	LDD  R26,Y+6
000554 81bf      	LDD  R27,Y+6+1
000555 940e 2161 	CALL __CPW02
000557 f48c      	BRGE _0x20065
                 ; 0001 02E0         if(angle > 1) vMRtoi(v);
000558 9712      	SBIW R26,2
000559 f014      	BRLT _0x20066
00055a 81ec      	LDD  R30,Y+4
00055b c001      	RJMP _0x202CE
                 ; 0001 02E1         else vMRtoi(0);
                 _0x20066:
00055c e0e0      	LDI  R30,LOW(0)
                 _0x202CE:
00055d 93ea      	ST   -Y,R30
00055e dfc6      	RCALL _vMRtoi
                 ; 0001 02E2         if(angle > 1) vMLlui(v);
00055f 81ae      	LDD  R26,Y+6
000560 81bf      	LDD  R27,Y+6+1
000561 9712      	SBIW R26,2
000562 f014      	BRLT _0x20068
000563 81ec      	LDD  R30,Y+4
000564 c001      	RJMP _0x202CF
                 ; 0001 02E3         else vMLlui(0);
                 _0x20068:
000565 e0e0      	LDI  R30,LOW(0)
                 _0x202CF:
000566 93ea      	ST   -Y,R30
000567 dfab      	RCALL _vMLlui
                 ; 0001 02E4      } else  //xoay phai
000568 c018      	RJMP _0x2006A
                 _0x20065:
                 ; 0001 02E5      {
                 ; 0001 02E6         angle=-angle;
000569 81ee      	LDD  R30,Y+6
00056a 81ff      	LDD  R31,Y+6+1
00056b 940e 2062 	CALL __ANEGW1
00056d 83ee      	STD  Y+6,R30
00056e 83ff      	STD  Y+6+1,R31
                 ; 0001 02E7         if(angle > 1) vMRlui(v);
00056f 81ae      	LDD  R26,Y+6
000570 81bf      	LDD  R27,Y+6+1
000571 9712      	SBIW R26,2
000572 f014      	BRLT _0x2006B
000573 81ec      	LDD  R30,Y+4
000574 c001      	RJMP _0x202D0
                 ; 0001 02E8         else vMRlui(0);
                 _0x2006B:
000575 e0e0      	LDI  R30,LOW(0)
                 _0x202D0:
000576 93ea      	ST   -Y,R30
000577 dfb1      	RCALL _vMRlui
                 ; 0001 02E9         if(angle > 1) vMLtoi(v);
000578 81ae      	LDD  R26,Y+6
000579 81bf      	LDD  R27,Y+6+1
00057a 9712      	SBIW R26,2
00057b f014      	BRLT _0x2006D
00057c 81ec      	LDD  R30,Y+4
00057d c001      	RJMP _0x202D1
                 ; 0001 02EA         else vMLtoi(0);
                 _0x2006D:
00057e e0e0      	LDI  R30,LOW(0)
                 _0x202D1:
00057f 93ea      	ST   -Y,R30
000580 df8c      	RCALL _vMLtoi
                 ; 0001 02EB      }
                 _0x2006A:
                 ; 0001 02EC      flagwaitctrAngle=1;
000581 e0e1      	LDI  R30,LOW(1)
000582 93e0 04f5 	STS  _flagwaitctrAngle,R30
                 ; 0001 02ED      fangle=angle*0.35;// nhan chia so float
000584 81ee      	LDD  R30,Y+6
000585 81ff      	LDD  R31,Y+6+1
000586 940e 1922 	CALL SUBOPT_0x16
                +
000588 e3a3     +LDI R26 , LOW ( 0x3EB33333 )
000589 e3b3     +LDI R27 , HIGH ( 0x3EB33333 )
00058a eb83     +LDI R24 , BYTE3 ( 0x3EB33333 )
00058b e39e     +LDI R25 , BYTE4 ( 0x3EB33333 )
                 	__GETD2N 0x3EB33333
00058c 940e 1927 	CALL SUBOPT_0x17
                 ; 0001 02EE      sa=fangle;
00058e efa1      	LDI  R26,LOW(_sa)
00058f e0b4      	LDI  R27,HIGH(_sa)
000590 940e 1eac 	CALL __CFD1U
000592 93ed      	ST   X+,R30
000593 93fc      	ST   X,R31
                 ; 0001 02EF      olda = QEL; // luu gia tri vi tri hien tai
000594 940e 192c 	CALL SUBOPT_0x18
000596 93e0 04f3 	STS  _olda,R30
000598 93f0 04f4 	STS  _olda+1,R31
                 ; 0001 02F0 }
                 _0x20C000B:
00059a 9628      	ADIW R28,8
00059b 9508      	RET
                 ;
                 ;
                 ;//============Phat==============
                 ;IntRobot convertRobot2IntRobot(Robot robot)
                 ; 0001 02F5 {
                 _convertRobot2IntRobot:
                 ; 0001 02F6     IntRobot intRb;
                 ; 0001 02F7     intRb.id = (int)robot.id;
00059c 976c      	SBIW R28,28
                 ;	robot -> Y+28
                 ;	intRb -> Y+0
00059d 940e 1931 	CALL SUBOPT_0x19
00059f 940e 1eae 	CALL __CFD1
0005a1 83e8      	ST   Y,R30
0005a2 83f9      	STD  Y+1,R31
                 ; 0001 02F8     intRb.x = (int)robot.x;
0005a3 940e 1936 	CALL SUBOPT_0x1A
0005a5 940e 1eae 	CALL __CFD1
0005a7 83ea      	STD  Y+2,R30
0005a8 83fb      	STD  Y+2+1,R31
                 ; 0001 02F9     intRb.y = (int)robot.y;
0005a9 940e 193b 	CALL SUBOPT_0x1B
0005ab 940e 1eae 	CALL __CFD1
0005ad 83ec      	STD  Y+4,R30
0005ae 83fd      	STD  Y+4+1,R31
                 ; 0001 02FA     intRb.ox = (int)robot.ox;
                +
0005af a5e8     +LDD R30 , Y + 40
0005b0 a5f9     +LDD R31 , Y + 40 + 1
0005b1 a56a     +LDD R22 , Y + 40 + 2
0005b2 a57b     +LDD R23 , Y + 40 + 3
                 	__GETD1S 40
0005b3 940e 1eae 	CALL __CFD1
0005b5 83ee      	STD  Y+6,R30
0005b6 83ff      	STD  Y+6+1,R31
                 ; 0001 02FB     intRb.oy = (int)robot.oy;
0005b7 940e 1940 	CALL SUBOPT_0x1C
0005b9 940e 1eae 	CALL __CFD1
0005bb 87e8      	STD  Y+8,R30
0005bc 87f9      	STD  Y+8+1,R31
                 ; 0001 02FC     intRb.ball.x = (int)robot.ball.x;
                +
0005bd a9e8     +LDD R30 , Y + 48
0005be a9f9     +LDD R31 , Y + 48 + 1
0005bf a96a     +LDD R22 , Y + 48 + 2
0005c0 a97b     +LDD R23 , Y + 48 + 3
                 	__GETD1S 48
0005c1 940e 1eae 	CALL __CFD1
0005c3 87ea      	STD  Y+10,R30
0005c4 87fb      	STD  Y+10+1,R31
                 ; 0001 02FD     intRb.ball.y = (int)robot.ball.y;
                +
0005c5 a9ec     +LDD R30 , Y + 52
0005c6 a9fd     +LDD R31 , Y + 52 + 1
0005c7 a96e     +LDD R22 , Y + 52 + 2
0005c8 a97f     +LDD R23 , Y + 52 + 3
                 	__GETD1S 52
0005c9 940e 1eae 	CALL __CFD1
0005cb 87ec      	STD  Y+12,R30
0005cc 87fd      	STD  Y+12+1,R31
                 ; 0001 02FE     return intRb;
0005cd 01fe      	MOVW R30,R28
0005ce 01de      	MOVW R26,R28
0005cf 961e      	ADIW R26,14
0005d0 e08e      	LDI  R24,14
0005d1 940e 214d 	CALL __COPYMML
0005d3 01fe      	MOVW R30,R28
0005d4 963e      	ADIW R30,14
0005d5 e08e      	LDI  R24,14
0005d6 b61f      	IN   R1,SREG
0005d7 94f8      	CLI
0005d8 96e8      	ADIW R28,56
0005d9 9508      	RET
                 ; 0001 02FF }
                 ;
                 ;//========================================================
                 ;// read  vi tri robot   PHUC
                 ;//========================================================
                 ;unsigned char readposition()
                 ; 0001 0305 {
                 _readposition:
                 ; 0001 0306     unsigned char  i=0;
                 ; 0001 0307     unsigned flagstatus=0;
                 ; 0001 0308 
                 ; 0001 0309     if(nRF24L01_RxPacket(RxBuf)==1)         // Neu nhan duoc du lieu
0005da 940e 216d 	CALL __SAVELOCR4
                 ;	i -> R17
                 ;	flagstatus -> R18,R19
0005dc e010      	LDI  R17,0
                +
0005dd e020     +LDI R18 , LOW ( 0 )
0005de e030     +LDI R19 , HIGH ( 0 )
                 	__GETWRN 18,19,0
0005df e5e9      	LDI  R30,LOW(_RxBuf)
0005e0 e0f4      	LDI  R31,HIGH(_RxBuf)
0005e1 93fa      	ST   -Y,R31
0005e2 93ea      	ST   -Y,R30
0005e3 940e 034c 	CALL _nRF24L01_RxPacket
0005e5 30e1      	CPI  R30,LOW(0x1)
0005e6 f011      	BREQ PC+3
0005e7 940c 0655 	JMP _0x2006F
                 ; 0001 030A     {
                 ; 0001 030B         for( i=0;i<28;i++)
0005e9 e010      	LDI  R17,LOW(0)
                 _0x20071:
0005ea 311c      	CPI  R17,28
0005eb f460      	BRSH _0x20072
                 ; 0001 030C         {
                 ; 0001 030D             *(uint8_t *) ((uint8_t *)&rb + i)=RxBuf[i];
0005ec 2fa1      	MOV  R26,R17
0005ed e0b0      	LDI  R27,0
0005ee 53a1      	SUBI R26,LOW(-_rb)
0005ef 4fbc      	SBCI R27,HIGH(-_rb)
0005f0 940e 189f 	CALL SUBOPT_0x8
0005f2 5ae7      	SUBI R30,LOW(-_RxBuf)
0005f3 4ffb      	SBCI R31,HIGH(-_RxBuf)
0005f4 81e0      	LD   R30,Z
0005f5 93ec      	ST   X,R30
                 ; 0001 030E         }
0005f6 5f1f      	SUBI R17,-1
0005f7 cff2      	RJMP _0x20071
                 _0x20072:
                 ; 0001 030F 
                 ; 0001 0310         idRobot = fmod(rb.id,10); // doc id
0005f8 940e 1945 	CALL SUBOPT_0x1D
0005fa 940e 212e 	CALL __PUTPARD1
0005fc 940e 194e 	CALL SUBOPT_0x1E
0005fe 940e 212e 	CALL __PUTPARD1
000600 940e 168b 	CALL _fmod
000602 940e 1eac 	CALL __CFD1U
000604 016f      	MOVW R12,R30
                 ; 0001 0311         cmdCtrlRobot = (int)rb.id/10; // doc ma lenh
000605 940e 1953 	CALL SUBOPT_0x1F
                 ; 0001 0312 
                 ; 0001 0313         switch (idRobot)
000607 01f6      	MOVW R30,R12
                 ; 0001 0314         {
                 ; 0001 0315             case 1:
000608 30e1      	CPI  R30,LOW(0x1)
000609 e0a0      	LDI  R26,HIGH(0x1)
00060a 07fa      	CPC  R31,R26
00060b f429      	BRNE _0x20076
                 ; 0001 0316                 robot11=convertRobot2IntRobot(rb);
00060c 940e 195d 	CALL SUBOPT_0x20
00060e eeab      	LDI  R26,LOW(_robot11)
00060f e0b3      	LDI  R27,HIGH(_robot11)
000610 c02c      	RJMP _0x202D2
                 ; 0001 0317                 break;
                 ; 0001 0318             case 2:
                 _0x20076:
000611 30e2      	CPI  R30,LOW(0x2)
000612 e0a0      	LDI  R26,HIGH(0x2)
000613 07fa      	CPC  R31,R26
000614 f429      	BRNE _0x20077
                 ; 0001 0319                 robot12=convertRobot2IntRobot(rb);
000615 940e 195d 	CALL SUBOPT_0x20
000617 efa9      	LDI  R26,LOW(_robot12)
000618 e0b3      	LDI  R27,HIGH(_robot12)
000619 c023      	RJMP _0x202D2
                 ; 0001 031A                 break;
                 ; 0001 031B             case 3:
                 _0x20077:
00061a 30e3      	CPI  R30,LOW(0x3)
00061b e0a0      	LDI  R26,HIGH(0x3)
00061c 07fa      	CPC  R31,R26
00061d f429      	BRNE _0x20078
                 ; 0001 031C                 robot13=convertRobot2IntRobot(rb);
00061e 940e 195d 	CALL SUBOPT_0x20
000620 e0a7      	LDI  R26,LOW(_robot13)
000621 e0b4      	LDI  R27,HIGH(_robot13)
000622 c01a      	RJMP _0x202D2
                 ; 0001 031D             break;
                 ; 0001 031E             case 4:
                 _0x20078:
000623 30e4      	CPI  R30,LOW(0x4)
000624 e0a0      	LDI  R26,HIGH(0x4)
000625 07fa      	CPC  R31,R26
000626 f429      	BRNE _0x20079
                 ; 0001 031F                 robot21=convertRobot2IntRobot(rb);
000627 940e 195d 	CALL SUBOPT_0x20
000629 e1a5      	LDI  R26,LOW(_robot21)
00062a e0b4      	LDI  R27,HIGH(_robot21)
00062b c011      	RJMP _0x202D2
                 ; 0001 0320                 break;
                 ; 0001 0321             case 5:
                 _0x20079:
00062c 30e5      	CPI  R30,LOW(0x5)
00062d e0a0      	LDI  R26,HIGH(0x5)
00062e 07fa      	CPC  R31,R26
00062f f429      	BRNE _0x2007A
                 ; 0001 0322                 robot22=convertRobot2IntRobot(rb);
000630 940e 195d 	CALL SUBOPT_0x20
000632 e2a3      	LDI  R26,LOW(_robot22)
000633 e0b4      	LDI  R27,HIGH(_robot22)
000634 c008      	RJMP _0x202D2
                 ; 0001 0323                 break;
                 ; 0001 0324             case 6:
                 _0x2007A:
000635 30e6      	CPI  R30,LOW(0x6)
000636 e0a0      	LDI  R26,HIGH(0x6)
000637 07fa      	CPC  R31,R26
000638 f439      	BRNE _0x20075
                 ; 0001 0325                 robot23=convertRobot2IntRobot(rb);
000639 940e 195d 	CALL SUBOPT_0x20
00063b e3a1      	LDI  R26,LOW(_robot23)
00063c e0b4      	LDI  R27,HIGH(_robot23)
                 _0x202D2:
00063d 940e 214d 	CALL __COPYMML
00063f be1f      	OUT  SREG,R1
                 ; 0001 0326                 break;
                 ; 0001 0327         }
                 _0x20075:
                 ; 0001 0328 
                 ; 0001 0329         if(idRobot==ROBOT_ID)
000640 e0e4      	LDI  R30,LOW(4)
000641 e0f0      	LDI  R31,HIGH(4)
000642 15ec      	CP   R30,R12
000643 05fd      	CPC  R31,R13
000644 f481      	BRNE _0x2007C
                 ; 0001 032A         {
                 ; 0001 032B             LEDL=!LEDL;
000645 9bac      	SBIS 0x15,4
000646 c002      	RJMP _0x2007D
000647 98ac      	CBI  0x15,4
000648 c001      	RJMP _0x2007E
                 _0x2007D:
000649 9aac      	SBI  0x15,4
                 _0x2007E:
                 ; 0001 032C             cmdCtrlRobot = (int)rb.id/10; // doc ma lenh
00064a 940e 1953 	CALL SUBOPT_0x1F
                 ; 0001 032D             flagstatus=1;
                +
00064c e021     +LDI R18 , LOW ( 1 )
00064d e030     +LDI R19 , HIGH ( 1 )
                 	__GETWRN 18,19,1
                 ; 0001 032E             robotctrl=convertRobot2IntRobot(rb);
00064e 940e 195d 	CALL SUBOPT_0x20
000650 e3af      	LDI  R26,LOW(_robotctrl)
000651 e0b4      	LDI  R27,HIGH(_robotctrl)
000652 940e 214d 	CALL __COPYMML
000654 be1f      	OUT  SREG,R1
                 ; 0001 032F         }
                 ; 0001 0330     }
                 _0x2007C:
                 ; 0001 0331     return flagstatus;
                 _0x2006F:
000655 2fe2      	MOV  R30,R18
000656 940e 2174 	CALL __LOADLOCR4
                 _0x20C000A:
000658 9624      	ADIW R28,4
000659 9508      	RET
                 ; 0001 0332 }
                 ;//========================================================
                 ;// calc  vi tri robot   so voi mot diem (x,y)        PHUC
                 ;// return goclenh va khoang cach, HUONG TAN CONG
                 ;//========================================================
                 ;void calcvitri(float x,float y)
                 ; 0001 0338 {
                 _calcvitri:
                 ; 0001 0339     float ahx,ahy,aox,aoy,dah,dao,ahay,cosgoc,anpla0,anpla1,detaanpla;
                 ; 0001 033A     ahx = robotctrl.ox-robotctrl.x;
00065a 97ac      	SBIW R28,44
                 ;	x -> Y+48
                 ;	y -> Y+44
                 ;	ahx -> Y+40
                 ;	ahy -> Y+36
                 ;	aox -> Y+32
                 ;	aoy -> Y+28
                 ;	dah -> Y+24
                 ;	dao -> Y+20
                 ;	ahay -> Y+16
                 ;	cosgoc -> Y+12
                 ;	anpla0 -> Y+8
                 ;	anpla1 -> Y+4
                 ;	detaanpla -> Y+0
                +
00065b 91e0 0445+LDS R30 , _robotctrl + ( 6 )
00065d 91f0 0446+LDS R31 , _robotctrl + ( 6 ) + 1
                 	__GETW1MN _robotctrl,6
00065f 940e 1964 	CALL SUBOPT_0x21
000661 1bea      	SUB  R30,R26
000662 0bfb      	SBC  R31,R27
000663 940e 1922 	CALL SUBOPT_0x16
                +
000665 a7e8     +STD Y + 40 , R30
000666 a7f9     +STD Y + 40 + 1 , R31
000667 a76a     +STD Y + 40 + 2 , R22
000668 a77b     +STD Y + 40 + 3 , R23
                 	__PUTD1S 40
                 ; 0001 033B     ahy = robotctrl.oy-robotctrl.y;
                +
000669 91e0 0447+LDS R30 , _robotctrl + ( 8 )
00066b 91f0 0448+LDS R31 , _robotctrl + ( 8 ) + 1
                 	__GETW1MN _robotctrl,8
00066d 940e 1969 	CALL SUBOPT_0x22
00066f 1bea      	SUB  R30,R26
000670 0bfb      	SBC  R31,R27
000671 940e 1922 	CALL SUBOPT_0x16
                +
000673 a3ec     +STD Y + 36 , R30
000674 a3fd     +STD Y + 36 + 1 , R31
000675 a36e     +STD Y + 36 + 2 , R22
000676 a37f     +STD Y + 36 + 3 , R23
                 	__PUTD1S 36
                 ; 0001 033C     aox = x-robotctrl.x;
                +
000677 91e0 0441+LDS R30 , _robotctrl + ( 2 )
000679 91f0 0442+LDS R31 , _robotctrl + ( 2 ) + 1
                 	__GETW1MN _robotctrl,2
                +
00067b a9a8     +LDD R26 , Y + 48
00067c a9b9     +LDD R27 , Y + 48 + 1
00067d a98a     +LDD R24 , Y + 48 + 2
00067e a99b     +LDD R25 , Y + 48 + 3
                 	__GETD2S 48
00067f 940e 196e 	CALL SUBOPT_0x23
                +
000681 a3e8     +STD Y + 32 , R30
000682 a3f9     +STD Y + 32 + 1 , R31
000683 a36a     +STD Y + 32 + 2 , R22
000684 a37b     +STD Y + 32 + 3 , R23
                 	__PUTD1S 32
                 ; 0001 033D     aoy = y-robotctrl.y;
                +
000685 91e0 0443+LDS R30 , _robotctrl + ( 4 )
000687 91f0 0444+LDS R31 , _robotctrl + ( 4 ) + 1
                 	__GETW1MN _robotctrl,4
                +
000689 a5ac     +LDD R26 , Y + 44
00068a a5bd     +LDD R27 , Y + 44 + 1
00068b a58e     +LDD R24 , Y + 44 + 2
00068c a59f     +LDD R25 , Y + 44 + 3
                 	__GETD2S 44
00068d 940e 196e 	CALL SUBOPT_0x23
                +
00068f 8fec     +STD Y + 28 , R30
000690 8ffd     +STD Y + 28 + 1 , R31
000691 8f6e     +STD Y + 28 + 2 , R22
000692 8f7f     +STD Y + 28 + 3 , R23
                 	__PUTD1S 28
                 ; 0001 033E     dah = sqrt(ahx*ahx+ahy*ahy)  ;
                +
000693 a5e8     +LDD R30 , Y + 40
000694 a5f9     +LDD R31 , Y + 40 + 1
000695 a56a     +LDD R22 , Y + 40 + 2
000696 a57b     +LDD R23 , Y + 40 + 3
                 	__GETD1S 40
000697 940e 1974 	CALL SUBOPT_0x24
000699 937f      	PUSH R23
00069a 936f      	PUSH R22
00069b 93ff      	PUSH R31
00069c 93ef      	PUSH R30
00069d 940e 193b 	CALL SUBOPT_0x1B
00069f 940e 197b 	CALL SUBOPT_0x25
0006a1 91af      	POP  R26
0006a2 91bf      	POP  R27
0006a3 918f      	POP  R24
0006a4 919f      	POP  R25
0006a5 940e 1982 	CALL SUBOPT_0x26
                +
0006a7 8fe8     +STD Y + 24 , R30
0006a8 8ff9     +STD Y + 24 + 1 , R31
0006a9 8f6a     +STD Y + 24 + 2 , R22
0006aa 8f7b     +STD Y + 24 + 3 , R23
                 	__PUTD1S 24
                 ; 0001 033F     dao = sqrt(aox*aox+aoy*aoy)  ;
0006ab 940e 1936 	CALL SUBOPT_0x1A
0006ad 940e 1988 	CALL SUBOPT_0x27
0006af 940e 1f6f 	CALL __MULF12
0006b1 937f      	PUSH R23
0006b2 936f      	PUSH R22
0006b3 93ff      	PUSH R31
0006b4 93ef      	PUSH R30
0006b5 940e 1931 	CALL SUBOPT_0x19
0006b7 940e 198d 	CALL SUBOPT_0x28
0006b9 940e 1f6f 	CALL __MULF12
0006bb 91af      	POP  R26
0006bc 91bf      	POP  R27
0006bd 918f      	POP  R24
0006be 919f      	POP  R25
0006bf 940e 1982 	CALL SUBOPT_0x26
0006c1 940e 1992 	CALL SUBOPT_0x29
                 ; 0001 0340     ahay= ahx*aox+ahy*aoy;
0006c3 940e 1936 	CALL SUBOPT_0x1A
0006c5 940e 1974 	CALL SUBOPT_0x24
0006c7 937f      	PUSH R23
0006c8 936f      	PUSH R22
0006c9 93ff      	PUSH R31
0006ca 93ef      	PUSH R30
0006cb 940e 1931 	CALL SUBOPT_0x19
0006cd 940e 197b 	CALL SUBOPT_0x25
0006cf 91af      	POP  R26
0006d0 91bf      	POP  R27
0006d1 918f      	POP  R24
0006d2 919f      	POP  R25
0006d3 940e 1997 	CALL SUBOPT_0x2A
                 ; 0001 0341     cosgoc = ahay/(dah*dao);
                +
0006d5 89ec     +LDD R30 , Y + 20
0006d6 89fd     +LDD R31 , Y + 20 + 1
0006d7 896e     +LDD R22 , Y + 20 + 2
0006d8 897f     +LDD R23 , Y + 20 + 3
                 	__GETD1S 20
                +
0006d9 8da8     +LDD R26 , Y + 24
0006da 8db9     +LDD R27 , Y + 24 + 1
0006db 8d8a     +LDD R24 , Y + 24 + 2
0006dc 8d9b     +LDD R25 , Y + 24 + 3
                 	__GETD2S 24
0006dd 940e 1f6f 	CALL __MULF12
0006df 940e 199e 	CALL SUBOPT_0x2B
0006e1 940e 1fbd 	CALL __DIVF21
0006e3 940e 19a3 	CALL SUBOPT_0x2C
                 ; 0001 0342 
                 ; 0001 0343     anpla0 = atan2(ahy,ahx);
0006e5 940e 19a8 	CALL SUBOPT_0x2D
0006e7 940e 19ac 	CALL SUBOPT_0x2E
                +
0006e9 87e8     +STD Y + 8 , R30
0006ea 87f9     +STD Y + 8 + 1 , R31
0006eb 876a     +STD Y + 8 + 2 , R22
0006ec 877b     +STD Y + 8 + 3 , R23
                 	__PUTD1S 8
                 ; 0001 0344     anpla1 = atan2(aoy,aox);
0006ed 940e 1931 	CALL SUBOPT_0x19
0006ef 940e 212e 	CALL __PUTPARD1
0006f1 940e 19a8 	CALL SUBOPT_0x2D
0006f3 940e 1812 	CALL _atan2
                +
0006f5 83ec     +STD Y + 4 , R30
0006f6 83fd     +STD Y + 4 + 1 , R31
0006f7 836e     +STD Y + 4 + 2 , R22
0006f8 837f     +STD Y + 4 + 3 , R23
                 	__PUTD1S 4
                 ; 0001 0345     detaanpla= anpla0-anpla1;
0006f9 940e 19b1 	CALL SUBOPT_0x2F
                +
0006fb 85e8     +LDD R30 , Y + 8
0006fc 85f9     +LDD R31 , Y + 8 + 1
0006fd 856a     +LDD R22 , Y + 8 + 2
0006fe 857b     +LDD R23 , Y + 8 + 3
                 	__GETD1S 8
0006ff 940e 1f18 	CALL __SUBF12
000701 940e 19b6 	CALL SUBOPT_0x30
                 ; 0001 0346 
                 ; 0001 0347     errangle = acos(cosgoc)*180/3.14;
000703 940e 19b9 	CALL SUBOPT_0x31
000705 940e 212e 	CALL __PUTPARD1
000707 940e 17f4 	CALL _acos
000709 940e 19be 	CALL SUBOPT_0x32
                +
00070b ece3     +LDI R30 , LOW ( 0x4048F5C3 )
00070c eff5     +LDI R31 , HIGH ( 0x4048F5C3 )
00070d e468     +LDI R22 , BYTE3 ( 0x4048F5C3 )
00070e e470     +LDI R23 , BYTE4 ( 0x4048F5C3 )
                 	__GETD1N 0x4048F5C3
00070f 940e 1fbd 	CALL __DIVF21
000711 93e0 044d 	STS  _errangle,R30
000713 93f0 044e 	STS  _errangle+1,R31
000715 9360 044f 	STS  _errangle+2,R22
000717 9370 0450 	STS  _errangle+3,R23
                 ; 0001 0348     if(((detaanpla>0)&&(detaanpla <M_PI))|| (detaanpla <-M_PI))  // xet truong hop goc ben phai
000719 940e 19c7 	CALL SUBOPT_0x33
00071b 940e 2165 	CALL __CPD02
00071d f43c      	BRGE _0x20080
00071e 940e 19c7 	CALL SUBOPT_0x33
000720 940e 19ca 	CALL SUBOPT_0x34
000722 940e 2002 	CALL __CMPF12
000724 f048      	BRLO _0x20082
                 _0x20080:
000725 940e 19c7 	CALL SUBOPT_0x33
                +
000727 edeb     +LDI R30 , LOW ( 0xC0490FDB )
000728 e0ff     +LDI R31 , HIGH ( 0xC0490FDB )
000729 e469     +LDI R22 , BYTE3 ( 0xC0490FDB )
00072a ec70     +LDI R23 , BYTE4 ( 0xC0490FDB )
                 	__GETD1N 0xC0490FDB
00072b 940e 2002 	CALL __CMPF12
00072d f428      	BRSH _0x2007F
                 _0x20082:
                 ; 0001 0349     {
                 ; 0001 034A          errangle = - errangle; // ben phai
00072e 940e 19cf 	CALL SUBOPT_0x35
000730 940e 1e79 	CALL __ANEGF1
000732 c002      	RJMP _0x202D3
                 ; 0001 034B     }
                 ; 0001 034C     else
                 _0x2007F:
                 ; 0001 034D     {
                 ; 0001 034E         errangle = errangle;   // ben trai
000733 940e 19cf 	CALL SUBOPT_0x35
                 _0x202D3:
000735 93e0 044d 	STS  _errangle,R30
000737 93f0 044e 	STS  _errangle+1,R31
000739 9360 044f 	STS  _errangle+2,R22
00073b 9370 0450 	STS  _errangle+3,R23
                 ; 0001 034F 
                 ; 0001 0350     }
                 ; 0001 0351     distance = sqrt(aox*3.48*aox*3.48+aoy*2.89*aoy*2.89); //tinh khoang cach
00073d 940e 1988 	CALL SUBOPT_0x27
                +
00073f e5e2     +LDI R30 , LOW ( 0x405EB852 )
000740 ebf8     +LDI R31 , HIGH ( 0x405EB852 )
000741 e56e     +LDI R22 , BYTE3 ( 0x405EB852 )
000742 e470     +LDI R23 , BYTE4 ( 0x405EB852 )
                 	__GETD1N 0x405EB852
000743 940e 1f6f 	CALL __MULF12
000745 940e 1988 	CALL SUBOPT_0x27
000747 940e 1f6f 	CALL __MULF12
                +
000749 e5a2     +LDI R26 , LOW ( 0x405EB852 )
00074a ebb8     +LDI R27 , HIGH ( 0x405EB852 )
00074b e58e     +LDI R24 , BYTE3 ( 0x405EB852 )
00074c e490     +LDI R25 , BYTE4 ( 0x405EB852 )
                 	__GETD2N 0x405EB852
00074d 940e 1f6f 	CALL __MULF12
00074f 937f      	PUSH R23
000750 936f      	PUSH R22
000751 93ff      	PUSH R31
000752 93ef      	PUSH R30
000753 940e 198d 	CALL SUBOPT_0x28
                +
000755 ece3     +LDI R30 , LOW ( 0x4038F5C3 )
000756 eff5     +LDI R31 , HIGH ( 0x4038F5C3 )
000757 e368     +LDI R22 , BYTE3 ( 0x4038F5C3 )
000758 e470     +LDI R23 , BYTE4 ( 0x4038F5C3 )
                 	__GETD1N 0x4038F5C3
000759 940e 1f6f 	CALL __MULF12
00075b 940e 198d 	CALL SUBOPT_0x28
00075d 940e 1f6f 	CALL __MULF12
                +
00075f eca3     +LDI R26 , LOW ( 0x4038F5C3 )
000760 efb5     +LDI R27 , HIGH ( 0x4038F5C3 )
000761 e388     +LDI R24 , BYTE3 ( 0x4038F5C3 )
000762 e490     +LDI R25 , BYTE4 ( 0x4038F5C3 )
                 	__GETD2N 0x4038F5C3
000763 940e 1f6f 	CALL __MULF12
000765 91af      	POP  R26
000766 91bf      	POP  R27
000767 918f      	POP  R24
000768 919f      	POP  R25
000769 940e 1982 	CALL SUBOPT_0x26
00076b 93e0 0451 	STS  _distance,R30
00076d 93f0 0452 	STS  _distance+1,R31
00076f 9360 0453 	STS  _distance+2,R22
000771 9370 0454 	STS  _distance+3,R23
                 ; 0001 0352     orentation = atan2(ahy,ahx)*180/M_PI + offestsanco;//tinh huong ra goc
000773 940e 19a8 	CALL SUBOPT_0x2D
000775 940e 19ac 	CALL SUBOPT_0x2E
000777 940e 19be 	CALL SUBOPT_0x32
000779 940e 19ca 	CALL SUBOPT_0x34
00077b 940e 1fbd 	CALL __DIVF21
00077d 91a0 0491 	LDS  R26,_offestsanco
00077f 91b0 0492 	LDS  R27,_offestsanco+1
000781 9180 0493 	LDS  R24,_offestsanco+2
000783 9190 0494 	LDS  R25,_offestsanco+3
000785 940e 1f1f 	CALL __ADDF12
000787 93e0 0455 	STS  _orentation,R30
000789 93f0 0456 	STS  _orentation+1,R31
00078b 9360 0457 	STS  _orentation+2,R22
00078d 9370 0458 	STS  _orentation+3,R23
                 ; 0001 0353     if(( 0 < orentation && orentation < 74) ||   ( 0 > orentation && orentation > -80) )
00078f 940e 2157 	CALL __CPD01
000791 f44c      	BRGE _0x20086
000792 940e 19d8 	CALL SUBOPT_0x36
                +
000794 e0e0     +LDI R30 , LOW ( 0x42940000 )
000795 e0f0     +LDI R31 , HIGH ( 0x42940000 )
000796 e964     +LDI R22 , BYTE3 ( 0x42940000 )
000797 e472     +LDI R23 , BYTE4 ( 0x42940000 )
                 	__GETD1N 0x42940000
000798 940e 2002 	CALL __CMPF12
00079a f090      	BRLO _0x20088
                 _0x20086:
00079b 91e0 0458 	LDS  R30,_orentation+3
00079d 23ee      	TST  R30
00079e f46a      	BRPL _0x20089
00079f 940e 19d8 	CALL SUBOPT_0x36
                +
0007a1 e0e0     +LDI R30 , LOW ( 0xC2A00000 )
0007a2 e0f0     +LDI R31 , HIGH ( 0xC2A00000 )
0007a3 ea60     +LDI R22 , BYTE3 ( 0xC2A00000 )
0007a4 ec72     +LDI R23 , BYTE4 ( 0xC2A00000 )
                 	__GETD1N 0xC2A00000
0007a5 940e 2002 	CALL __CMPF12
0007a7 f009      	BREQ PC+2
0007a8 f410      	BRCC PC+3
0007a9 940c 07ac 	JMP  _0x20089
0007ab c001      	RJMP _0x20088
                 _0x20089:
0007ac c009      	RJMP _0x20085
                 _0x20088:
                 ; 0001 0354     {
                 ; 0001 0355        if(SAN_ID == 1)// phan san duong
                 ; 0001 0356        {
                 ; 0001 0357         flagtancong=0;
0007ad 2444      	CLR  R4
0007ae 2455      	CLR  R5
                 ; 0001 0358         offsetphongthu = 70 ;
0007af e4e6      	LDI  R30,LOW(70)
0007b0 e0f0      	LDI  R31,HIGH(70)
0007b1 013f      	MOVW R6,R30
                 ; 0001 0359         goctancong = 180;
0007b2 ebe4      	LDI  R30,LOW(180)
0007b3 e0f0      	LDI  R31,HIGH(180)
0007b4 014f      	MOVW R8,R30
                 ; 0001 035A        }
                 ; 0001 035B        else // phan san am
                 ; 0001 035C        {
                 ; 0001 035D         flagtancong=1;
                 ; 0001 035E 
                 ; 0001 035F        }
                 ; 0001 0360     }else
0007b5 c003      	RJMP _0x2008E
                 _0x20085:
                 ; 0001 0361     {
                 ; 0001 0362        if(SAN_ID == 1)
                 ; 0001 0363        {
                 ; 0001 0364        flagtancong=1;
0007b6 e0e1      	LDI  R30,LOW(1)
0007b7 e0f0      	LDI  R31,HIGH(1)
0007b8 012f      	MOVW R4,R30
                 ; 0001 0365        }
                 ; 0001 0366        else
                 ; 0001 0367        {
                 ; 0001 0368         flagtancong=0;
                 ; 0001 0369         offsetphongthu = -70 ;
                 ; 0001 036A         goctancong = 0;
                 ; 0001 036B        }
                 ; 0001 036C     }
                 _0x2008E:
                 ; 0001 036D }
0007b9 96e4      	ADIW R28,52
0007ba 9508      	RET
                 ;void runEscStuck()
                 ; 0001 036F {
                 _runEscStuck:
                 ; 0001 0370     while(cmdCtrlRobot==4)
                 _0x20091:
0007bb 940e 19e1 	CALL SUBOPT_0x37
0007bd f569      	BRNE _0x20093
                 ; 0001 0371     {
                 ; 0001 0372 
                 ; 0001 0373         DDRA    = 0x00;
0007be 940e 19e6 	CALL SUBOPT_0x38
                 ; 0001 0374         PORTA   = 0x00;
                 ; 0001 0375         IRFL=read_adc(4);
0007c0 940e 19ea 	CALL SUBOPT_0x39
                 ; 0001 0376         IRFR=read_adc(5);
                 ; 0001 0377 
                 ; 0001 0378         if((IRFL<300)&&(IRFR<300))
0007c2 f418      	BRSH _0x20095
0007c3 940e 1a02 	CALL SUBOPT_0x3A
0007c5 f008      	BRLO _0x20096
                 _0x20095:
0007c6 c002      	RJMP _0x20094
                 _0x20096:
                 ; 0001 0379         {
                 ; 0001 037A             vMLtoi(22);vMRlui(22);
0007c7 940e 1a0a 	CALL SUBOPT_0x3B
                 ; 0001 037B             delay_ms(100);
                 ; 0001 037C         }
                 ; 0001 037D          if (IRFL>300 && IRFR<300)
                 _0x20094:
0007c9 940e 1a18 	CALL SUBOPT_0x3C
0007cb 32ad      	CPI  R26,LOW(0x12D)
0007cc e0e1      	LDI  R30,HIGH(0x12D)
0007cd 07be      	CPC  R27,R30
0007ce f018      	BRLO _0x20098
0007cf 940e 1a02 	CALL SUBOPT_0x3A
0007d1 f008      	BRLO _0x20099
                 _0x20098:
0007d2 c005      	RJMP _0x20097
                 _0x20099:
                 ; 0001 037E         {
                 ; 0001 037F             vMLlui(0);vMRlui(25);delay_ms(100);
0007d3 940e 1a1d 	CALL SUBOPT_0x3D
0007d5 e1e9      	LDI  R30,LOW(25)
0007d6 940e 1a21 	CALL SUBOPT_0x3E
                 ; 0001 0380         }
                 ; 0001 0381         if (IRFR>300 && IRFL<300 )
                 _0x20097:
0007d8 940e 1a2a 	CALL SUBOPT_0x3F
0007da f018      	BRLO _0x2009B
0007db 940e 1a32 	CALL SUBOPT_0x40
0007dd f008      	BRLO _0x2009C
                 _0x2009B:
0007de c005      	RJMP _0x2009A
                 _0x2009C:
                 ; 0001 0382         {
                 ; 0001 0383             vMLlui(25);vMRlui(0);delay_ms(100);
0007df e1e9      	LDI  R30,LOW(25)
0007e0 940e 1a37 	CALL SUBOPT_0x41
0007e2 940e 1a21 	CALL SUBOPT_0x3E
                 ; 0001 0384         }
                 ; 0001 0385         LEDBR=!LEDBR;
                 _0x2009A:
0007e4 9bdf      	SBIS 0x1B,7
0007e5 c002      	RJMP _0x2009D
0007e6 98df      	CBI  0x1B,7
0007e7 c001      	RJMP _0x2009E
                 _0x2009D:
0007e8 9adf      	SBI  0x1B,7
                 _0x2009E:
                 ; 0001 0386         readposition();//doc RF cap nhat ai robot
0007e9 ddf0      	RCALL _readposition
                 ; 0001 0387     }
0007ea cfd0      	RJMP _0x20091
                 _0x20093:
                 ; 0001 0388 }
0007eb 9508      	RET
                 ;void runEscStucksethome()
                 ; 0001 038A {
                 _runEscStucksethome:
                 ; 0001 038B     while(cmdCtrlRobot==7)
                 _0x2009F:
0007ec e0e7      	LDI  R30,LOW(7)
0007ed e0f0      	LDI  R31,HIGH(7)
0007ee 15ea      	CP   R30,R10
0007ef 05fb      	CPC  R31,R11
0007f0 f549      	BRNE _0x200A1
                 ; 0001 038C     {
                 ; 0001 038D         DDRA    = 0x00;
0007f1 940e 19e6 	CALL SUBOPT_0x38
                 ; 0001 038E         PORTA   = 0x00;
                 ; 0001 038F         readposition();//doc RF cap nhat ai robot
0007f3 dde6      	RCALL _readposition
                 ; 0001 0390         IRFL=read_adc(4);
0007f4 940e 19ea 	CALL SUBOPT_0x39
                 ; 0001 0391         IRFR=read_adc(5);
                 ; 0001 0392 
                 ; 0001 0393         if((IRFL<300)&&(IRFR<300))
0007f6 f418      	BRSH _0x200A3
0007f7 940e 1a02 	CALL SUBOPT_0x3A
0007f9 f008      	BRLO _0x200A4
                 _0x200A3:
0007fa c002      	RJMP _0x200A2
                 _0x200A4:
                 ; 0001 0394         {
                 ; 0001 0395             vMLtoi(22);vMRlui(22);
0007fb 940e 1a0a 	CALL SUBOPT_0x3B
                 ; 0001 0396             delay_ms(100);
                 ; 0001 0397         }
                 ; 0001 0398 
                 ; 0001 0399         if (IRFL>300 && IRFR<300)
                 _0x200A2:
0007fd 940e 1a3c 	CALL SUBOPT_0x42
0007ff f018      	BRLO _0x200A6
000800 940e 1a02 	CALL SUBOPT_0x3A
000802 f008      	BRLO _0x200A7
                 _0x200A6:
000803 c004      	RJMP _0x200A5
                 _0x200A7:
                 ; 0001 039A         {
                 ; 0001 039B             vMLlui(0);vMRlui(22);delay_ms(300);
000804 940e 1a1d 	CALL SUBOPT_0x3D
000806 940e 1a41 	CALL SUBOPT_0x43
                 ; 0001 039C         }
                 ; 0001 039D         if (IRFR>300 && IRFL<300 )
                 _0x200A5:
000808 940e 1a2a 	CALL SUBOPT_0x3F
00080a f018      	BRLO _0x200A9
00080b 940e 1a32 	CALL SUBOPT_0x40
00080d f008      	BRLO _0x200AA
                 _0x200A9:
00080e c005      	RJMP _0x200A8
                 _0x200AA:
                 ; 0001 039E         {
                 ; 0001 039F             vMLlui(22);vMRlui(0);delay_ms(300);
00080f e1e6      	LDI  R30,LOW(22)
000810 940e 1a37 	CALL SUBOPT_0x41
000812 940e 1a4b 	CALL SUBOPT_0x44
                 ; 0001 03A0         }
                 ; 0001 03A1 
                 ; 0001 03A2         LEDBR=!LEDBR;
                 _0x200A8:
000814 9bdf      	SBIS 0x1B,7
000815 c002      	RJMP _0x200AB
000816 98df      	CBI  0x1B,7
000817 c001      	RJMP _0x200AC
                 _0x200AB:
000818 9adf      	SBI  0x1B,7
                 _0x200AC:
                 ; 0001 03A3     }
000819 cfd2      	RJMP _0x2009F
                 _0x200A1:
                 ; 0001 03A4 }
00081a 9508      	RET
                 ;void runEscBlindSpot()
                 ; 0001 03A6 {
                 _runEscBlindSpot:
                 ; 0001 03A7     while(cmdCtrlRobot==3)
                 _0x200AD:
00081b 940e 1a54 	CALL SUBOPT_0x45
00081d f561      	BRNE _0x200AF
                 ; 0001 03A8     {
                 ; 0001 03A9         DDRA    = 0x00;
00081e 940e 19e6 	CALL SUBOPT_0x38
                 ; 0001 03AA         PORTA   = 0x00;
                 ; 0001 03AB         readposition();//doc RF cap nhat ai robot
000820 940e 1a59 	CALL SUBOPT_0x46
                 ; 0001 03AC         IRFL=read_adc(4);
                 ; 0001 03AD         IRFR=read_adc(5);
                 ; 0001 03AE         if (IRFL>300 && IRFR<300)
000822 f018      	BRLO _0x200B1
000823 940e 1a02 	CALL SUBOPT_0x3A
000825 f008      	BRLO _0x200B2
                 _0x200B1:
000826 c004      	RJMP _0x200B0
                 _0x200B2:
                 ; 0001 03AF         {
                 ; 0001 03B0             vMLlui(0);vMRlui(22);delay_ms(300);
000827 940e 1a1d 	CALL SUBOPT_0x3D
000829 940e 1a41 	CALL SUBOPT_0x43
                 ; 0001 03B1         }
                 ; 0001 03B2         if (IRFR>300 && IRFL<300 )
                 _0x200B0:
00082b 940e 1a2a 	CALL SUBOPT_0x3F
00082d f018      	BRLO _0x200B4
00082e 940e 1a32 	CALL SUBOPT_0x40
000830 f008      	BRLO _0x200B5
                 _0x200B4:
000831 c005      	RJMP _0x200B3
                 _0x200B5:
                 ; 0001 03B3         {
                 ; 0001 03B4             vMLlui(22);vMRlui(0);delay_ms(300);
000832 e1e6      	LDI  R30,LOW(22)
000833 940e 1a37 	CALL SUBOPT_0x41
000835 940e 1a4b 	CALL SUBOPT_0x44
                 ; 0001 03B5         }
                 ; 0001 03B6 
                 ; 0001 03B7         if((IRFL<300)&&(IRFR<300))
                 _0x200B3:
000837 940e 1a32 	CALL SUBOPT_0x40
000839 f418      	BRSH _0x200B7
00083a 940e 1a02 	CALL SUBOPT_0x3A
00083c f008      	BRLO _0x200B8
                 _0x200B7:
00083d c006      	RJMP _0x200B6
                 _0x200B8:
                 ; 0001 03B8         {
                 ; 0001 03B9             vMLtoi(20);vMRtoi(20);
00083e 940e 1a6c 	CALL SUBOPT_0x47
                 ; 0001 03BA             delay_ms(20);
000840 940e 1a74 	CALL SUBOPT_0x48
000842 940e 1e6d 	CALL _delay_ms
                 ; 0001 03BB         }
                 ; 0001 03BC 
                 ; 0001 03BD         LEDR=!LEDR;
                 _0x200B6:
000844 9bad      	SBIS 0x15,5
000845 c002      	RJMP _0x200B9
000846 98ad      	CBI  0x15,5
000847 c001      	RJMP _0x200BA
                 _0x200B9:
000848 9aad      	SBI  0x15,5
                 _0x200BA:
                 ; 0001 03BE     }
000849 cfd1      	RJMP _0x200AD
                 _0x200AF:
                 ; 0001 03BF }
00084a 9508      	RET
                 ;
                 ;void runEscBlindSpotsethome()
                 ; 0001 03C2 {
                 _runEscBlindSpotsethome:
                 ; 0001 03C3     while(cmdCtrlRobot==6)
                 _0x200BB:
00084b e0e6      	LDI  R30,LOW(6)
00084c e0f0      	LDI  R31,HIGH(6)
00084d 15ea      	CP   R30,R10
00084e 05fb      	CPC  R31,R11
00084f f561      	BRNE _0x200BD
                 ; 0001 03C4     {
                 ; 0001 03C5         DDRA    = 0x00;
000850 940e 19e6 	CALL SUBOPT_0x38
                 ; 0001 03C6         PORTA   = 0x00;
                 ; 0001 03C7         readposition();
000852 940e 1a59 	CALL SUBOPT_0x46
                 ; 0001 03C8         IRFL=read_adc(4);
                 ; 0001 03C9         IRFR=read_adc(5);
                 ; 0001 03CA         if (IRFL>300 && IRFR<300)
000854 f018      	BRLO _0x200BF
000855 940e 1a02 	CALL SUBOPT_0x3A
000857 f008      	BRLO _0x200C0
                 _0x200BF:
000858 c004      	RJMP _0x200BE
                 _0x200C0:
                 ; 0001 03CB         {
                 ; 0001 03CC             vMLlui(0);vMRlui(22);delay_ms(300);
000859 940e 1a1d 	CALL SUBOPT_0x3D
00085b 940e 1a41 	CALL SUBOPT_0x43
                 ; 0001 03CD         }
                 ; 0001 03CE         if (IRFR>300 && IRFL<300 )
                 _0x200BE:
00085d 940e 1a2a 	CALL SUBOPT_0x3F
00085f f018      	BRLO _0x200C2
000860 940e 1a32 	CALL SUBOPT_0x40
000862 f008      	BRLO _0x200C3
                 _0x200C2:
000863 c005      	RJMP _0x200C1
                 _0x200C3:
                 ; 0001 03CF         {
                 ; 0001 03D0             vMLlui(22);vMRlui(0);delay_ms(300);
000864 e1e6      	LDI  R30,LOW(22)
000865 940e 1a37 	CALL SUBOPT_0x41
000867 940e 1a4b 	CALL SUBOPT_0x44
                 ; 0001 03D1         }
                 ; 0001 03D2 
                 ; 0001 03D3         if((IRFL<300)&&(IRFR<300))
                 _0x200C1:
000869 940e 1a32 	CALL SUBOPT_0x40
00086b f418      	BRSH _0x200C5
00086c 940e 1a02 	CALL SUBOPT_0x3A
00086e f008      	BRLO _0x200C6
                 _0x200C5:
00086f c006      	RJMP _0x200C4
                 _0x200C6:
                 ; 0001 03D4         {
                 ; 0001 03D5             vMLtoi(20);vMRtoi(20);
000870 940e 1a6c 	CALL SUBOPT_0x47
                 ; 0001 03D6             delay_ms(10);
000872 940e 1a79 	CALL SUBOPT_0x49
000874 940e 1e6d 	CALL _delay_ms
                 ; 0001 03D7         }
                 ; 0001 03D8 
                 ; 0001 03D9         LEDR=!LEDR;
                 _0x200C4:
000876 9bad      	SBIS 0x15,5
000877 c002      	RJMP _0x200C7
000878 98ad      	CBI  0x15,5
000879 c001      	RJMP _0x200C8
                 _0x200C7:
00087a 9aad      	SBI  0x15,5
                 _0x200C8:
                 ; 0001 03DA     }
00087b cfcf      	RJMP _0x200BB
                 _0x200BD:
                 ; 0001 03DB }
00087c 9508      	RET
                 ;
                 ;//========================================================
                 ;// SET HOME  vi tri robot, de chuan bi cho tran dau       PHUC//
                 ;//========================================================
                 ;int sethomeRB()
                 ; 0001 03E1 {
                 _sethomeRB:
                 ; 0001 03E2        while(flagsethome==0)
                 _0x200C9:
00087d 91e0 04b3 	LDS  R30,_flagsethome
00087f 91f0 04b4 	LDS  R31,_flagsethome+1
000881 9730      	SBIW R30,0
000882 f011      	BREQ PC+3
000883 940c 091f 	JMP _0x200CB
                 ; 0001 03E3        {
                 ; 0001 03E4             LEDL=!LEDL;
000885 9bac      	SBIS 0x15,4
000886 c002      	RJMP _0x200CC
000887 98ac      	CBI  0x15,4
000888 c001      	RJMP _0x200CD
                 _0x200CC:
000889 9aac      	SBI  0x15,4
                 _0x200CD:
                 ; 0001 03E5               //PHUC SH
                 ; 0001 03E6             if(readposition()==1)//co du lieu moi
00088a dd4f      	RCALL _readposition
00088b 30e1      	CPI  R30,LOW(0x1)
00088c f011      	BREQ PC+3
00088d 940c 0919 	JMP _0x200CE
                 ; 0001 03E7             {
                 ; 0001 03E8                     //hc(3,40);wn16s(cmdCtrlRobot);
                 ; 0001 03E9                     if(cmdCtrlRobot==1)      // dung ma lenh stop chuong trinh
00088f 940e 1a7e 	CALL SUBOPT_0x4A
000891 f419      	BRNE _0x200CF
                 ; 0001 03EA                     {
                 ; 0001 03EB                         flagsethome=0;
000892 940e 1a83 	CALL SUBOPT_0x4B
                 ; 0001 03EC                          return 0;
000894 c0f9      	RJMP _0x20C0008
                 ; 0001 03ED                     }
                 ; 0001 03EE 
                 ; 0001 03EF                     if(cmdCtrlRobot==2 || cmdCtrlRobot==3 || cmdCtrlRobot==4)      // dung ma lenh stop chuong trinh
                 _0x200CF:
000895 940e 1a89 	CALL SUBOPT_0x4C
000897 f031      	BREQ _0x200D1
000898 940e 1a54 	CALL SUBOPT_0x45
00089a f019      	BREQ _0x200D1
00089b 940e 19e1 	CALL SUBOPT_0x37
00089d f419      	BRNE _0x200D0
                 _0x200D1:
                 ; 0001 03F0                     {
                 ; 0001 03F1                         flagsethome=0;
00089e 940e 1a83 	CALL SUBOPT_0x4B
                 ; 0001 03F2                         return 0;
0008a0 c0ed      	RJMP _0x20C0008
                 ; 0001 03F3                     }
                 ; 0001 03F4 
                 ; 0001 03F5                     if(cmdCtrlRobot==5)  //sethome robot
                 _0x200D0:
0008a1 e0e5      	LDI  R30,LOW(5)
0008a2 e0f0      	LDI  R31,HIGH(5)
0008a3 15ea      	CP   R30,R10
0008a4 05fb      	CPC  R31,R11
0008a5 f011      	BREQ PC+3
0008a6 940c 08fc 	JMP _0x200D3
                 ; 0001 03F6                     {
                 ; 0001 03F7 
                 ; 0001 03F8                         calcvitri(rbctrlHomeX,rbctrlHomeY);
0008a8 91e0 0495 	LDS  R30,_rbctrlHomeX
0008aa 91f0 0496 	LDS  R31,_rbctrlHomeX+1
0008ac 9160 0497 	LDS  R22,_rbctrlHomeX+2
0008ae 9170 0498 	LDS  R23,_rbctrlHomeX+3
0008b0 940e 212e 	CALL __PUTPARD1
0008b2 91e0 0499 	LDS  R30,_rbctrlHomeY
0008b4 91f0 049a 	LDS  R31,_rbctrlHomeY+1
0008b6 9160 049b 	LDS  R22,_rbctrlHomeY+2
0008b8 9170 049c 	LDS  R23,_rbctrlHomeY+3
0008ba 940e 1a8e 	CALL SUBOPT_0x4D
                 ; 0001 03F9                         if(distance>100) //chay den vi tri
0008bc 940e 1a92 	CALL SUBOPT_0x4E
0008be 940e 1a9b 	CALL SUBOPT_0x4F
0008c0 f009      	BREQ PC+2
0008c1 f410      	BRCC PC+3
0008c2 940c 08d5 	JMP  _0x200D4
                 ; 0001 03FA                         {
                 ; 0001 03FB                             if(errangle>18 || errangle<-18 )
0008c4 940e 1aa2 	CALL SUBOPT_0x50
0008c6 940e 1aab 	CALL SUBOPT_0x51
0008c8 f019      	BREQ PC+4
0008c9 f010      	BRCS PC+3
0008ca 940c 08cf 	JMP  _0x200D6
0008cc 940e 1ab2 	CALL SUBOPT_0x52
0008ce f418      	BRSH _0x200D5
                 _0x200D6:
                 ; 0001 03FC                             {
                 ; 0001 03FD                             int nv = errangle*27/180 ;
                 ; 0001 03FE                             int verrangle = calcVangle(errangle);
                 ; 0001 03FF                             ctrRobotXoay(nv,verrangle);
0008cf 940e 1aba 	CALL SUBOPT_0x53
                 ;	nv -> Y+2
                 ;	verrangle -> Y+0
                 ; 0001 0400                             delay_ms(1);
                 ; 0001 0401                             }else
0008d1 c002      	RJMP _0x200D8
                 _0x200D5:
                 ; 0001 0402                             {
                 ; 0001 0403                             //1xung = 3.14 * 40/24 =5.22
                 ; 0001 0404                             ctrRobottoi(distance/5.22,15);
0008d2 940e 1ae9 	CALL SUBOPT_0x54
                 ; 0001 0405                             // verranglekisum=0;//RESET I.
                 ; 0001 0406                             }
                 _0x200D8:
                 ; 0001 0407                         }
                 ; 0001 0408                         else //XOAY DUNG HUONG
0008d4 c027      	RJMP _0x200D9
                 _0x200D4:
                 ; 0001 0409                         {
                 ; 0001 040A                             setRobotAngleX=10*cos(rbctrlHomeAngle*M_PI/180);
0008d5 940e 1afa 	CALL SUBOPT_0x55
0008d7 940e 1b10 	CALL SUBOPT_0x56
                 ; 0001 040B                             setRobotAngleY=10*sin(rbctrlHomeAngle*M_PI/180);;
0008d9 940e 1afa 	CALL SUBOPT_0x55
0008db 940e 1b21 	CALL SUBOPT_0x57
                 ; 0001 040C                             calcvitri(robotctrl.x + setRobotAngleX,robotctrl.y + setRobotAngleY);
0008dd 940e 1b32 	CALL SUBOPT_0x58
0008df 940e 1b43 	CALL SUBOPT_0x59
                 ; 0001 040D                             if(errangle>90 || errangle<-90 )
0008e1 940e 1aa2 	CALL SUBOPT_0x50
                +
0008e3 e0e0     +LDI R30 , LOW ( 0x42B40000 )
0008e4 e0f0     +LDI R31 , HIGH ( 0x42B40000 )
0008e5 eb64     +LDI R22 , BYTE3 ( 0x42B40000 )
0008e6 e472     +LDI R23 , BYTE4 ( 0x42B40000 )
                 	__GETD1N 0x42B40000
0008e7 940e 2002 	CALL __CMPF12
0008e9 f019      	BREQ PC+4
0008ea f010      	BRCS PC+3
0008eb 940c 08f6 	JMP  _0x200DB
0008ed 940e 1aa2 	CALL SUBOPT_0x50
                +
0008ef e0e0     +LDI R30 , LOW ( 0xC2B40000 )
0008f0 e0f0     +LDI R31 , HIGH ( 0xC2B40000 )
0008f1 eb64     +LDI R22 , BYTE3 ( 0xC2B40000 )
0008f2 ec72     +LDI R23 , BYTE4 ( 0xC2B40000 )
                 	__GETD1N 0xC2B40000
0008f3 940e 2002 	CALL __CMPF12
0008f5 f418      	BRSH _0x200DA
                 _0x200DB:
                 ; 0001 040E                              {
                 ; 0001 040F 
                 ; 0001 0410                                int nv = errangle*27/180 ;
                 ; 0001 0411                                int verrangle = calcVangle(errangle);
                 ; 0001 0412                                ctrRobotXoay(nv,verrangle);
0008f6 940e 1aba 	CALL SUBOPT_0x53
                 ;	nv -> Y+2
                 ;	verrangle -> Y+0
                 ; 0001 0413                                delay_ms(1);
                 ; 0001 0414                              }else
0008f8 c003      	RJMP _0x200DD
                 _0x200DA:
                 ; 0001 0415                              {
                 ; 0001 0416 
                 ; 0001 0417                                  verranglekisum=0;//RESET I.
0008f9 940e 1b52 	CALL SUBOPT_0x5A
                 ; 0001 0418                                  flaghuongtrue=0;
                 ; 0001 0419                                  flagsethome=1;  // bao da set home khong can set nua
                 ; 0001 041A                                  vMRstop();
0008fb c090      	RJMP _0x20C0009
                 ; 0001 041B                                  vMLstop();
                 ; 0001 041C                                   return 0;
                 ; 0001 041D 
                 ; 0001 041E                              }
                 _0x200DD:
                 ; 0001 041F                         }
                 _0x200D9:
                 ; 0001 0420 
                 ; 0001 0421                     }
                 ; 0001 0422 
                 ; 0001 0423                     if(cmdCtrlRobot==7)  //sethome IS STUCKED
                 _0x200D3:
0008fc e0e7      	LDI  R30,LOW(7)
0008fd e0f0      	LDI  R31,HIGH(7)
0008fe 15ea      	CP   R30,R10
0008ff 05fb      	CPC  R31,R11
000900 f449      	BRNE _0x200DE
                 ; 0001 0424                     {
                 ; 0001 0425 
                 ; 0001 0426                        cntstuckRB++;
000901 940e 1b62 	CALL SUBOPT_0x5B
                 ; 0001 0427                        if(cntstuckRB > 2)
000903 f030      	BRLO _0x200DF
                 ; 0001 0428                        {
                 ; 0001 0429                          runEscStucksethome();
000904 dee7      	RCALL _runEscStucksethome
                 ; 0001 042A                          cntstuckRB=0;
000905 e0e0      	LDI  R30,LOW(0)
000906 93e0 04af 	STS  _cntstuckRB,R30
000908 93e0 04b0 	STS  _cntstuckRB+1,R30
                 ; 0001 042B                        }
                 ; 0001 042C                     }
                 _0x200DF:
                 ; 0001 042D 
                 ; 0001 042E                     if(cmdCtrlRobot==6) //sethome IS //roi vao diem mu (blind spot) , mat vi tri hay huong
                 _0x200DE:
00090a e0e6      	LDI  R30,LOW(6)
00090b e0f0      	LDI  R31,HIGH(6)
00090c 15ea      	CP   R30,R10
00090d 05fb      	CPC  R31,R11
00090e f451      	BRNE _0x200E0
                 ; 0001 042F                     {
                 ; 0001 0430                        LEDBL=1;
00090f 9ade      	SBI  0x1B,6
                 ; 0001 0431                        cntunlookRB++;
000910 940e 1b6f 	CALL SUBOPT_0x5C
                 ; 0001 0432                        if(cntunlookRB > 2)
000912 f030      	BRLO _0x200E3
                 ; 0001 0433                        {
                 ; 0001 0434                          runEscBlindSpotsethome();
000913 df37      	RCALL _runEscBlindSpotsethome
                 ; 0001 0435                          cntunlookRB=0;
000914 e0e0      	LDI  R30,LOW(0)
000915 93e0 04b1 	STS  _cntunlookRB,R30
000917 93e0 04b2 	STS  _cntunlookRB+1,R30
                 ; 0001 0436 
                 ; 0001 0437                        }
                 ; 0001 0438 
                 ; 0001 0439                     }
                 _0x200E3:
                 ; 0001 043A 
                 ; 0001 043B 
                 ; 0001 043C             }
                 _0x200E0:
                 ; 0001 043D 
                 ; 0001 043E             LEDR=!LEDR;
                 _0x200CE:
000919 9bad      	SBIS 0x15,5
00091a c002      	RJMP _0x200E4
00091b 98ad      	CBI  0x15,5
00091c c001      	RJMP _0x200E5
                 _0x200E4:
00091d 9aad      	SBI  0x15,5
                 _0x200E5:
                 ; 0001 043F 
                 ; 0001 0440        }
00091e cf5e      	RJMP _0x200C9
                 _0x200CB:
                 ; 0001 0441        return 0;
00091f c06e      	RJMP _0x20C0008
                 ; 0001 0442 
                 ; 0001 0443 }
                 ;
                 ;int codePenalty()
                 ; 0001 0446 {
                 _codePenalty:
                 ; 0001 0447    // chay den vi tri duoc dat truoc, sau do da banh 1 lan
                 ; 0001 0448       //PHUC SH
                 ; 0001 0449       if(readposition()==1)//co du lieu moi
000920 dcb9      	RCALL _readposition
000921 30e1      	CPI  R30,LOW(0x1)
000922 f011      	BREQ PC+3
000923 940c 0991 	JMP _0x200E6
                 ; 0001 044A       {
                 ; 0001 044B            if(cmdCtrlRobot==8)  //set vi tri penalty robot
000925 940e 1b7c 	CALL SUBOPT_0x5D
000927 f011      	BREQ PC+3
000928 940c 0991 	JMP _0x200E7
                 ; 0001 044C             {
                 ; 0001 044D                 calcvitri(rbctrlPenaltyX,rbctrlPenaltyY);
00092a 91e0 049d 	LDS  R30,_rbctrlPenaltyX
00092c 91f0 049e 	LDS  R31,_rbctrlPenaltyX+1
00092e 9160 049f 	LDS  R22,_rbctrlPenaltyX+2
000930 9170 04a0 	LDS  R23,_rbctrlPenaltyX+3
000932 940e 212e 	CALL __PUTPARD1
000934 91e0 04a1 	LDS  R30,_rbctrlPenaltyY
000936 91f0 04a2 	LDS  R31,_rbctrlPenaltyY+1
000938 9160 04a3 	LDS  R22,_rbctrlPenaltyY+2
00093a 9170 04a4 	LDS  R23,_rbctrlPenaltyY+3
00093c 940e 1a8e 	CALL SUBOPT_0x4D
                 ; 0001 044E                 if(distance>50) //chay den vi tri
00093e 940e 1a92 	CALL SUBOPT_0x4E
                +
000940 e0e0     +LDI R30 , LOW ( 0x42480000 )
000941 e0f0     +LDI R31 , HIGH ( 0x42480000 )
000942 e468     +LDI R22 , BYTE3 ( 0x42480000 )
000943 e472     +LDI R23 , BYTE4 ( 0x42480000 )
                 	__GETD1N 0x42480000
000944 940e 2002 	CALL __CMPF12
000946 f009      	BREQ PC+2
000947 f410      	BRCC PC+3
000948 940c 0959 	JMP  _0x200E8
                 ; 0001 044F                 {
                 ; 0001 0450                     if(errangle>18 || errangle<-18 )
00094a 940e 1b81 	CALL SUBOPT_0x5E
00094c f019      	BREQ PC+4
00094d f010      	BRCS PC+3
00094e 940c 0953 	JMP  _0x200EA
000950 940e 1ab2 	CALL SUBOPT_0x52
000952 f418      	BRSH _0x200E9
                 _0x200EA:
                 ; 0001 0451                     {
                 ; 0001 0452                     int nv = errangle*27/180 ;
                 ; 0001 0453                     int verrangle = calcVangle(errangle);
                 ; 0001 0454                     ctrRobotXoay(nv,verrangle);
000953 940e 1aba 	CALL SUBOPT_0x53
                 ;	nv -> Y+2
                 ;	verrangle -> Y+0
                 ; 0001 0455                     delay_ms(1);
                 ; 0001 0456                     }else
000955 c002      	RJMP _0x200EC
                 _0x200E9:
                 ; 0001 0457                     {
                 ; 0001 0458                     //1xung = 3.14 * 40/24 =5.22
                 ; 0001 0459                     ctrRobottoi(distance/5.22,15);
000956 940e 1ae9 	CALL SUBOPT_0x54
                 ; 0001 045A                     // verranglekisum=0;//RESET I.
                 ; 0001 045B                     }
                 _0x200EC:
                 ; 0001 045C                 }
                 ; 0001 045D                 else //XOAY DUNG HUONG
000958 c038      	RJMP _0x200ED
                 _0x200E8:
                 ; 0001 045E                 {
                 ; 0001 045F                     setRobotAngleX=10*cos(rbctrlPenaltyAngle*M_PI/180);
000959 940e 1b83 	CALL SUBOPT_0x5F
00095b 940e 1b10 	CALL SUBOPT_0x56
                 ; 0001 0460                     setRobotAngleY=10*sin(rbctrlPenaltyAngle*M_PI/180);;
00095d 940e 1b83 	CALL SUBOPT_0x5F
00095f 940e 1b21 	CALL SUBOPT_0x57
                 ; 0001 0461                     calcvitri(robotctrl.x + setRobotAngleX,robotctrl.y + setRobotAngleY);
000961 940e 1b32 	CALL SUBOPT_0x58
000963 940e 1b43 	CALL SUBOPT_0x59
                 ; 0001 0462                     if(errangle>10 || errangle<-10 )
000965 940e 1aa2 	CALL SUBOPT_0x50
000967 940e 1b99 	CALL SUBOPT_0x60
000969 f019      	BREQ PC+4
00096a f010      	BRCS PC+3
00096b 940c 0972 	JMP  _0x200EF
00096d 940e 1aa2 	CALL SUBOPT_0x50
00096f 940e 1b9d 	CALL SUBOPT_0x61
000971 f418      	BRSH _0x200EE
                 _0x200EF:
                 ; 0001 0463                      {
                 ; 0001 0464 
                 ; 0001 0465                        int nv = errangle*27/180 ;
                 ; 0001 0466                        int verrangle = calcVangle(errangle);
                 ; 0001 0467                        ctrRobotXoay(nv,verrangle);
000972 940e 1aba 	CALL SUBOPT_0x53
                 ;	nv -> Y+2
                 ;	verrangle -> Y+0
                 ; 0001 0468                        delay_ms(1);
                 ; 0001 0469                      }else
000974 c01c      	RJMP _0x200F1
                 _0x200EE:
                 ; 0001 046A                      {
                 ; 0001 046B 
                 ; 0001 046C                          verranglekisum=0;//RESET I.
000975 940e 1b52 	CALL SUBOPT_0x5A
                 ; 0001 046D                          flaghuongtrue=0;
                 ; 0001 046E                          flagsethome=1;  // bao da set vitri penalty
                 ; 0001 046F                          while(cmdCtrlRobot!=2) //cho nhan nut start
                 _0x200F2:
000977 940e 1a89 	CALL SUBOPT_0x4C
000979 f011      	BREQ _0x200F4
                 ; 0001 0470                          {
                 ; 0001 0471                             readposition();
00097a dc5f      	RCALL _readposition
                 ; 0001 0472                          }
00097b cffb      	RJMP _0x200F2
                 _0x200F4:
                 ; 0001 0473                          // da banh
                 ; 0001 0474                          vMRtoi(22);
00097c e1e6      	LDI  R30,LOW(22)
00097d 93ea      	ST   -Y,R30
00097e dba6      	RCALL _vMRtoi
                 ; 0001 0475                          vMLtoi(22);
00097f e1e6      	LDI  R30,LOW(22)
000980 93ea      	ST   -Y,R30
000981 db8b      	RCALL _vMLtoi
                 ; 0001 0476                          delay_ms(1000);
000982 940e 18c6 	CALL SUBOPT_0xB
                 ; 0001 0477                          vMRlui(10);
000984 e0ea      	LDI  R30,LOW(10)
000985 93ea      	ST   -Y,R30
000986 dba2      	RCALL _vMRlui
                 ; 0001 0478                          vMLlui(10);
000987 e0ea      	LDI  R30,LOW(10)
000988 93ea      	ST   -Y,R30
000989 db89      	RCALL _vMLlui
                 ; 0001 0479                          delay_ms(1000);
00098a 940e 18c6 	CALL SUBOPT_0xB
                 ; 0001 047A                          vMRstop();
                 _0x20C0009:
00098c dba7      	RCALL _vMRstop
                 ; 0001 047B                          vMLstop();
00098d db8b      	RCALL _vMLstop
                 ; 0001 047C                           return 0;
                 _0x20C0008:
00098e e0e0      	LDI  R30,LOW(0)
00098f e0f0      	LDI  R31,HIGH(0)
000990 9508      	RET
                 ; 0001 047D 
                 ; 0001 047E                      }
                 _0x200F1:
                 ; 0001 047F                 }
                 _0x200ED:
                 ; 0001 0480 
                 ; 0001 0481             }
                 ; 0001 0482       }
                 _0x200E7:
                 ; 0001 0483 
                 ; 0001 0484 }
                 _0x200E6:
000991 9508      	RET
                 ;void settoadoHomRB()
                 ; 0001 0486 {
                 _settoadoHomRB:
                 ; 0001 0487     switch(ROBOT_ID)
000992 e0e4      	LDI  R30,LOW(4)
                 ; 0001 0488     {
                 ; 0001 0489     //PHUC
                 ; 0001 048A        case 1:
000993 30e1      	CPI  R30,LOW(0x1)
000994 f469      	BRNE _0x200F8
                 ; 0001 048B 
                 ; 0001 048C 
                 ; 0001 048D             rbctrlPenaltyX = 0;
000995 940e 1ba4 	CALL SUBOPT_0x62
                 ; 0001 048E             rbctrlPenaltyY = 0;
                 ; 0001 048F 
                 ; 0001 0490             if(SAN_ID==1)
                 ; 0001 0491             {
                 ; 0001 0492               rbctrlPenaltyAngle = 179;
                 ; 0001 0493               rbctrlHomeAngle = 179 ;
                 ; 0001 0494               rbctrlHomeX = 269.7 ;
000997 940e 1bca 	CALL SUBOPT_0x63
                 ; 0001 0495               rbctrlHomeY = 1.7  ;
                 ; 0001 0496               setRobotXmin=80;
                 ; 0001 0497               setRobotXmax=260;
                 ; 0001 0498             }
                 ; 0001 0499             else
                 ; 0001 049A             {
                 ; 0001 049B               rbctrlPenaltyAngle = -15;
                 ; 0001 049C               rbctrlHomeAngle = -15 ;
                 ; 0001 049D               rbctrlHomeX =-226.1 ;
                 ; 0001 049E               rbctrlHomeY = 1.6  ;
                 ; 0001 049F               setRobotXmin=-260;
                 ; 0001 04A0               setRobotXmax=-80;
                 _0x202D4:
000999 93e0 0485 	STS  _setRobotXmax,R30
00099b 93f0 0486 	STS  _setRobotXmax+1,R31
00099d 9360 0487 	STS  _setRobotXmax+2,R22
00099f 9370 0488 	STS  _setRobotXmax+3,R23
                 ; 0001 04A1             }
                 ; 0001 04A2        break;
0009a1 c079      	RJMP _0x200F7
                 ; 0001 04A3        case 2:
                 _0x200F8:
0009a2 30e2      	CPI  R30,LOW(0x2)
0009a3 f489      	BRNE _0x200FB
                 ; 0001 04A4 
                 ; 0001 04A5 
                 ; 0001 04A6             rbctrlPenaltyX=0;
0009a4 940e 1ba4 	CALL SUBOPT_0x62
                 ; 0001 04A7             rbctrlPenaltyY=0;
                 ; 0001 04A8 
                 ; 0001 04A9             if(SAN_ID==1)
                 ; 0001 04AA             {
                 ; 0001 04AB               rbctrlPenaltyAngle = 179;
                 ; 0001 04AC               rbctrlHomeAngle = 179 ;
                 ; 0001 04AD               rbctrlHomeX =66.0 ;
0009a6 940e 1bf3 	CALL SUBOPT_0x64
                 ; 0001 04AE               rbctrlHomeY = 79.4  ;
                 ; 0001 04AF               setRobotXmin=-270;
                 ; 0001 04B0               setRobotXmax=270;
                 ; 0001 04B1             }
                 ; 0001 04B2             else
                 ; 0001 04B3             {
                 ; 0001 04B4               rbctrlPenaltyAngle = -15;
                 ; 0001 04B5               rbctrlHomeAngle = -15  ;
                 ; 0001 04B6               rbctrlHomeX =-44.3 ;
                 ; 0001 04B7               rbctrlHomeY = 82.7  ;
                 _0x202D5:
0009a8 93e0 0499 	STS  _rbctrlHomeY,R30
0009aa 93f0 049a 	STS  _rbctrlHomeY+1,R31
0009ac 9360 049b 	STS  _rbctrlHomeY+2,R22
0009ae 9370 049c 	STS  _rbctrlHomeY+3,R23
                 ; 0001 04B8               setRobotXmin=-270;
0009b0 940e 1c04 	CALL SUBOPT_0x65
                 ; 0001 04B9               setRobotXmax=270;
0009b2 940e 1c11 	CALL SUBOPT_0x66
                 ; 0001 04BA             }
                 ; 0001 04BB        break;
0009b4 c066      	RJMP _0x200F7
                 ; 0001 04BC        case 3:
                 _0x200FB:
0009b5 30e3      	CPI  R30,LOW(0x3)
0009b6 f581      	BRNE _0x200FE
                 ; 0001 04BD 
                 ; 0001 04BE 
                 ; 0001 04BF             rbctrlPenaltyX = 0;
0009b7 e0e0      	LDI  R30,LOW(0)
0009b8 93e0 049d 	STS  _rbctrlPenaltyX,R30
0009ba 93e0 049e 	STS  _rbctrlPenaltyX+1,R30
0009bc 93e0 049f 	STS  _rbctrlPenaltyX+2,R30
0009be 93e0 04a0 	STS  _rbctrlPenaltyX+3,R30
                 ; 0001 04C0             rbctrlPenaltyY = 0;
0009c0 93e0 04a1 	STS  _rbctrlPenaltyY,R30
0009c2 93e0 04a2 	STS  _rbctrlPenaltyY+1,R30
0009c4 93e0 04a3 	STS  _rbctrlPenaltyY+2,R30
0009c6 93e0 04a4 	STS  _rbctrlPenaltyY+3,R30
                 ; 0001 04C1             rbctrlPenaltyAngle = -15;
                +
0009c8 e0e0     +LDI R30 , LOW ( 0xC1700000 )
0009c9 e0f0     +LDI R31 , HIGH ( 0xC1700000 )
0009ca e760     +LDI R22 , BYTE3 ( 0xC1700000 )
0009cb ec71     +LDI R23 , BYTE4 ( 0xC1700000 )
                 	__GETD1N 0xC1700000
0009cc 940e 1c1e 	CALL SUBOPT_0x67
                 ; 0001 04C2             if(SAN_ID==1)
                 ; 0001 04C3             {
                 ; 0001 04C4               rbctrlPenaltyAngle = 179;
0009ce 940e 1c1e 	CALL SUBOPT_0x67
                 ; 0001 04C5               rbctrlHomeAngle = 179 ;
0009d0 93e0 04a9 	STS  _rbctrlHomeAngle,R30
0009d2 93f0 04aa 	STS  _rbctrlHomeAngle+1,R31
0009d4 9360 04ab 	STS  _rbctrlHomeAngle+2,R22
0009d6 9370 04ac 	STS  _rbctrlHomeAngle+3,R23
                 ; 0001 04C6               rbctrlHomeX =54.1 ;
0009d8 940e 1c2b 	CALL SUBOPT_0x68
                 ; 0001 04C7               rbctrlHomeY = -99.9  ;
                 ; 0001 04C8               setRobotXmin=-270;
                 ; 0001 04C9               setRobotXmax=20;
                +
0009da e0e0     +LDI R30 , LOW ( 0x41A00000 )
0009db e0f0     +LDI R31 , HIGH ( 0x41A00000 )
0009dc ea60     +LDI R22 , BYTE3 ( 0x41A00000 )
0009dd e471     +LDI R23 , BYTE4 ( 0x41A00000 )
                 	__GETD1N 0x41A00000
                 ; 0001 04CA             }
                 ; 0001 04CB             else
                 ; 0001 04CC             {
                 ; 0001 04CD               rbctrlPenaltyAngle = -15;
                 ; 0001 04CE               rbctrlHomeAngle = -15  ;
                 ; 0001 04CF               rbctrlHomeX =-53.5 ;
                 ; 0001 04D0               rbctrlHomeY =  -93.8 ;
                 ; 0001 04D1               setRobotXmin=-20;
                 ; 0001 04D2               setRobotXmax=270;
                 _0x202D6:
0009de 93e0 0485 	STS  _setRobotXmax,R30
0009e0 93f0 0486 	STS  _setRobotXmax+1,R31
0009e2 9360 0487 	STS  _setRobotXmax+2,R22
0009e4 9370 0488 	STS  _setRobotXmax+3,R23
                 ; 0001 04D3             }
                 ; 0001 04D4        break;
0009e6 c034      	RJMP _0x200F7
                 ; 0001 04D5        case 4:
                 _0x200FE:
0009e7 30e4      	CPI  R30,LOW(0x4)
0009e8 f469      	BRNE _0x20101
                 ; 0001 04D6 
                 ; 0001 04D7             rbctrlPenaltyX=0;
0009e9 940e 1ba4 	CALL SUBOPT_0x62
                 ; 0001 04D8             rbctrlPenaltyY=0;
                 ; 0001 04D9 
                 ; 0001 04DA              if(SAN_ID==1)
                 ; 0001 04DB             {
                 ; 0001 04DC               rbctrlPenaltyAngle = 179;
                 ; 0001 04DD               rbctrlHomeAngle = 179 ;
                 ; 0001 04DE               rbctrlHomeX = 269.7 ;
0009eb 940e 1bca 	CALL SUBOPT_0x63
                 ; 0001 04DF               rbctrlHomeY = 1.7  ;
                 ; 0001 04E0               setRobotXmin=80;
                 ; 0001 04E1               setRobotXmax=260;
                 ; 0001 04E2             }
                 ; 0001 04E3             else
                 ; 0001 04E4             {
                 ; 0001 04E5               rbctrlPenaltyAngle = -15;
                 ; 0001 04E6               rbctrlHomeAngle = -15  ;
                 ; 0001 04E7               rbctrlHomeX =-226.1 ;
                 ; 0001 04E8               rbctrlHomeY = 1.6  ;
                 ; 0001 04E9               setRobotXmin=-260;
                 ; 0001 04EA               setRobotXmax=-80;
                 _0x202D7:
0009ed 93e0 0485 	STS  _setRobotXmax,R30
0009ef 93f0 0486 	STS  _setRobotXmax+1,R31
0009f1 9360 0487 	STS  _setRobotXmax+2,R22
0009f3 9370 0488 	STS  _setRobotXmax+3,R23
                 ; 0001 04EB             }
                 ; 0001 04EC        break;
0009f5 c025      	RJMP _0x200F7
                 ; 0001 04ED        case 5:
                 _0x20101:
0009f6 30e5      	CPI  R30,LOW(0x5)
0009f7 f489      	BRNE _0x20104
                 ; 0001 04EE 
                 ; 0001 04EF             rbctrlPenaltyX = 0;
0009f8 940e 1ba4 	CALL SUBOPT_0x62
                 ; 0001 04F0             rbctrlPenaltyY = 0;
                 ; 0001 04F1              if(SAN_ID==1)
                 ; 0001 04F2             {
                 ; 0001 04F3                 rbctrlPenaltyAngle = 179;
                 ; 0001 04F4                rbctrlHomeAngle = 179 ;
                 ; 0001 04F5                rbctrlHomeX =66.0 ;
0009fa 940e 1bf3 	CALL SUBOPT_0x64
                 ; 0001 04F6               rbctrlHomeY = 79.4  ;
                 ; 0001 04F7               setRobotXmin=-270;
                 ; 0001 04F8               setRobotXmax=270;
                 ; 0001 04F9             }
                 ; 0001 04FA             else
                 ; 0001 04FB             {
                 ; 0001 04FC               rbctrlPenaltyAngle = -15;
                 ; 0001 04FD               rbctrlHomeAngle = -15  ;
                 ; 0001 04FE               rbctrlHomeX =-44.3 ;
                 ; 0001 04FF               rbctrlHomeY = 82.7  ;
                 _0x202D8:
0009fc 93e0 0499 	STS  _rbctrlHomeY,R30
0009fe 93f0 049a 	STS  _rbctrlHomeY+1,R31
000a00 9360 049b 	STS  _rbctrlHomeY+2,R22
000a02 9370 049c 	STS  _rbctrlHomeY+3,R23
                 ; 0001 0500               setRobotXmin=-270;
000a04 940e 1c04 	CALL SUBOPT_0x65
                 ; 0001 0501               setRobotXmax=270;
000a06 940e 1c11 	CALL SUBOPT_0x66
                 ; 0001 0502             }
                 ; 0001 0503        break;
000a08 c012      	RJMP _0x200F7
                 ; 0001 0504        case 6:
                 _0x20104:
000a09 30e6      	CPI  R30,LOW(0x6)
000a0a f481      	BRNE _0x200F7
                 ; 0001 0505 
                 ; 0001 0506 
                 ; 0001 0507             rbctrlPenaltyX = 0;
000a0b 940e 1ba4 	CALL SUBOPT_0x62
                 ; 0001 0508             rbctrlPenaltyY = 0;
                 ; 0001 0509             if(SAN_ID==1)
                 ; 0001 050A             {
                 ; 0001 050B                rbctrlPenaltyAngle = 179;
                 ; 0001 050C               rbctrlHomeAngle = 179 ;
                 ; 0001 050D               rbctrlHomeX =54.1 ;
000a0d 940e 1c2b 	CALL SUBOPT_0x68
                 ; 0001 050E               rbctrlHomeY = -99.9  ;
                 ; 0001 050F               setRobotXmin=-270;
                 ; 0001 0510               setRobotXmax=20;
                +
000a0f e0e0     +LDI R30 , LOW ( 0x41A00000 )
000a10 e0f0     +LDI R31 , HIGH ( 0x41A00000 )
000a11 ea60     +LDI R22 , BYTE3 ( 0x41A00000 )
000a12 e471     +LDI R23 , BYTE4 ( 0x41A00000 )
                 	__GETD1N 0x41A00000
                 ; 0001 0511             }
                 ; 0001 0512             else
                 ; 0001 0513             {
                 ; 0001 0514               rbctrlPenaltyAngle = -15;
                 ; 0001 0515               rbctrlHomeAngle = -15  ;
                 ; 0001 0516               rbctrlHomeX =-53.5 ;
                 ; 0001 0517               rbctrlHomeY =  -93.8 ;
                 ; 0001 0518               setRobotXmin=-20;
                 ; 0001 0519               setRobotXmax=270;
                 _0x202D9:
000a13 93e0 0485 	STS  _setRobotXmax,R30
000a15 93f0 0486 	STS  _setRobotXmax+1,R31
000a17 9360 0487 	STS  _setRobotXmax+2,R22
000a19 9370 0488 	STS  _setRobotXmax+3,R23
                 ; 0001 051A             }
                 ; 0001 051B        break;
                 ; 0001 051C 
                 ; 0001 051D 
                 ; 0001 051E     }
                 _0x200F7:
                 ; 0001 051F }
000a1b 9508      	RET
                 ;//=======================================================
                 ;// Tinh luc theo goc quay de dieu khien robot
                 ;int calcVangle(int angle)
                 ; 0001 0523 {
                 _calcVangle:
                 ; 0001 0524     int verrangle=0;
                 ; 0001 0525     //tinh thanh phan I
                 ; 0001 0526     verranglekisum = verranglekisum + angle/20;
000a1c 931a      	ST   -Y,R17
000a1d 930a      	ST   -Y,R16
                 ;	angle -> Y+2
                 ;	verrangle -> R16,R17
                +
000a1e e000     +LDI R16 , LOW ( 0 )
000a1f e010     +LDI R17 , HIGH ( 0 )
                 	__GETWRN 16,17,0
000a20 81aa      	LDD  R26,Y+2
000a21 81bb      	LDD  R27,Y+2+1
000a22 e1e4      	LDI  R30,LOW(20)
000a23 e0f0      	LDI  R31,HIGH(20)
000a24 940e 20c3 	CALL __DIVW21
000a26 940e 1c44 	CALL SUBOPT_0x69
000a28 0fea      	ADD  R30,R26
000a29 1ffb      	ADC  R31,R27
000a2a 940e 1c49 	CALL SUBOPT_0x6A
                 ; 0001 0527     if(verranglekisum>15)verranglekisum = 15;
000a2c 940e 1c44 	CALL SUBOPT_0x69
000a2e 9750      	SBIW R26,16
000a2f f024      	BRLT _0x2010A
000a30 e0ef      	LDI  R30,LOW(15)
000a31 e0f0      	LDI  R31,HIGH(15)
000a32 940e 1c49 	CALL SUBOPT_0x6A
                 ; 0001 0528     if(verranglekisum<-15)verranglekisum = -15;
                 _0x2010A:
000a34 940e 1c44 	CALL SUBOPT_0x69
000a36 3fa1      	CPI  R26,LOW(0xFFF1)
000a37 efef      	LDI  R30,HIGH(0xFFF1)
000a38 07be      	CPC  R27,R30
000a39 f424      	BRGE _0x2010B
000a3a efe1      	LDI  R30,LOW(65521)
000a3b efff      	LDI  R31,HIGH(65521)
000a3c 940e 1c49 	CALL SUBOPT_0x6A
                 ; 0001 0529     //tinh thanh phan dieu khien
                 ; 0001 052A     verrangle = 10 + angle/12 + verranglekisum ;
                 _0x2010B:
000a3e 81aa      	LDD  R26,Y+2
000a3f 81bb      	LDD  R27,Y+2+1
000a40 e0ec      	LDI  R30,LOW(12)
000a41 e0f0      	LDI  R31,HIGH(12)
000a42 940e 20c3 	CALL __DIVW21
000a44 963a      	ADIW R30,10
000a45 940e 1c44 	CALL SUBOPT_0x69
000a47 0fea      	ADD  R30,R26
000a48 1ffb      	ADC  R31,R27
000a49 018f      	MOVW R16,R30
                 ; 0001 052B     //gioi han bao hoa
                 ; 0001 052C     if(verrangle<0) verrangle=-verrangle;//lay tri tuyet doi cua van toc v dieu khien
000a4a 2311      	TST  R17
000a4b f422      	BRPL _0x2010C
000a4c 01f8      	MOVW R30,R16
000a4d 940e 2062 	CALL __ANEGW1
000a4f 018f      	MOVW R16,R30
                 ; 0001 052D     if(verrangle>20) verrangle = 20;
                 _0x2010C:
                +
000a50 3105     +CPI R16 , LOW ( 21 )
000a51 e0e0     +LDI R30 , HIGH ( 21 )
000a52 071e     +CPC R17 , R30
                 	__CPWRN 16,17,21
000a53 f014      	BRLT _0x2010D
                +
000a54 e104     +LDI R16 , LOW ( 20 )
000a55 e010     +LDI R17 , HIGH ( 20 )
                 	__GETWRN 16,17,20
                 ; 0001 052E     if(verrangle<8) verrangle = 8;
                 _0x2010D:
                +
000a56 3008     +CPI R16 , LOW ( 8 )
000a57 e0e0     +LDI R30 , HIGH ( 8 )
000a58 071e     +CPC R17 , R30
                 	__CPWRN 16,17,8
000a59 f414      	BRGE _0x2010E
                +
000a5a e008     +LDI R16 , LOW ( 8 )
000a5b e010     +LDI R17 , HIGH ( 8 )
                 	__GETWRN 16,17,8
                 ; 0001 052F     return  verrangle;
                 _0x2010E:
000a5c 01f8      	MOVW R30,R16
000a5d 8119      	LDD  R17,Y+1
000a5e 8108      	LDD  R16,Y+0
000a5f c190      	RJMP _0x20C0007
                 ; 0001 0530 }
                 ;//ctrl robot
                 ;void ctrrobot()
                 ; 0001 0533 {
                 _ctrrobot:
                 ; 0001 0534     if(readposition()==1)//co du lieu moi
000a60 db79      	RCALL _readposition
000a61 30e1      	CPI  R30,LOW(0x1)
000a62 f011      	BREQ PC+3
000a63 940c 0bbf 	JMP _0x2010F
                 ; 0001 0535     {
                 ; 0001 0536 //          hc(3,40);wn16s(cmdCtrlRobot);
                 ; 0001 0537 //        hc(4,40);wn16s(idRobot);
                 ; 0001 0538          //-------------------------------------------------
                 ; 0001 0539         if(cmdCtrlRobot==8)      // dung ma lenh stop chuong trinh
000a65 940e 1b7c 	CALL SUBOPT_0x5D
000a67 f439      	BRNE _0x20110
                 ; 0001 053A         {
                 ; 0001 053B             flagsethome=0; //cho phep sethome
000a68 940e 1a83 	CALL SUBOPT_0x4B
                 ; 0001 053C             while(cmdCtrlRobot==8)
                 _0x20111:
000a6a 940e 1b7c 	CALL SUBOPT_0x5D
000a6c f411      	BRNE _0x20113
                 ; 0001 053D             {
                 ; 0001 053E               codePenalty();
000a6d deb2      	RCALL _codePenalty
                 ; 0001 053F             }
000a6e cffb      	RJMP _0x20111
                 _0x20113:
                 ; 0001 0540         }
                 ; 0001 0541 
                 ; 0001 0542         if(cmdCtrlRobot==1)      // dung ma lenh stop chuong trinh
                 _0x20110:
000a6f 940e 1a7e 	CALL SUBOPT_0x4A
000a71 f439      	BRNE _0x20114
                 ; 0001 0543         {
                 ; 0001 0544             flagsethome=0; //cho phep sethome
000a72 940e 1a83 	CALL SUBOPT_0x4B
                 ; 0001 0545             while(cmdCtrlRobot==1)
                 _0x20115:
000a74 940e 1a7e 	CALL SUBOPT_0x4A
000a76 f411      	BRNE _0x20117
                 ; 0001 0546             {
                 ; 0001 0547               readposition();
000a77 db62      	RCALL _readposition
                 ; 0001 0548             }
000a78 cffb      	RJMP _0x20115
                 _0x20117:
                 ; 0001 0549         }
                 ; 0001 054A 
                 ; 0001 054B         if(cmdCtrlRobot==5)  //sethome robot
                 _0x20114:
000a79 e0e5      	LDI  R30,LOW(5)
000a7a e0f0      	LDI  R31,HIGH(5)
000a7b 15ea      	CP   R30,R10
000a7c 05fb      	CPC  R31,R11
000a7d f4b9      	BRNE _0x20118
                 ; 0001 054C         {
                 ; 0001 054D 
                 ; 0001 054E            cntsethomeRB++;
000a7e eaad      	LDI  R26,LOW(_cntsethomeRB)
000a7f e0b4      	LDI  R27,HIGH(_cntsethomeRB)
000a80 940e 1c4e 	CALL SUBOPT_0x6B
                 ; 0001 054F            if(cntsethomeRB > 2)
000a82 91a0 04ad 	LDS  R26,_cntsethomeRB
000a84 91b0 04ae 	LDS  R27,_cntsethomeRB+1
000a86 9713      	SBIW R26,3
000a87 f068      	BRLO _0x20119
                 ; 0001 0550            {
                 ; 0001 0551              LEDBR=1;
000a88 9adf      	SBI  0x1B,7
                 ; 0001 0552              if (flagsethome == 0)sethomeRB();
000a89 91e0 04b3 	LDS  R30,_flagsethome
000a8b 91f0 04b4 	LDS  R31,_flagsethome+1
000a8d 9730      	SBIW R30,0
000a8e f409      	BRNE _0x2011C
000a8f dded      	RCALL _sethomeRB
                 ; 0001 0553              cntsethomeRB=0;
                 _0x2011C:
000a90 e0e0      	LDI  R30,LOW(0)
000a91 93e0 04ad 	STS  _cntsethomeRB,R30
000a93 93e0 04ae 	STS  _cntsethomeRB+1,R30
                 ; 0001 0554            }
                 ; 0001 0555 
                 ; 0001 0556         }
                 _0x20119:
                 ; 0001 0557 
                 ; 0001 0558         if(cmdCtrlRobot==4)  //sethome robot
                 _0x20118:
000a95 940e 19e1 	CALL SUBOPT_0x37
000a97 f459      	BRNE _0x2011D
                 ; 0001 0559         {
                 ; 0001 055A            flagsethome=0; //cho phep sethome
000a98 940e 1a83 	CALL SUBOPT_0x4B
                 ; 0001 055B            cntstuckRB++;
000a9a 940e 1b62 	CALL SUBOPT_0x5B
                 ; 0001 055C            if(cntstuckRB > 2)
000a9c f030      	BRLO _0x2011E
                 ; 0001 055D            {
                 ; 0001 055E              runEscStuck();
000a9d dd1d      	RCALL _runEscStuck
                 ; 0001 055F              cntstuckRB=0;
000a9e e0e0      	LDI  R30,LOW(0)
000a9f 93e0 04af 	STS  _cntstuckRB,R30
000aa1 93e0 04b0 	STS  _cntstuckRB+1,R30
                 ; 0001 0560            }
                 ; 0001 0561         }
                 _0x2011E:
                 ; 0001 0562 
                 ; 0001 0563         if(cmdCtrlRobot==3)  //roi vao diem mu (blind spot) , mat vi tri hay huong
                 _0x2011D:
000aa3 940e 1a54 	CALL SUBOPT_0x45
000aa5 f459      	BRNE _0x2011F
                 ; 0001 0564         {
                 ; 0001 0565            flagsethome=0; //cho phep sethome
000aa6 940e 1a83 	CALL SUBOPT_0x4B
                 ; 0001 0566            cntunlookRB++;
000aa8 940e 1b6f 	CALL SUBOPT_0x5C
                 ; 0001 0567            if(cntunlookRB > 2)
000aaa f030      	BRLO _0x20120
                 ; 0001 0568            {
                 ; 0001 0569              runEscBlindSpot();
000aab dd6f      	RCALL _runEscBlindSpot
                 ; 0001 056A              cntunlookRB=0;
000aac e0e0      	LDI  R30,LOW(0)
000aad 93e0 04b1 	STS  _cntunlookRB,R30
000aaf 93e0 04b2 	STS  _cntunlookRB+1,R30
                 ; 0001 056B            }
                 ; 0001 056C 
                 ; 0001 056D         }
                 _0x20120:
                 ; 0001 056E 
                 ; 0001 056F 
                 ; 0001 0570         //------------------------------------------------
                 ; 0001 0571         if(cmdCtrlRobot==2) {// run chuong trinh
                 _0x2011F:
000ab1 940e 1a89 	CALL SUBOPT_0x4C
000ab3 f011      	BREQ PC+3
000ab4 940c 0bbf 	JMP _0x20121
                 ; 0001 0572             flagsethome=0; //cho phep sethome
000ab6 940e 1a83 	CALL SUBOPT_0x4B
                 ; 0001 0573             switch(flagtask)
000ab8 91e0 04f6 	LDS  R30,_flagtask
000aba 91f0 04f7 	LDS  R31,_flagtask+1
                 ; 0001 0574             {
                 ; 0001 0575               // chay den vi tri duoc set boi nguoi dieu khien
                 ; 0001 0576               case 0:
000abc 9730      	SBIW R30,0
000abd f011      	BREQ PC+3
000abe 940c 0b07 	JMP _0x20125
                 ; 0001 0577                      if(setRobotX < setRobotXmin)   setRobotX =  setRobotXmin;
000ac0 940e 1c54 	CALL SUBOPT_0x6C
000ac2 940e 1c5d 	CALL SUBOPT_0x6D
000ac4 f420      	BRSH _0x20126
000ac5 940e 1c54 	CALL SUBOPT_0x6C
000ac7 940e 1c68 	CALL SUBOPT_0x6E
                 ; 0001 0578                      if(setRobotX >setRobotXmax)    setRobotX =  setRobotXmax;
                 _0x20126:
000ac9 940e 1c71 	CALL SUBOPT_0x6F
000acb 940e 1c5d 	CALL SUBOPT_0x6D
000acd f009      	BREQ PC+2
000ace f410      	BRCC PC+3
000acf 940c 0ad5 	JMP  _0x20127
000ad1 940e 1c71 	CALL SUBOPT_0x6F
000ad3 940e 1c68 	CALL SUBOPT_0x6E
                 ; 0001 0579                      calcvitri(setRobotX,setRobotY);
                 _0x20127:
000ad5 91e0 0479 	LDS  R30,_setRobotX
000ad7 91f0 047a 	LDS  R31,_setRobotX+1
000ad9 9160 047b 	LDS  R22,_setRobotX+2
000adb 9170 047c 	LDS  R23,_setRobotX+3
000add 940e 212e 	CALL __PUTPARD1
000adf 91e0 047d 	LDS  R30,_setRobotY
000ae1 91f0 047e 	LDS  R31,_setRobotY+1
000ae3 9160 047f 	LDS  R22,_setRobotY+2
000ae5 9170 0480 	LDS  R23,_setRobotY+3
000ae7 940e 1a8e 	CALL SUBOPT_0x4D
                 ; 0001 057A                      if(distance>80) //chay den vi tri
000ae9 940e 1a92 	CALL SUBOPT_0x4E
                +
000aeb e0e0     +LDI R30 , LOW ( 0x42A00000 )
000aec e0f0     +LDI R31 , HIGH ( 0x42A00000 )
000aed ea60     +LDI R22 , BYTE3 ( 0x42A00000 )
000aee e472     +LDI R23 , BYTE4 ( 0x42A00000 )
                 	__GETD1N 0x42A00000
000aef 940e 2002 	CALL __CMPF12
000af1 f009      	BREQ PC+2
000af2 f410      	BRCC PC+3
000af3 940c 0b04 	JMP  _0x20128
                 ; 0001 057B                      {
                 ; 0001 057C                          if(errangle>18 || errangle<-18 )
000af5 940e 1b81 	CALL SUBOPT_0x5E
000af7 f019      	BREQ PC+4
000af8 f010      	BRCS PC+3
000af9 940c 0afe 	JMP  _0x2012A
000afb 940e 1ab2 	CALL SUBOPT_0x52
000afd f418      	BRSH _0x20129
                 _0x2012A:
                 ; 0001 057D                          {
                 ; 0001 057E                            int nv = errangle*27/180 ;
                 ; 0001 057F                            int verrangle = calcVangle(errangle);
                 ; 0001 0580                            ctrRobotXoay(nv,verrangle);
000afe 940e 1aba 	CALL SUBOPT_0x53
                 ;	nv -> Y+2
                 ;	verrangle -> Y+0
                 ; 0001 0581                            delay_ms(1);
                 ; 0001 0582                          }else
000b00 c002      	RJMP _0x2012C
                 _0x20129:
                 ; 0001 0583                          {
                 ; 0001 0584                            //1xung = 3.14 * 40/24 =5.22
                 ; 0001 0585                            ctrRobottoi(distance/5.22,15);
000b01 940e 1ae9 	CALL SUBOPT_0x54
                 ; 0001 0586                           // verranglekisum=0;//RESET I.
                 ; 0001 0587                          }
                 _0x2012C:
                 ; 0001 0588                      }
                 ; 0001 0589                      else
000b03 c002      	RJMP _0x2012D
                 _0x20128:
                 ; 0001 058A                      {
                 ; 0001 058B                          flagtask=10;
000b04 940e 1c7a 	CALL SUBOPT_0x70
                 ; 0001 058C                      }
                 _0x2012D:
                 ; 0001 058D                      break;
000b06 c0b8      	RJMP _0x20124
                 ; 0001 058E               // quay dung huong duoc set boi nguoi dieu khien
                 ; 0001 058F               case 1:
                 _0x20125:
000b07 30e1      	CPI  R30,LOW(0x1)
000b08 e0a0      	LDI  R26,HIGH(0x1)
000b09 07fa      	CPC  R31,R26
000b0a f521      	BRNE _0x2012E
                 ; 0001 0590 
                 ; 0001 0591                     calcvitri(robotctrl.x + setRobotAngleX,robotctrl.y + setRobotAngleY);
000b0b 940e 1964 	CALL SUBOPT_0x21
000b0d 940e 1b32 	CALL SUBOPT_0x58
000b0f 940e 1b43 	CALL SUBOPT_0x59
                 ; 0001 0592                     if(errangle>18 || errangle<-18 )
000b11 940e 1b81 	CALL SUBOPT_0x5E
000b13 f019      	BREQ PC+4
000b14 f010      	BRCS PC+3
000b15 940c 0b1a 	JMP  _0x20130
000b17 940e 1ab2 	CALL SUBOPT_0x52
000b19 f418      	BRSH _0x2012F
                 _0x20130:
                 ; 0001 0593                      {
                 ; 0001 0594 
                 ; 0001 0595                        int nv = errangle*27/180 ;
                 ; 0001 0596                        int verrangle = calcVangle(errangle);
                 ; 0001 0597                        ctrRobotXoay(nv,verrangle);
000b1a 940e 1aba 	CALL SUBOPT_0x53
                 ;	nv -> Y+2
                 ;	verrangle -> Y+0
                 ; 0001 0598                       // ctrRobotXoay(nv,10);
                 ; 0001 0599                        delay_ms(1);
                 ; 0001 059A                      }else
000b1c c011      	RJMP _0x20132
                 _0x2012F:
                 ; 0001 059B                      {
                 ; 0001 059C                        flaghuongtrue++;
000b1d efaa      	LDI  R26,LOW(_flaghuongtrue)
000b1e e0b4      	LDI  R27,HIGH(_flaghuongtrue)
000b1f 940e 1c4e 	CALL SUBOPT_0x6B
                 ; 0001 059D                        if(flaghuongtrue>3)
000b21 91a0 04fa 	LDS  R26,_flaghuongtrue
000b23 91b0 04fb 	LDS  R27,_flaghuongtrue+1
000b25 9714      	SBIW R26,4
000b26 f038      	BRLO _0x20133
                 ; 0001 059E                        {
                 ; 0001 059F                         //verranglekisum=0;//RESET I.
                 ; 0001 05A0                          flaghuongtrue=0;
000b27 e0e0      	LDI  R30,LOW(0)
000b28 93e0 04fa 	STS  _flaghuongtrue,R30
000b2a 93e0 04fb 	STS  _flaghuongtrue+1,R30
                 ; 0001 05A1                          flagtask=10;
000b2c 940e 1c7a 	CALL SUBOPT_0x70
                 ; 0001 05A2                        }
                 ; 0001 05A3 
                 ; 0001 05A4                      }
                 _0x20133:
                 _0x20132:
                 ; 0001 05A5                     break;
000b2e c090      	RJMP _0x20124
                 ; 0001 05A6               // chay den vi tri bong
                 ; 0001 05A7               case 2:
                 _0x2012E:
000b2f 30e2      	CPI  R30,LOW(0x2)
000b30 e0a0      	LDI  R26,HIGH(0x2)
000b31 07fa      	CPC  R31,R26
000b32 f011      	BREQ PC+3
000b33 940c 0b7a 	JMP _0x20134
                 ; 0001 05A8 
                 ; 0001 05A9                     //PHUC test    rb1 ,s1
                 ; 0001 05AA                     if(robotctrl.ball.x < setRobotXmin)   robotctrl.ball.x =  setRobotXmin;
                +
000b35 91a0 0449+LDS R26 , _robotctrl + ( 10 )
000b37 91b0 044a+LDS R27 , _robotctrl + ( 10 ) + 1
                 	__GETW2MN _robotctrl,10
000b39 940e 1c54 	CALL SUBOPT_0x6C
000b3b 940e 1c81 	CALL SUBOPT_0x71
000b3d f440      	BRSH _0x20135
                +
000b3e e4a9     +LDI R26 , LOW ( _robotctrl + ( 10 ) )
000b3f e0b4     +LDI R27 , HIGH ( _robotctrl + ( 10 ) )
                 	__POINTW2MN _robotctrl,10
000b40 940e 1c54 	CALL SUBOPT_0x6C
000b42 940e 1eae 	CALL __CFD1
000b44 93ed      	ST   X+,R30
000b45 93fc      	ST   X,R31
                 ; 0001 05AB                     if(robotctrl.ball.x >setRobotXmax)    robotctrl.ball.x =  setRobotXmax;
                 _0x20135:
                +
000b46 91a0 0449+LDS R26 , _robotctrl + ( 10 )
000b48 91b0 044a+LDS R27 , _robotctrl + ( 10 ) + 1
                 	__GETW2MN _robotctrl,10
000b4a 940e 1c71 	CALL SUBOPT_0x6F
000b4c 940e 1c81 	CALL SUBOPT_0x71
000b4e f009      	BREQ PC+2
000b4f f410      	BRCC PC+3
000b50 940c 0b5a 	JMP  _0x20136
                +
000b52 e4a9     +LDI R26 , LOW ( _robotctrl + ( 10 ) )
000b53 e0b4     +LDI R27 , HIGH ( _robotctrl + ( 10 ) )
                 	__POINTW2MN _robotctrl,10
000b54 940e 1c71 	CALL SUBOPT_0x6F
000b56 940e 1eae 	CALL __CFD1
000b58 93ed      	ST   X+,R30
000b59 93fc      	ST   X,R31
                 ; 0001 05AC                     calcvitri(robotctrl.ball.x,robotctrl.ball.y);
                 _0x20136:
000b5a 940e 1c88 	CALL SUBOPT_0x72
                 ; 0001 05AD 
                 ; 0001 05AE                      if(errangle>18 || errangle<-18 )
000b5c 940e 1b81 	CALL SUBOPT_0x5E
000b5e f019      	BREQ PC+4
000b5f f010      	BRCS PC+3
000b60 940c 0b65 	JMP  _0x20138
000b62 940e 1ab2 	CALL SUBOPT_0x52
000b64 f418      	BRSH _0x20137
                 _0x20138:
                 ; 0001 05AF                      {
                 ; 0001 05B0                        int nv = errangle*27/180 ;
                 ; 0001 05B1                        int verrangle = calcVangle(errangle);
                 ; 0001 05B2                        ctrRobotXoay(nv,verrangle);
000b65 940e 1aba 	CALL SUBOPT_0x53
                 ;	nv -> Y+2
                 ;	verrangle -> Y+0
                 ; 0001 05B3                        delay_ms(1);
                 ; 0001 05B4                      }else
000b67 c011      	RJMP _0x2013A
                 _0x20137:
                 ; 0001 05B5                      {
                 ; 0001 05B6                          //1xung = 3.14 * 40/24 =5.22
                 ; 0001 05B7                          if(distance>10) //chay den vi tri
000b68 940e 1a92 	CALL SUBOPT_0x4E
000b6a 940e 1b99 	CALL SUBOPT_0x60
000b6c f009      	BREQ PC+2
000b6d f410      	BRCC PC+3
000b6e 940c 0b77 	JMP  _0x2013B
                 ; 0001 05B8                          {
                 ; 0001 05B9                            ctrRobottoi(distance/5.22,15);
000b70 940e 1ae9 	CALL SUBOPT_0x54
                 ; 0001 05BA                            delay_ms(5);
000b72 940e 1c95 	CALL SUBOPT_0x73
000b74 940e 1e6d 	CALL _delay_ms
                 ; 0001 05BB                          }else
000b76 c002      	RJMP _0x2013C
                 _0x2013B:
                 ; 0001 05BC                          {
                 ; 0001 05BD                            flagtask=10;
000b77 940e 1c7a 	CALL SUBOPT_0x70
                 ; 0001 05BE                          }
                 _0x2013C:
                 ; 0001 05BF                         // verranglekisum=0;//RESET I.
                 ; 0001 05C0                      }
                 _0x2013A:
                 ; 0001 05C1 
                 ; 0001 05C2                     break;
000b79 c045      	RJMP _0x20124
                 ; 0001 05C3               // da bong
                 ; 0001 05C4               case 3:
                 _0x20134:
000b7a 30e3      	CPI  R30,LOW(0x3)
000b7b e0a0      	LDI  R26,HIGH(0x3)
000b7c 07fa      	CPC  R31,R26
000b7d f499      	BRNE _0x2013D
                 ; 0001 05C5                     ctrRobottoi(40,22);
000b7e 940e 1c9a 	CALL SUBOPT_0x74
000b80 e1e6      	LDI  R30,LOW(22)
000b81 e0f0      	LDI  R31,HIGH(22)
000b82 93fa      	ST   -Y,R31
000b83 93ea      	ST   -Y,R30
000b84 d9bb      	RCALL _ctrRobottoi
                 ; 0001 05C6                     delay_ms(400);
000b85 940e 1c9f 	CALL SUBOPT_0x75
                 ; 0001 05C7                     ctrRobotlui(40,15);
000b87 940e 1c9a 	CALL SUBOPT_0x74
000b89 e0ef      	LDI  R30,LOW(15)
000b8a e0f0      	LDI  R31,HIGH(15)
000b8b 93fa      	ST   -Y,R31
000b8c 93ea      	ST   -Y,R30
000b8d d9b9      	RCALL _ctrRobotlui
                 ; 0001 05C8                     delay_ms(400);
000b8e 940e 1c9f 	CALL SUBOPT_0x75
                 ; 0001 05C9                     flagtask = 10;
000b90 c02a      	RJMP _0x202DA
                 ; 0001 05CA                     break;
                 ; 0001 05CB               case 10:
                 _0x2013D:
000b91 30ea      	CPI  R30,LOW(0xA)
000b92 e0a0      	LDI  R26,HIGH(0xA)
000b93 07fa      	CPC  R31,R26
000b94 f429      	BRNE _0x2013E
                 ; 0001 05CC                     vMRtoi(0);
000b95 940e 1ca5 	CALL SUBOPT_0x76
                 ; 0001 05CD                     vMLtoi(0);
000b97 940e 1ca9 	CALL SUBOPT_0x77
                 ; 0001 05CE                     break;
000b99 c025      	RJMP _0x20124
                 ; 0001 05CF               //chay theo bong co dinh huong
                 ; 0001 05D0               case 4:
                 _0x2013E:
000b9a 30e4      	CPI  R30,LOW(0x4)
000b9b e0a0      	LDI  R26,HIGH(0x4)
000b9c 07fa      	CPC  R31,R26
000b9d f509      	BRNE _0x20124
                 ; 0001 05D1                     calcvitri(robotctrl.ball.x,robotctrl.ball.y);
000b9e 940e 1c88 	CALL SUBOPT_0x72
                 ; 0001 05D2                     if(errangle>18 || errangle<-18 )
000ba0 940e 1b81 	CALL SUBOPT_0x5E
000ba2 f019      	BREQ PC+4
000ba3 f010      	BRCS PC+3
000ba4 940c 0ba9 	JMP  _0x20141
000ba6 940e 1ab2 	CALL SUBOPT_0x52
000ba8 f418      	BRSH _0x20140
                 _0x20141:
                 ; 0001 05D3                      {
                 ; 0001 05D4 
                 ; 0001 05D5                        int nv = errangle*27/180 ;
                 ; 0001 05D6                        int verrangle = calcVangle(errangle);
                 ; 0001 05D7                        ctrRobotXoay(nv,verrangle);
000ba9 940e 1aba 	CALL SUBOPT_0x53
                 ;	nv -> Y+2
                 ;	verrangle -> Y+0
                 ; 0001 05D8                       // ctrRobotXoay(nv,10);
                 ; 0001 05D9                        delay_ms(1);
                 ; 0001 05DA                      }else
000bab c013      	RJMP _0x20143
                 _0x20140:
                 ; 0001 05DB                      {
                 ; 0001 05DC                        flaghuongtrue++;
000bac efaa      	LDI  R26,LOW(_flaghuongtrue)
000bad e0b4      	LDI  R27,HIGH(_flaghuongtrue)
000bae 940e 1c4e 	CALL SUBOPT_0x6B
                 ; 0001 05DD                        if(flaghuongtrue>3)
000bb0 91a0 04fa 	LDS  R26,_flaghuongtrue
000bb2 91b0 04fb 	LDS  R27,_flaghuongtrue+1
000bb4 9714      	SBIW R26,4
000bb5 f048      	BRLO _0x20144
                 ; 0001 05DE                        {
                 ; 0001 05DF                         //verranglekisum=0;//RESET I.
                 ; 0001 05E0                          flaghuongtrue=0;
000bb6 e0e0      	LDI  R30,LOW(0)
000bb7 93e0 04fa 	STS  _flaghuongtrue,R30
000bb9 93e0 04fb 	STS  _flaghuongtrue+1,R30
                 ; 0001 05E1                          flagtask=10;
                 _0x202DA:
000bbb e0ea      	LDI  R30,LOW(10)
000bbc e0f0      	LDI  R31,HIGH(10)
000bbd 940e 1cad 	CALL SUBOPT_0x78
                 ; 0001 05E2                        }
                 ; 0001 05E3 
                 ; 0001 05E4                      }
                 _0x20144:
                 _0x20143:
                 ; 0001 05E5                     break;
                 ; 0001 05E6            }
                 _0x20124:
                 ; 0001 05E7        }//end if(cmdCtrlRobot==2)
                 ; 0001 05E8     }else   //khong co tin hieu RF hay khong thay robot
                 _0x20121:
                 _0x2010F:
                 ; 0001 05E9     {
                 ; 0001 05EA          //if(flagunlookRB==1) runEscBlindSpot();
                 ; 0001 05EB 
                 ; 0001 05EC     }
                 ; 0001 05ED 
                 ; 0001 05EE 
                 ; 0001 05EF }
000bbf 9508      	RET
                 ;
                 ;void rb_move(float x,float y)
                 ; 0001 05F2 {
                 ; 0001 05F3    flagtask = 0;
                 ;	x -> Y+4
                 ;	y -> Y+0
                 ; 0001 05F4    flagtaskold=flagtask;
                 ; 0001 05F5    setRobotX=x;
                 ; 0001 05F6    setRobotY=y;
                 ; 0001 05F7 }
                 ;void rb_rotate(int angle)     // goc xoay so voi truc x cua toa do
                 ; 0001 05F9 {
                 ; 0001 05FA    flagtask = 1;
                 ;	angle -> Y+0
                 ; 0001 05FB    flagtaskold=flagtask;
                 ; 0001 05FC    setRobotAngleX=10*cos(angle*M_PI/180);
                 ; 0001 05FD    setRobotAngleY=10*sin(angle*M_PI/180);;
                 ; 0001 05FE }
                 ;
                 ;void rb_goball()
                 ; 0001 0601 {
                 _rb_goball:
                 ; 0001 0602    flagtask = 2;
000bc0 e0e2      	LDI  R30,LOW(2)
000bc1 e0f0      	LDI  R31,HIGH(2)
000bc2 940e 1cad 	CALL SUBOPT_0x78
                 ; 0001 0603    flagtaskold=flagtask;
000bc4 91e0 04f6 	LDS  R30,_flagtask
000bc6 91f0 04f7 	LDS  R31,_flagtask+1
000bc8 93e0 04f8 	STS  _flagtaskold,R30
000bca 93f0 04f9 	STS  _flagtaskold+1,R31
                 ; 0001 0604 }
000bcc 9508      	RET
                 ;void rb_kick()
                 ; 0001 0606 {
                 ; 0001 0607    flagtask = 3;
                 ; 0001 0608    flagtaskold=flagtask;
                 ; 0001 0609 }
                 ;int rb_wait(unsigned long int time )
                 ; 0001 060B {
                 _rb_wait:
                 ; 0001 060C    time=time*10;
                 ;	time -> Y+0
000bcd 940e 1cb2 	CALL SUBOPT_0x79
                +
000bcf e0aa     +LDI R26 , LOW ( 0xA )
000bd0 e0b0     +LDI R27 , HIGH ( 0xA )
000bd1 e080     +LDI R24 , BYTE3 ( 0xA )
000bd2 e090     +LDI R25 , BYTE4 ( 0xA )
                 	__GETD2N 0xA
000bd3 940e 2086 	CALL __MULD12U
000bd5 940e 19b6 	CALL SUBOPT_0x30
                 ; 0001 060D    while(time--)
                 _0x20146:
000bd7 940e 1cb2 	CALL SUBOPT_0x79
000bd9 9731      	SBIW R30,1
000bda 4060      	SBCI R22,0
000bdb 4070      	SBCI R23,0
000bdc 940e 19b6 	CALL SUBOPT_0x30
                +
000bde 5fef     +SUBI R30 , LOW ( - 1 )
000bdf 4fff     +SBCI R31 , HIGH ( - 1 )
000be0 4f6f     +SBCI R22 , BYTE3 ( - 1 )
000be1 4f7f     +SBCI R23 , BYTE4 ( - 1 )
                 	__SUBD1N -1
000be2 f059      	BREQ _0x20148
                 ; 0001 060E    {
                 ; 0001 060F      ctrrobot();
000be3 de7c      	RCALL _ctrrobot
                 ; 0001 0610      if(flagtask==10) return 1 ;// thuc hien xong nhiem vu
000be4 91a0 04f6 	LDS  R26,_flagtask
000be6 91b0 04f7 	LDS  R27,_flagtask+1
000be8 971a      	SBIW R26,10
000be9 f419      	BRNE _0x20149
000bea e0e1      	LDI  R30,LOW(1)
000beb e0f0      	LDI  R31,HIGH(1)
000bec c003      	RJMP _0x20C0007
                 ; 0001 0611    }
                 _0x20149:
000bed cfe9      	RJMP _0x20146
                 _0x20148:
                 ; 0001 0612     return 0;
000bee e0e0      	LDI  R30,LOW(0)
000bef e0f0      	LDI  R31,HIGH(0)
                 _0x20C0007:
000bf0 9624      	ADIW R28,4
000bf1 9508      	RET
                 ; 0001 0613 }
                 ;//========================================================
                 ;// Timer1 overflow interrupt service routine
                 ;// period =1/2khz= 0.5ms
                 ;interrupt [TIM1_OVF] void timer1_ovf_isr(void)
                 ; 0001 0618 {
                 _timer1_ovf_isr:
000bf2 920a      	ST   -Y,R0
000bf3 921a      	ST   -Y,R1
000bf4 92fa      	ST   -Y,R15
000bf5 936a      	ST   -Y,R22
000bf6 937a      	ST   -Y,R23
000bf7 938a      	ST   -Y,R24
000bf8 939a      	ST   -Y,R25
000bf9 93aa      	ST   -Y,R26
000bfa 93ba      	ST   -Y,R27
000bfb 93ea      	ST   -Y,R30
000bfc 93fa      	ST   -Y,R31
000bfd b7ef      	IN   R30,SREG
000bfe 93ea      	ST   -Y,R30
                 ; 0001 0619 // Place your code here
                 ; 0001 061A    timerstick++;
000bff eca8      	LDI  R26,LOW(_timerstick)
000c00 e0b4      	LDI  R27,HIGH(_timerstick)
000c01 940e 1c4e 	CALL SUBOPT_0x6B
                 ; 0001 061B    timerstickdis++;
000c03 ecaa      	LDI  R26,LOW(_timerstickdis)
000c04 e0b4      	LDI  R27,HIGH(_timerstickdis)
000c05 940e 1c4e 	CALL SUBOPT_0x6B
                 ; 0001 061C    timerstickang++;
000c07 ecac      	LDI  R26,LOW(_timerstickang)
000c08 e0b4      	LDI  R27,HIGH(_timerstickang)
000c09 940e 1c4e 	CALL SUBOPT_0x6B
                 ; 0001 061D    timerstickctr++;
000c0b ecae      	LDI  R26,LOW(_timerstickctr)
000c0c e0b4      	LDI  R27,HIGH(_timerstickctr)
000c0d 940e 1c4e 	CALL SUBOPT_0x6B
                 ; 0001 061E  #ifdef CtrVelocity
                 ; 0001 061F  // dieu khien van toc
                 ; 0001 0620    if(timerstick>250)    // 125ms/0.5ms=250 : dung chu ki lay mau = 125 ms
000c0f 91a0 04c8 	LDS  R26,_timerstick
000c11 91b0 04c9 	LDS  R27,_timerstick+1
000c13 3fab      	CPI  R26,LOW(0xFB)
000c14 e0e0      	LDI  R30,HIGH(0xFB)
000c15 07be      	CPC  R27,R30
000c16 f410      	BRSH PC+3
000c17 940c 0d0d 	JMP _0x2014A
                 ; 0001 0621    {
                 ; 0001 0622      int eR=0,eL=0;
                 ; 0001 0623 
                 ; 0001 0624      //-------------------------------------------
                 ; 0001 0625      //cap nhat van toc
                 ; 0001 0626      vQER = (QER-oldQER);     //(xung / 10ms)
000c19 940e 191b 	CALL SUBOPT_0x15
                 ;	eR -> Y+2
                 ;	eL -> Y+0
000c1b 91a0 04d6 	LDS  R26,_oldQER
000c1d 91b0 04d7 	LDS  R27,_oldQER+1
000c1f 940e 1cb5 	CALL SUBOPT_0x7A
000c21 1bea      	SUB  R30,R26
000c22 0bfb      	SBC  R31,R27
000c23 93e0 04d2 	STS  _vQER,R30
000c25 93f0 04d3 	STS  _vQER+1,R31
                 ; 0001 0627      vQEL = (QEL-oldQEL);     //(xung /10ms)
000c27 91a0 04d4 	LDS  R26,_oldQEL
000c29 91b0 04d5 	LDS  R27,_oldQEL+1
000c2b 940e 192c 	CALL SUBOPT_0x18
000c2d 1bea      	SUB  R30,R26
000c2e 0bfb      	SBC  R31,R27
000c2f 93e0 04d0 	STS  _vQEL,R30
000c31 93f0 04d1 	STS  _vQEL+1,R31
                 ; 0001 0628      oldQEL=QEL;
000c33 940e 192c 	CALL SUBOPT_0x18
000c35 93e0 04d4 	STS  _oldQEL,R30
000c37 93f0 04d5 	STS  _oldQEL+1,R31
                 ; 0001 0629      oldQER=QER;
000c39 940e 1cb5 	CALL SUBOPT_0x7A
000c3b 93e0 04d6 	STS  _oldQER,R30
000c3d 93f0 04d7 	STS  _oldQER+1,R31
                 ; 0001 062A      timerstick=0;
000c3f e0e0      	LDI  R30,LOW(0)
000c40 93e0 04c8 	STS  _timerstick,R30
000c42 93e0 04c9 	STS  _timerstick+1,R30
                 ; 0001 062B 
                 ; 0001 062C      //--------------------------------------------
                 ; 0001 062D      //tinh PID van toc
                 ; 0001 062E      //--------------------------------------------
                 ; 0001 062F      eR=svQER-vQER;
000c44 91a0 04d2 	LDS  R26,_vQER
000c46 91b0 04d3 	LDS  R27,_vQER+1
000c48 91e0 04da 	LDS  R30,_svQER
000c4a 91f0 04db 	LDS  R31,_svQER+1
000c4c 1bea      	SUB  R30,R26
000c4d 0bfb      	SBC  R31,R27
000c4e 83ea      	STD  Y+2,R30
000c4f 83fb      	STD  Y+2+1,R31
                 ; 0001 0630      //tinh thanh phan I
                 ; 0001 0631      seRki=seRki+KiR*eR;
000c50 91a0 04e6 	LDS  R26,_KiR
000c52 91b0 04e7 	LDS  R27,_KiR+1
000c54 940e 20a6 	CALL __MULW12
000c56 940e 1cba 	CALL SUBOPT_0x7B
000c58 0fea      	ADD  R30,R26
000c59 1ffb      	ADC  R31,R27
000c5a 940e 1cbf 	CALL SUBOPT_0x7C
                 ; 0001 0632      if(seRki>100) seRki=100;
000c5c 940e 1cba 	CALL SUBOPT_0x7B
000c5e 36a5      	CPI  R26,LOW(0x65)
000c5f e0e0      	LDI  R30,HIGH(0x65)
000c60 07be      	CPC  R27,R30
000c61 f024      	BRLT _0x2014B
000c62 e6e4      	LDI  R30,LOW(100)
000c63 e0f0      	LDI  R31,HIGH(100)
000c64 940e 1cbf 	CALL SUBOPT_0x7C
                 ; 0001 0633      if(seRki<-100) seRki = -100;
                 _0x2014B:
000c66 940e 1cba 	CALL SUBOPT_0x7B
000c68 39ac      	CPI  R26,LOW(0xFF9C)
000c69 efef      	LDI  R30,HIGH(0xFF9C)
000c6a 07be      	CPC  R27,R30
000c6b f424      	BRGE _0x2014C
000c6c e9ec      	LDI  R30,LOW(65436)
000c6d efff      	LDI  R31,HIGH(65436)
000c6e 940e 1cbf 	CALL SUBOPT_0x7C
                 ; 0001 0634      //tinh them thanh phan P
                 ; 0001 0635      uR = 100 + KpR*eR + seRki;
                 _0x2014C:
000c70 81ea      	LDD  R30,Y+2
000c71 81fb      	LDD  R31,Y+2+1
000c72 91a0 04e4 	LDS  R26,_KpR
000c74 91b0 04e5 	LDS  R27,_KpR+1
000c76 940e 20a6 	CALL __MULW12
000c78 59ec      	SUBI R30,LOW(-100)
000c79 4fff      	SBCI R31,HIGH(-100)
000c7a 940e 1cba 	CALL SUBOPT_0x7B
000c7c 0fea      	ADD  R30,R26
000c7d 1ffb      	ADC  R31,R27
000c7e 93e0 04e2 	STS  _uR,R30
000c80 93f0 04e3 	STS  _uR+1,R31
                 ; 0001 0636      if(uR>255) uR =255;
000c82 91a0 04e2 	LDS  R26,_uR
000c84 91b0 04e3 	LDS  R27,_uR+1
000c86 30a0      	CPI  R26,LOW(0x100)
000c87 e0e1      	LDI  R30,HIGH(0x100)
000c88 07be      	CPC  R27,R30
000c89 f034      	BRLT _0x2014D
000c8a efef      	LDI  R30,LOW(255)
000c8b e0f0      	LDI  R31,HIGH(255)
000c8c 93e0 04e2 	STS  _uR,R30
000c8e 93f0 04e3 	STS  _uR+1,R31
                 ; 0001 0637      if(uR<0) uR =0;
                 _0x2014D:
000c90 91a0 04e3 	LDS  R26,_uR+1
000c92 23aa      	TST  R26
000c93 f42a      	BRPL _0x2014E
000c94 e0e0      	LDI  R30,LOW(0)
000c95 93e0 04e2 	STS  _uR,R30
000c97 93e0 04e3 	STS  _uR+1,R30
                 ; 0001 0638 
                 ; 0001 0639      eL=svQEL-vQEL;
                 _0x2014E:
000c99 91a0 04d0 	LDS  R26,_vQEL
000c9b 91b0 04d1 	LDS  R27,_vQEL+1
000c9d 91e0 04d8 	LDS  R30,_svQEL
000c9f 91f0 04d9 	LDS  R31,_svQEL+1
000ca1 940e 18cc 	CALL SUBOPT_0xC
                 ; 0001 063A      //tinh thanh phan I
                 ; 0001 063B      seLki=seLki+KiL*eL;
000ca3 81e8      	LD   R30,Y
000ca4 81f9      	LDD  R31,Y+1
000ca5 91a0 04ea 	LDS  R26,_KiL
000ca7 91b0 04eb 	LDS  R27,_KiL+1
000ca9 940e 20a6 	CALL __MULW12
000cab 940e 1cc4 	CALL SUBOPT_0x7D
000cad 0fea      	ADD  R30,R26
000cae 1ffb      	ADC  R31,R27
000caf 940e 1cc9 	CALL SUBOPT_0x7E
                 ; 0001 063C      if(seLki>100) seLki=100;
000cb1 940e 1cc4 	CALL SUBOPT_0x7D
000cb3 36a5      	CPI  R26,LOW(0x65)
000cb4 e0e0      	LDI  R30,HIGH(0x65)
000cb5 07be      	CPC  R27,R30
000cb6 f024      	BRLT _0x2014F
000cb7 e6e4      	LDI  R30,LOW(100)
000cb8 e0f0      	LDI  R31,HIGH(100)
000cb9 940e 1cc9 	CALL SUBOPT_0x7E
                 ; 0001 063D      if(seLki<-100) seLki = -100;
                 _0x2014F:
000cbb 940e 1cc4 	CALL SUBOPT_0x7D
000cbd 39ac      	CPI  R26,LOW(0xFF9C)
000cbe efef      	LDI  R30,HIGH(0xFF9C)
000cbf 07be      	CPC  R27,R30
000cc0 f424      	BRGE _0x20150
000cc1 e9ec      	LDI  R30,LOW(65436)
000cc2 efff      	LDI  R31,HIGH(65436)
000cc3 940e 1cc9 	CALL SUBOPT_0x7E
                 ; 0001 063E      //tinh them thanh phan P
                 ; 0001 063F      uL = 100 + KpL*eL + seLki;
                 _0x20150:
000cc5 81e8      	LD   R30,Y
000cc6 81f9      	LDD  R31,Y+1
000cc7 91a0 04e8 	LDS  R26,_KpL
000cc9 91b0 04e9 	LDS  R27,_KpL+1
000ccb 940e 20a6 	CALL __MULW12
000ccd 59ec      	SUBI R30,LOW(-100)
000cce 4fff      	SBCI R31,HIGH(-100)
000ccf 940e 1cc4 	CALL SUBOPT_0x7D
000cd1 0fea      	ADD  R30,R26
000cd2 1ffb      	ADC  R31,R27
000cd3 93e0 04e0 	STS  _uL,R30
000cd5 93f0 04e1 	STS  _uL+1,R31
                 ; 0001 0640      if(uL>255) uL =255;
000cd7 91a0 04e0 	LDS  R26,_uL
000cd9 91b0 04e1 	LDS  R27,_uL+1
000cdb 30a0      	CPI  R26,LOW(0x100)
000cdc e0e1      	LDI  R30,HIGH(0x100)
000cdd 07be      	CPC  R27,R30
000cde f034      	BRLT _0x20151
000cdf efef      	LDI  R30,LOW(255)
000ce0 e0f0      	LDI  R31,HIGH(255)
000ce1 93e0 04e0 	STS  _uL,R30
000ce3 93f0 04e1 	STS  _uL+1,R31
                 ; 0001 0641      if(uL<0) uL =0;
                 _0x20151:
000ce5 91a0 04e1 	LDS  R26,_uL+1
000ce7 23aa      	TST  R26
000ce8 f42a      	BRPL _0x20152
000ce9 e0e0      	LDI  R30,LOW(0)
000cea 93e0 04e0 	STS  _uL,R30
000cec 93e0 04e1 	STS  _uL+1,R30
                 ; 0001 0642 
                 ; 0001 0643      if(svQER!=0)OCR1B= uR;
                 _0x20152:
000cee 91e0 04da 	LDS  R30,_svQER
000cf0 91f0 04db 	LDS  R31,_svQER+1
000cf2 9730      	SBIW R30,0
000cf3 f029      	BREQ _0x20153
000cf4 91e0 04e2 	LDS  R30,_uR
000cf6 91f0 04e3 	LDS  R31,_uR+1
000cf8 c002      	RJMP _0x202DB
                 ; 0001 0644      else  OCR1B = 0;
                 _0x20153:
000cf9 e0e0      	LDI  R30,LOW(0)
000cfa e0f0      	LDI  R31,HIGH(0)
                 _0x202DB:
000cfb bdf9      	OUT  0x28+1,R31
000cfc bde8      	OUT  0x28,R30
                 ; 0001 0645 
                 ; 0001 0646      if(svQEL!=0) OCR1A= uL;
000cfd 91e0 04d8 	LDS  R30,_svQEL
000cff 91f0 04d9 	LDS  R31,_svQEL+1
000d01 9730      	SBIW R30,0
000d02 f029      	BREQ _0x20155
000d03 91e0 04e0 	LDS  R30,_uL
000d05 91f0 04e1 	LDS  R31,_uL+1
000d07 c002      	RJMP _0x202DC
                 ; 0001 0647      else  OCR1A = 0;
                 _0x20155:
000d08 e0e0      	LDI  R30,LOW(0)
000d09 e0f0      	LDI  R31,HIGH(0)
                 _0x202DC:
000d0a bdfb      	OUT  0x2A+1,R31
000d0b bdea      	OUT  0x2A,R30
                 ; 0001 0648 
                 ; 0001 0649    }
000d0c 9624      	ADIW R28,4
                 ; 0001 064A // dieu khien khoang cach
                 ; 0001 064B   if(timerstickdis>10 && (flagwaitctrRobot==1))
                 _0x2014A:
000d0d 91a0 04ca 	LDS  R26,_timerstickdis
000d0f 91b0 04cb 	LDS  R27,_timerstickdis+1
000d11 971b      	SBIW R26,11
000d12 f020      	BRLO _0x20158
000d13 91a0 04f0 	LDS  R26,_flagwaitctrRobot
000d15 30a1      	CPI  R26,LOW(0x1)
000d16 f009      	BREQ _0x20159
                 _0x20158:
000d17 c027      	RJMP _0x20157
                 _0x20159:
                 ; 0001 064C   {
                 ; 0001 064D     unsigned int deltad1=0;
                 ; 0001 064E     deltad1 =(QER + QEL)/2 - oldd;
000d18 9722      	SBIW R28,2
000d19 940e 1cce 	CALL SUBOPT_0x7F
                 ;	deltad1 -> Y+0
000d1b 940e 1cd2 	CALL SUBOPT_0x80
000d1d 91a0 04ee 	LDS  R26,_oldd
000d1f 91b0 04ef 	LDS  R27,_oldd+1
000d21 940e 18cc 	CALL SUBOPT_0xC
                 ; 0001 064F     //if(deltad1<0) deltad1=0;// co the am do kieu so
                 ; 0001 0650     //hc(3,0);ws("            ");
                 ; 0001 0651     //hc(3,0);wn16s(deltad1);
                 ; 0001 0652     if(deltad1>sd)
000d23 91e0 04ec 	LDS  R30,_sd
000d25 91f0 04ed 	LDS  R31,_sd+1
000d27 81a8      	LD   R26,Y
000d28 81b9      	LDD  R27,Y+1
000d29 17ea      	CP   R30,R26
000d2a 07fb      	CPC  R31,R27
000d2b f468      	BRSH _0x2015A
                 ; 0001 0653     {
                 ; 0001 0654 
                 ; 0001 0655         vMLstop();
000d2c 940e 0519 	CALL _vMLstop
                 ; 0001 0656         vMRstop();
000d2e 940e 0534 	CALL _vMRstop
                 ; 0001 0657         flagwaitctrRobot=0;
000d30 e0e0      	LDI  R30,LOW(0)
000d31 93e0 04f0 	STS  _flagwaitctrRobot,R30
                 ; 0001 0658         oldd=(QER+QEL)/2;
000d33 940e 1cd2 	CALL SUBOPT_0x80
000d35 93e0 04ee 	STS  _oldd,R30
000d37 93f0 04ef 	STS  _oldd+1,R31
                 ; 0001 0659 
                 ; 0001 065A     }
                 ; 0001 065B     timerstickdis=0;
                 _0x2015A:
000d39 e0e0      	LDI  R30,LOW(0)
000d3a 93e0 04ca 	STS  _timerstickdis,R30
000d3c 93e0 04cb 	STS  _timerstickdis+1,R30
                 ; 0001 065C 
                 ; 0001 065D   }
000d3e 9622      	ADIW R28,2
                 ; 0001 065E   // dieu khien  vi tri goc quay
                 ; 0001 065F   if(timerstickang>10 && (flagwaitctrAngle==1))
                 _0x20157:
000d3f 91a0 04cc 	LDS  R26,_timerstickang
000d41 91b0 04cd 	LDS  R27,_timerstickang+1
000d43 971b      	SBIW R26,11
000d44 f020      	BRLO _0x2015C
000d45 91a0 04f5 	LDS  R26,_flagwaitctrAngle
000d47 30a1      	CPI  R26,LOW(0x1)
000d48 f009      	BREQ _0x2015D
                 _0x2015C:
000d49 c027      	RJMP _0x2015B
                 _0x2015D:
                 ; 0001 0660   {
                 ; 0001 0661     unsigned int deltaa=0;
                 ; 0001 0662     deltaa =(QEL) - olda;
000d4a 9722      	SBIW R28,2
000d4b 940e 1cce 	CALL SUBOPT_0x7F
                 ;	deltaa -> Y+0
000d4d 91a0 04f3 	LDS  R26,_olda
000d4f 91b0 04f4 	LDS  R27,_olda+1
000d51 940e 192c 	CALL SUBOPT_0x18
000d53 940e 18cc 	CALL SUBOPT_0xC
                 ; 0001 0663 //    hc(4,0);ws("            ");
                 ; 0001 0664 //    hc(4,0);wn16s(deltaa);
                 ; 0001 0665     if(deltaa>sa)
000d55 91e0 04f1 	LDS  R30,_sa
000d57 91f0 04f2 	LDS  R31,_sa+1
000d59 81a8      	LD   R26,Y
000d5a 81b9      	LDD  R27,Y+1
000d5b 17ea      	CP   R30,R26
000d5c 07fb      	CPC  R31,R27
000d5d f468      	BRSH _0x2015E
                 ; 0001 0666     {
                 ; 0001 0667         vMLstop();
000d5e 940e 0519 	CALL _vMLstop
                 ; 0001 0668         vMRstop();
000d60 940e 0534 	CALL _vMRstop
                 ; 0001 0669         flagwaitctrAngle=0;
000d62 e0e0      	LDI  R30,LOW(0)
000d63 93e0 04f5 	STS  _flagwaitctrAngle,R30
                 ; 0001 066A         olda=QEL;
000d65 940e 192c 	CALL SUBOPT_0x18
000d67 93e0 04f3 	STS  _olda,R30
000d69 93f0 04f4 	STS  _olda+1,R31
                 ; 0001 066B     }
                 ; 0001 066C     timerstickang=0;
                 _0x2015E:
000d6b e0e0      	LDI  R30,LOW(0)
000d6c 93e0 04cc 	STS  _timerstickang,R30
000d6e 93e0 04cd 	STS  _timerstickang+1,R30
                 ; 0001 066D   }
000d70 9622      	ADIW R28,2
                 ; 0001 066E   // dieu khien robot robot
                 ; 0001 066F   if(timerstickctr>1)
                 _0x2015B:
000d71 91a0 04ce 	LDS  R26,_timerstickctr
000d73 91b0 04cf 	LDS  R27,_timerstickctr+1
000d75 9712      	SBIW R26,2
000d76 f028      	BRLO _0x2015F
                 ; 0001 0670   {
                 ; 0001 0671     timerstickctr=0;
000d77 e0e0      	LDI  R30,LOW(0)
000d78 93e0 04ce 	STS  _timerstickctr,R30
000d7a 93e0 04cf 	STS  _timerstickctr+1,R30
                 ; 0001 0672   }
                 ; 0001 0673 #endif
                 ; 0001 0674 }
                 _0x2015F:
000d7c 91e9      	LD   R30,Y+
000d7d bfef      	OUT  SREG,R30
000d7e 91f9      	LD   R31,Y+
000d7f 91e9      	LD   R30,Y+
000d80 91b9      	LD   R27,Y+
000d81 91a9      	LD   R26,Y+
000d82 9199      	LD   R25,Y+
000d83 9189      	LD   R24,Y+
000d84 9179      	LD   R23,Y+
000d85 9169      	LD   R22,Y+
000d86 90f9      	LD   R15,Y+
000d87 9019      	LD   R1,Y+
000d88 9009      	LD   R0,Y+
000d89 9518      	RETI
                 ;
                 ;//========================================================
                 ;// read  vi tri robot   PHUC
                 ;//========================================================
                 ;unsigned char testposition()
                 ; 0001 067A {
                 _testposition:
                 ; 0001 067B         unsigned char  i=0;
                 ; 0001 067C         unsigned flagstatus=0;
                 ; 0001 067D 
                 ; 0001 067E    while(keyKT!=0)
000d8a 940e 216d 	CALL __SAVELOCR4
                 ;	i -> R17
                 ;	flagstatus -> R18,R19
000d8c e010      	LDI  R17,0
                +
000d8d e020     +LDI R18 , LOW ( 0 )
000d8e e030     +LDI R19 , HIGH ( 0 )
                 	__GETWRN 18,19,0
                 _0x20160:
000d8f 9b98      	SBIS 0x13,0
000d90 c04f      	RJMP _0x20162
                 ; 0001 067F    {
                 ; 0001 0680         readposition();
000d91 d848      	RCALL _readposition
                 ; 0001 0681 
                 ; 0001 0682          if(idRobot==ROBOT_ID)
000d92 e0e4      	LDI  R30,LOW(4)
000d93 e0f0      	LDI  R31,HIGH(4)
000d94 15ec      	CP   R30,R12
000d95 05fd      	CPC  R31,R13
000d96 f011      	BREQ PC+3
000d97 940c 0ddf 	JMP _0x20163
                 ; 0001 0683          {
                 ; 0001 0684              hc(5,40);wn16s(robotctrl.ball.y);
000d99 940e 1c95 	CALL SUBOPT_0x73
000d9b 940e 1c9a 	CALL SUBOPT_0x74
000d9d 940e 0388 	CALL _hc
000d9f 940e 1cdd 	CALL SUBOPT_0x81
000da1 940e 1ce2 	CALL SUBOPT_0x82
                 ; 0001 0685              hc(4,40);wn16s(robotctrl.ball.x);
000da3 940e 1ce6 	CALL SUBOPT_0x83
000da5 940e 1c9a 	CALL SUBOPT_0x74
000da7 940e 0388 	CALL _hc
000da9 940e 1ceb 	CALL SUBOPT_0x84
000dab 940e 1ce2 	CALL SUBOPT_0x82
                 ; 0001 0686              hc(3,20);wn16s(robotctrl.x);
000dad 940e 1cf0 	CALL SUBOPT_0x85
000daf 940e 1a74 	CALL SUBOPT_0x48
000db1 940e 0388 	CALL _hc
                +
000db3 91e0 0441+LDS R30 , _robotctrl + ( 2 )
000db5 91f0 0442+LDS R31 , _robotctrl + ( 2 ) + 1
                 	__GETW1MN _robotctrl,2
000db7 940e 1ce2 	CALL SUBOPT_0x82
                 ; 0001 0687              hc(2,20);wn16s(robotctrl.y);
000db9 940e 1cf5 	CALL SUBOPT_0x86
000dbb 940e 1a74 	CALL SUBOPT_0x48
000dbd 940e 0388 	CALL _hc
                +
000dbf 91e0 0443+LDS R30 , _robotctrl + ( 4 )
000dc1 91f0 0444+LDS R31 , _robotctrl + ( 4 ) + 1
                 	__GETW1MN _robotctrl,4
000dc3 940e 1ce2 	CALL SUBOPT_0x82
                 ; 0001 0688              hc(1,1);wn16s(robotctrl.ox);
000dc5 940e 1cfa 	CALL SUBOPT_0x87
000dc7 940e 1cfa 	CALL SUBOPT_0x87
000dc9 940e 0388 	CALL _hc
                +
000dcb 91e0 0445+LDS R30 , _robotctrl + ( 6 )
000dcd 91f0 0446+LDS R31 , _robotctrl + ( 6 ) + 1
                 	__GETW1MN _robotctrl,6
000dcf 940e 1ce2 	CALL SUBOPT_0x82
                 ; 0001 0689              hc(0,1);wn16s(robotctrl.oy);
000dd1 940e 1cff 	CALL SUBOPT_0x88
000dd3 940e 1cfa 	CALL SUBOPT_0x87
000dd5 940e 0388 	CALL _hc
                +
000dd7 91e0 0447+LDS R30 , _robotctrl + ( 8 )
000dd9 91f0 0448+LDS R31 , _robotctrl + ( 8 ) + 1
                 	__GETW1MN _robotctrl,8
000ddb 940e 1ce2 	CALL SUBOPT_0x82
                 ; 0001 068A              delay_ms(200);
000ddd 940e 1d04 	CALL SUBOPT_0x89
                 ; 0001 068B          }
                 ; 0001 068C 
                 ; 0001 068D      }
                 _0x20163:
000ddf cfaf      	RJMP _0x20160
                 _0x20162:
                 ; 0001 068E     return flagstatus;
000de0 2fe2      	MOV  R30,R18
000de1 c51f      	RJMP _0x20C0006
                 ; 0001 068F }
                 ;//========================================================
                 ;void robotwall()
                 ; 0001 0692 {
                 _robotwall:
                 ; 0001 0693 unsigned int demled;
                 ; 0001 0694         DDRA    = 0x00;
000de2 931a      	ST   -Y,R17
000de3 930a      	ST   -Y,R16
                 ;	demled -> R16,R17
000de4 940e 19e6 	CALL SUBOPT_0x38
                 ; 0001 0695         PORTA   = 0x00;
                 ; 0001 0696 
                 ; 0001 0697         LcdClear();
000de6 940e 1d0a 	CALL SUBOPT_0x8A
                 ; 0001 0698         hc(0,10);
000de8 940e 1a79 	CALL SUBOPT_0x49
000dea 940e 0388 	CALL _hc
                 ; 0001 0699         ws ("ROBOT WALL");
                +
000dec e6ec     +LDI R30 , LOW ( _0x20164 + ( 0 ) )
000ded e0f2     +LDI R31 , HIGH ( _0x20164 + ( 0 ) )
                 	__POINTW1MN _0x20164,0
000dee 940e 18d5 	CALL SUBOPT_0xE
                 ; 0001 069A         LEDL=1;LEDR=1;
000df0 9aac      	SBI  0x15,4
000df1 9aad      	SBI  0x15,5
                 ; 0001 069B 
                 ; 0001 069C    while(keyKT!=0)
                 _0x20169:
000df2 9b98      	SBIS 0x13,0
000df3 c062      	RJMP _0x2016B
                 ; 0001 069D    {
                 ; 0001 069E         IRFL=read_adc(4);
000df4 e0e4      	LDI  R30,LOW(4)
000df5 93ea      	ST   -Y,R30
000df6 940e 0447 	CALL _read_adc
000df8 93e0 04ba 	STS  _IRFL,R30
000dfa 93f0 04bb 	STS  _IRFL+1,R31
                 ; 0001 069F         IRFR=read_adc(5);
000dfc e0e5      	LDI  R30,LOW(5)
000dfd 93ea      	ST   -Y,R30
000dfe 940e 0447 	CALL _read_adc
000e00 93e0 04bc 	STS  _IRFR,R30
000e02 93f0 04bd 	STS  _IRFR+1,R31
                 ; 0001 06A0         hc(1,0) ; wn16(IRFL);
000e04 940e 1d0d 	CALL SUBOPT_0x8B
000e06 91e0 04ba 	LDS  R30,_IRFL
000e08 91f0 04bb 	LDS  R31,_IRFL+1
000e0a 940e 18d1 	CALL SUBOPT_0xD
                 ; 0001 06A1         hc(1,42); wn16(IRFR);
000e0c 940e 1cfa 	CALL SUBOPT_0x87
000e0e 940e 1d10 	CALL SUBOPT_0x8C
000e10 91e0 04bc 	LDS  R30,_IRFR
000e12 91f0 04bd 	LDS  R31,_IRFR+1
000e14 940e 18d1 	CALL SUBOPT_0xD
                 ; 0001 06A2 
                 ; 0001 06A3         if (IRFL>250)
000e16 940e 1a18 	CALL SUBOPT_0x3C
000e18 3fab      	CPI  R26,LOW(0xFB)
000e19 e0e0      	LDI  R30,HIGH(0xFB)
000e1a 07be      	CPC  R27,R30
000e1b f038      	BRLO _0x2016C
                 ; 0001 06A4         {
                 ; 0001 06A5             vMLlui(22);vMRlui(10);delay_ms(600);
000e1c e1e6      	LDI  R30,LOW(22)
000e1d 93ea      	ST   -Y,R30
000e1e 940e 0513 	CALL _vMLlui
000e20 e0ea      	LDI  R30,LOW(10)
000e21 940e 1d16 	CALL SUBOPT_0x8D
                 ; 0001 06A6         }
                 ; 0001 06A7         if (IRFR>250)
                 _0x2016C:
000e23 91a0 04bc 	LDS  R26,_IRFR
000e25 91b0 04bd 	LDS  R27,_IRFR+1
000e27 3fab      	CPI  R26,LOW(0xFB)
000e28 e0e0      	LDI  R30,HIGH(0xFB)
000e29 07be      	CPC  R27,R30
000e2a f038      	BRLO _0x2016D
                 ; 0001 06A8         {
                 ; 0001 06A9             vMLlui(10);vMRlui(22);delay_ms(600);
000e2b e0ea      	LDI  R30,LOW(10)
000e2c 93ea      	ST   -Y,R30
000e2d 940e 0513 	CALL _vMLlui
000e2f e1e6      	LDI  R30,LOW(22)
000e30 940e 1d16 	CALL SUBOPT_0x8D
                 ; 0001 06AA         }
                 ; 0001 06AB         if((IRFL<300)&(IRFR<300))
                 _0x2016D:
000e32 940e 1a18 	CALL SUBOPT_0x3C
000e34 e2ec      	LDI  R30,LOW(300)
000e35 e0f1      	LDI  R31,HIGH(300)
000e36 940e 2078 	CALL __LTW12U
000e38 2e0e      	MOV  R0,R30
000e39 91a0 04bc 	LDS  R26,_IRFR
000e3b 91b0 04bd 	LDS  R27,_IRFR+1
000e3d e2ec      	LDI  R30,LOW(300)
000e3e e0f1      	LDI  R31,HIGH(300)
000e3f 940e 2078 	CALL __LTW12U
000e41 21e0      	AND  R30,R0
000e42 f041      	BREQ _0x2016E
                 ; 0001 06AC         {
                 ; 0001 06AD             vMLtoi(22);vMRtoi(22);
000e43 e1e6      	LDI  R30,LOW(22)
000e44 93ea      	ST   -Y,R30
000e45 940e 050d 	CALL _vMLtoi
000e47 e1e6      	LDI  R30,LOW(22)
000e48 93ea      	ST   -Y,R30
000e49 940e 0525 	CALL _vMRtoi
                 ; 0001 06AE         }
                 ; 0001 06AF 
                 ; 0001 06B0        demled++;
                 _0x2016E:
                +
000e4b 5f0f     +SUBI R16 , LOW ( - 1 )
000e4c 4f1f     +SBCI R17 , HIGH ( - 1 )
                 	__ADDWRN 16,17,1
                 ; 0001 06B1        if(demled>50){demled=0;LEDLtoggle(); LEDRtoggle();}
                +
000e4d 3303     +CPI R16 , LOW ( 51 )
000e4e e0e0     +LDI R30 , HIGH ( 51 )
000e4f 071e     +CPC R17 , R30
                 	__CPWRN 16,17,51
000e50 f020      	BRLO _0x2016F
                +
000e51 e000     +LDI R16 , LOW ( 0 )
000e52 e010     +LDI R17 , HIGH ( 0 )
                 	__GETWRN 16,17,0
000e53 940e 1d1f 	CALL SUBOPT_0x8E
                 ; 0001 06B2    }
                 _0x2016F:
000e55 cf9c      	RJMP _0x20169
                 _0x2016B:
                 ; 0001 06B3 
                 ; 0001 06B4 }
000e56 9109      	LD   R16,Y+
000e57 9119      	LD   R17,Y+
000e58 9508      	RET
                 
                 	.DSEG
                 _0x20164:
00026c           	.BYTE 0xB
                 ;////========================================================
                 ;//void robotline() //DIGITAL I/O
                 ;//{
                 ;//    unsigned char status=2;
                 ;//    unsigned char prestatus=2;
                 ;//
                 ;//    DDRA =0x00;
                 ;//    PORTA=0xFF;
                 ;////#define S0  PINA.0 status 0
                 ;////#define S1  PINA.1 status 1
                 ;////#define S2  PINA.2 status 2
                 ;////#define S3  PINA.3 status 3
                 ;////#define S4  PINA.7 status 4
                 ;//        LcdClear();
                 ;//        hc(0,1);
                 ;//        ws ("LINE FOLOWER");
                 ;//        hc(1,20);
                 ;//        ws (" ROBOT");
                 ;//        LEDL=1;LEDR=1;
                 ;//
                 ;//   while(keyKT!=0)
                 ;//   {
                 ;//      if (S2==0)
                 ;//      {
                 ;//          status=2;
                 ;//          vMLtoi(80);vMRtoi(80);
                 ;//      }
                 ;//      //===========================
                 ;//      if ((prestatus==2)&(S1==0))
                 ;//      {
                 ;//          status=1;
                 ;//          vMLtoi(80);vMRtoi(50);
                 ;//      }
                 ;//      if ((prestatus==2)&(S0==0))
                 ;//      {
                 ;//          status=0;
                 ;//          vMLtoi(80);vMRtoi(30);
                 ;//      }
                 ;//       //===========================
                 ;//      if ((prestatus==2)&(S3==0))
                 ;//      {
                 ;//          status=1;
                 ;//          vMLtoi(50);vMRtoi(80);
                 ;//      }
                 ;//      if ((prestatus==2)&(S4==0))
                 ;//      {
                 ;//          status=0;
                 ;//          vMLtoi(30);vMRtoi(80);
                 ;//      }
                 ;//       //===========================
                 ;//      if ((prestatus==1)&(S0==0))
                 ;//      {
                 ;//          status=1;
                 ;//          vMLtoi(80);vMRtoi(40);
                 ;//      }
                 ;//      if ((prestatus==3)&(S4==0))
                 ;//      {
                 ;//          status=0;
                 ;//          vMLtoi(40);vMRtoi(80);
                 ;//      }
                 ;//
                 ;//      prestatus=status;
                 ;//      delay_ms(200);LEDLtoggle();LEDRtoggle();
                 ;//
                 ;//  }
                 ;// }
                 ;
                 ;
                 ;//========================================================
                 ;void readline()
                 ; 0001 06FB {
                 
                 	.CSEG
                 _readline:
                 ; 0001 06FC     int i=0,j=0;
                 ; 0001 06FD     // reset the values
                 ; 0001 06FE         for(i = 0; i < 5; i++)
000e59 940e 216d 	CALL __SAVELOCR4
                 ;	i -> R16,R17
                 ;	j -> R18,R19
                +
000e5b e000     +LDI R16 , LOW ( 0 )
000e5c e010     +LDI R17 , HIGH ( 0 )
                 	__GETWRN 16,17,0
                +
000e5d e020     +LDI R18 , LOW ( 0 )
000e5e e030     +LDI R19 , HIGH ( 0 )
                 	__GETWRN 18,19,0
                +
000e5f e000     +LDI R16 , LOW ( 0 )
000e60 e010     +LDI R17 , HIGH ( 0 )
                 	__GETWRN 16,17,0
                 _0x20171:
                +
000e61 3005     +CPI R16 , LOW ( 5 )
000e62 e0e0     +LDI R30 , HIGH ( 5 )
000e63 071e     +CPC R17 , R30
                 	__CPWRN 16,17,5
000e64 f45c      	BRGE _0x20172
                 ; 0001 06FF         IRLINE[i] = 0;
000e65 940e 1d23 	CALL SUBOPT_0x8F
000e67 0fae      	ADD  R26,R30
000e68 1fbf      	ADC  R27,R31
000e69 e0e0      	LDI  R30,LOW(0)
000e6a e0f0      	LDI  R31,HIGH(0)
000e6b 93ed      	ST   X+,R30
000e6c 93fc      	ST   X,R31
                +
000e6d 5f0f     +SUBI R16 , LOW ( - 1 )
000e6e 4f1f     +SBCI R17 , HIGH ( - 1 )
                 	__ADDWRN 16,17,1
000e6f cff1      	RJMP _0x20171
                 _0x20172:
                 ; 0001 0701 for (j = 0; j < 50; j++)
                +
000e70 e020     +LDI R18 , LOW ( 0 )
000e71 e030     +LDI R19 , HIGH ( 0 )
                 	__GETWRN 18,19,0
                 _0x20174:
                +
000e72 3322     +CPI R18 , LOW ( 50 )
000e73 e0e0     +LDI R30 , HIGH ( 50 )
000e74 073e     +CPC R19 , R30
                 	__CPWRN 18,19,50
000e75 f014      	BRLT PC+3
000e76 940c 0ebf 	JMP _0x20175
                 ; 0001 0702         {
                 ; 0001 0703             IRLINE[0]= IRLINE[0]+read_adc(0);
000e78 e0e0      	LDI  R30,LOW(0)
000e79 93ea      	ST   -Y,R30
000e7a 940e 0447 	CALL _read_adc
000e7c 91a0 04be 	LDS  R26,_IRLINE
000e7e 91b0 04bf 	LDS  R27,_IRLINE+1
000e80 0fea      	ADD  R30,R26
000e81 1ffb      	ADC  R31,R27
000e82 93e0 04be 	STS  _IRLINE,R30
000e84 93f0 04bf 	STS  _IRLINE+1,R31
                 ; 0001 0704             IRLINE[1]= IRLINE[1]+read_adc(1);
000e86 e0e1      	LDI  R30,LOW(1)
000e87 93ea      	ST   -Y,R30
000e88 940e 0447 	CALL _read_adc
                +
000e8a 91a0 04c0+LDS R26 , _IRLINE + ( 2 )
000e8c 91b0 04c1+LDS R27 , _IRLINE + ( 2 ) + 1
                 	__GETW2MN _IRLINE,2
000e8e 0fea      	ADD  R30,R26
000e8f 1ffb      	ADC  R31,R27
                +
000e90 93e0 04c0+STS _IRLINE + ( 2 ) , R30
000e92 93f0 04c1+STS _IRLINE + ( 2 ) + 1 , R31
                 	__PUTW1MN _IRLINE,2
                 ; 0001 0705             IRLINE[2]= IRLINE[2]+read_adc(2);
000e94 e0e2      	LDI  R30,LOW(2)
000e95 93ea      	ST   -Y,R30
000e96 940e 0447 	CALL _read_adc
000e98 940e 1d29 	CALL SUBOPT_0x90
000e9a 0fea      	ADD  R30,R26
000e9b 1ffb      	ADC  R31,R27
                +
000e9c 93e0 04c2+STS _IRLINE + ( 4 ) , R30
000e9e 93f0 04c3+STS _IRLINE + ( 4 ) + 1 , R31
                 	__PUTW1MN _IRLINE,4
                 ; 0001 0706             IRLINE[3]= IRLINE[3]+read_adc(3);
000ea0 e0e3      	LDI  R30,LOW(3)
000ea1 93ea      	ST   -Y,R30
000ea2 940e 0447 	CALL _read_adc
                +
000ea4 91a0 04c4+LDS R26 , _IRLINE + ( 6 )
000ea6 91b0 04c5+LDS R27 , _IRLINE + ( 6 ) + 1
                 	__GETW2MN _IRLINE,6
000ea8 0fea      	ADD  R30,R26
000ea9 1ffb      	ADC  R31,R27
                +
000eaa 93e0 04c4+STS _IRLINE + ( 6 ) , R30
000eac 93f0 04c5+STS _IRLINE + ( 6 ) + 1 , R31
                 	__PUTW1MN _IRLINE,6
                 ; 0001 0707             IRLINE[4]= IRLINE[4]+read_adc(7);
000eae e0e7      	LDI  R30,LOW(7)
000eaf 93ea      	ST   -Y,R30
000eb0 940e 0447 	CALL _read_adc
                +
000eb2 91a0 04c6+LDS R26 , _IRLINE + ( 8 )
000eb4 91b0 04c7+LDS R27 , _IRLINE + ( 8 ) + 1
                 	__GETW2MN _IRLINE,8
000eb6 0fea      	ADD  R30,R26
000eb7 1ffb      	ADC  R31,R27
                +
000eb8 93e0 04c6+STS _IRLINE + ( 8 ) , R30
000eba 93f0 04c7+STS _IRLINE + ( 8 ) + 1 , R31
                 	__PUTW1MN _IRLINE,8
                 ; 0001 0708         }
                +
000ebc 5f2f     +SUBI R18 , LOW ( - 1 )
000ebd 4f3f     +SBCI R19 , HIGH ( - 1 )
                 	__ADDWRN 18,19,1
000ebe cfb3      	RJMP _0x20174
                 _0x20175:
                 ; 0001 0709         // get the rounded average of the readings for each sensor
                 ; 0001 070A         for (i = 0; i < 5; i++)
                +
000ebf e000     +LDI R16 , LOW ( 0 )
000ec0 e010     +LDI R17 , HIGH ( 0 )
                 	__GETWRN 16,17,0
                 _0x20177:
                +
000ec1 3005     +CPI R16 , LOW ( 5 )
000ec2 e0e0     +LDI R30 , HIGH ( 5 )
000ec3 071e     +CPC R17 , R30
                 	__CPWRN 16,17,5
000ec4 f4ac      	BRGE _0x20178
                 ; 0001 070B         IRLINE[i] = (IRLINE[i] + (50 >> 1)) /50;
000ec5 940e 1d23 	CALL SUBOPT_0x8F
000ec7 0fea      	ADD  R30,R26
000ec8 1ffb      	ADC  R31,R27
000ec9 01bf      	MOVW R22,R30
000eca 940e 1d23 	CALL SUBOPT_0x8F
000ecc 940e 1d2e 	CALL SUBOPT_0x91
000ece 9679      	ADIW R30,25
000ecf 01df      	MOVW R26,R30
000ed0 e3e2      	LDI  R30,LOW(50)
000ed1 e0f0      	LDI  R31,HIGH(50)
000ed2 940e 20b0 	CALL __DIVW21U
000ed4 01db      	MOVW R26,R22
000ed5 93ed      	ST   X+,R30
000ed6 93fc      	ST   X,R31
                +
000ed7 5f0f     +SUBI R16 , LOW ( - 1 )
000ed8 4f1f     +SBCI R17 , HIGH ( - 1 )
                 	__ADDWRN 16,17,1
000ed9 cfe7      	RJMP _0x20177
                 _0x20178:
                 ; 0001 070C }
000eda c426      	RJMP _0x20C0006
                 ;//========================================================
                 ;void robotwhiteline() //ANALOG OK
                 ; 0001 070F {
                 _robotwhiteline:
                 ; 0001 0710     unsigned char i=0,imax;
                 ; 0001 0711     int imaxlast=0;
                 ; 0001 0712     unsigned int  admax;
                 ; 0001 0713     unsigned int  demled=0;
                 ; 0001 0714     unsigned int flagblindT=0;
                 ; 0001 0715     unsigned int flagblindP=0;
                 ; 0001 0716     DDRA =0x00;
000edb 9726      	SBIW R28,6
000edc 940e 1cce 	CALL SUBOPT_0x7F
000ede e0e0      	LDI  R30,LOW(0)
000edf 83ea      	STD  Y+2,R30
000ee0 83eb      	STD  Y+3,R30
000ee1 83ec      	STD  Y+4,R30
000ee2 83ed      	STD  Y+5,R30
000ee3 940e 216b 	CALL __SAVELOCR6
                 ;	i -> R17
                 ;	imax -> R16
                 ;	imaxlast -> R18,R19
                 ;	admax -> R20,R21
                 ;	demled -> Y+10
                 ;	flagblindT -> Y+8
                 ;	flagblindP -> Y+6
000ee5 e010      	LDI  R17,0
                +
000ee6 e020     +LDI R18 , LOW ( 0 )
000ee7 e030     +LDI R19 , HIGH ( 0 )
                 	__GETWRN 18,19,0
000ee8 940e 19e6 	CALL SUBOPT_0x38
                 ; 0001 0717     PORTA=0x00;
                 ; 0001 0718 
                 ; 0001 0719         LcdClear();
000eea 940e 1d0a 	CALL SUBOPT_0x8A
                 ; 0001 071A         hc(0,1);
000eec 940e 1cfa 	CALL SUBOPT_0x87
000eee 940e 0388 	CALL _hc
                 ; 0001 071B         ws ("WHITE LINE");
                +
000ef0 e7e7     +LDI R30 , LOW ( _0x20179 + ( 0 ) )
000ef1 e0f2     +LDI R31 , HIGH ( _0x20179 + ( 0 ) )
                 	__POINTW1MN _0x20179,0
000ef2 940e 18d5 	CALL SUBOPT_0xE
                 ; 0001 071C         hc(1,10);
000ef4 940e 1cfa 	CALL SUBOPT_0x87
000ef6 940e 1a79 	CALL SUBOPT_0x49
000ef8 940e 0388 	CALL _hc
                 ; 0001 071D         ws ("FOLOWER");
                +
000efa e8e2     +LDI R30 , LOW ( _0x20179 + ( 11 ) )
000efb e0f2     +LDI R31 , HIGH ( _0x20179 + ( 11 ) )
                 	__POINTW1MN _0x20179,11
000efc 940e 18d5 	CALL SUBOPT_0xE
                 ; 0001 071E         LEDL=1;LEDR=1;
000efe 9aac      	SBI  0x15,4
000eff 9aad      	SBI  0x15,5
                 ; 0001 071F         //doc va khoi dong gia tri cho imaxlast
                 ; 0001 0720          readline();
000f00 940e 1d33 	CALL SUBOPT_0x92
                 ; 0001 0721         admax = IRLINE[0];imax=0;
                 ; 0001 0722         for(i=1;i<5;i++){if(admax<IRLINE[i]){admax=IRLINE[i];imax=i;}}
                 _0x2017F:
000f02 3015      	CPI  R17,5
000f03 f468      	BRSH _0x20180
000f04 940e 1d3c 	CALL SUBOPT_0x93
000f06 940e 1d2e 	CALL SUBOPT_0x91
000f08 174e      	CP   R20,R30
000f09 075f      	CPC  R21,R31
000f0a f420      	BRSH _0x20181
000f0b 940e 1d3c 	CALL SUBOPT_0x93
000f0d 940e 1d43 	CALL SUBOPT_0x94
                 _0x20181:
000f0f 5f1f      	SUBI R17,-1
000f10 cff1      	RJMP _0x2017F
                 _0x20180:
                 ; 0001 0723         imaxlast=imax;
000f11 2f20      	MOV  R18,R16
000f12 2733      	CLR  R19
                 ; 0001 0724    while(keyKT!=0)
                 _0x20182:
000f13 9b98      	SBIS 0x13,0
000f14 c0c1      	RJMP _0x20184
                 ; 0001 0725    {
                 ; 0001 0726         //doc gia tri cam bien
                 ; 0001 0727         readline();
000f15 940e 1d33 	CALL SUBOPT_0x92
                 ; 0001 0728         admax = IRLINE[0];imax=0;
                 ; 0001 0729         for(i=1;i<5;i++){if(admax<IRLINE[i]){admax=IRLINE[i];imax=i;}}
                 _0x20186:
000f17 3015      	CPI  R17,5
000f18 f468      	BRSH _0x20187
000f19 940e 1d3c 	CALL SUBOPT_0x93
000f1b 940e 1d2e 	CALL SUBOPT_0x91
000f1d 174e      	CP   R20,R30
000f1e 075f      	CPC  R21,R31
000f1f f420      	BRSH _0x20188
000f20 940e 1d3c 	CALL SUBOPT_0x93
000f22 940e 1d43 	CALL SUBOPT_0x94
                 _0x20188:
000f24 5f1f      	SUBI R17,-1
000f25 cff1      	RJMP _0x20186
                 _0x20187:
                 ; 0001 072A           //imax=2;
                 ; 0001 072B          if((imax-imaxlast > 1)||(imax-imaxlast <-1))  //tranh truong hop nhay bo trang thai
000f26 940e 1d49 	CALL SUBOPT_0x95
000f28 1be2      	SUB  R30,R18
000f29 0bf3      	SBC  R31,R19
000f2a 01df      	MOVW R26,R30
000f2b 9732      	SBIW R30,2
000f2c f42c      	BRGE _0x2018A
000f2d 01fd      	MOVW R30,R26
000f2e 3fef      	CPI  R30,LOW(0xFFFF)
000f2f efaf      	LDI  R26,HIGH(0xFFFF)
000f30 07fa      	CPC  R31,R26
000f31 f40c      	BRGE _0x20189
                 _0x2018A:
                 ; 0001 072C         {
                 ; 0001 072D         }
                 ; 0001 072E         else
000f32 c034      	RJMP _0x2018C
                 _0x20189:
                 ; 0001 072F         {
                 ; 0001 0730             switch(imax)
000f33 940e 1d49 	CALL SUBOPT_0x95
                 ; 0001 0731             {
                 ; 0001 0732               case 0:
000f35 9730      	SBIW R30,0
000f36 f449      	BRNE _0x20190
                 ; 0001 0733                   vMLtoi(1); vMRtoi(20) ;
000f37 940e 1d4c 	CALL SUBOPT_0x96
000f39 940e 1d50 	CALL SUBOPT_0x97
                 ; 0001 0734                   //flagblindT = 0;
                 ; 0001 0735                   flagblindP = 1;
000f3b e0e1      	LDI  R30,LOW(1)
000f3c e0f0      	LDI  R31,HIGH(1)
000f3d 83ee      	STD  Y+6,R30
000f3e 83ff      	STD  Y+6+1,R31
                 ; 0001 0736                 break;
000f3f c025      	RJMP _0x2018F
                 ; 0001 0737               case 1:
                 _0x20190:
000f40 30e1      	CPI  R30,LOW(0x1)
000f41 e0a0      	LDI  R26,HIGH(0x1)
000f42 07fa      	CPC  R31,R26
000f43 f429      	BRNE _0x20191
                 ; 0001 0738                   vMLtoi(1); vMRtoi(15) ;
000f44 940e 1d4c 	CALL SUBOPT_0x96
000f46 940e 1d54 	CALL SUBOPT_0x98
                 ; 0001 0739                 break;
000f48 c01c      	RJMP _0x2018F
                 ; 0001 073A               case 2:
                 _0x20191:
000f49 30e2      	CPI  R30,LOW(0x2)
000f4a e0a0      	LDI  R26,HIGH(0x2)
000f4b 07fa      	CPC  R31,R26
000f4c f429      	BRNE _0x20192
                 ; 0001 073B                   vMLtoi(15);vMRtoi(15) ;
000f4d 940e 1d58 	CALL SUBOPT_0x99
000f4f 940e 1d54 	CALL SUBOPT_0x98
                 ; 0001 073C                 break;
000f51 c013      	RJMP _0x2018F
                 ; 0001 073D               case 3:
                 _0x20192:
000f52 30e3      	CPI  R30,LOW(0x3)
000f53 e0a0      	LDI  R26,HIGH(0x3)
000f54 07fa      	CPC  R31,R26
000f55 f429      	BRNE _0x20193
                 ; 0001 073E                  vMLtoi(15); vMRtoi(1) ;
000f56 940e 1d58 	CALL SUBOPT_0x99
000f58 940e 1d5c 	CALL SUBOPT_0x9A
                 ; 0001 073F                 break;
000f5a c00a      	RJMP _0x2018F
                 ; 0001 0740               case 4:
                 _0x20193:
000f5b 30e4      	CPI  R30,LOW(0x4)
000f5c e0a0      	LDI  R26,HIGH(0x4)
000f5d 07fa      	CPC  R31,R26
000f5e f431      	BRNE _0x20195
                 ; 0001 0741                   vMLtoi(20);vMRtoi(1)  ;
000f5f 940e 1d60 	CALL SUBOPT_0x9B
                 ; 0001 0742                   flagblindT = 1;
000f61 e0e1      	LDI  R30,LOW(1)
000f62 e0f0      	LDI  R31,HIGH(1)
000f63 87e8      	STD  Y+8,R30
000f64 87f9      	STD  Y+8+1,R31
                 ; 0001 0743                   //flagblindP = 0;
                 ; 0001 0744                 break;
                 ; 0001 0745               default:
                 _0x20195:
                 ; 0001 0746                  // vMLtoi(5); vMRtoi(5) ;
                 ; 0001 0747                 break;
                 ; 0001 0748             }
                 _0x2018F:
                 ; 0001 0749              imaxlast=imax;
000f65 2f20      	MOV  R18,R16
000f66 2733      	CLR  R19
                 ; 0001 074A         }
                 _0x2018C:
                 ; 0001 074B 
                 ; 0001 074C             while(flagblindT ==1 && keyKT!=0) //lac duong ben trai
                 _0x20196:
000f67 85a8      	LDD  R26,Y+8
000f68 85b9      	LDD  R27,Y+8+1
000f69 9711      	SBIW R26,1
000f6a f419      	BRNE _0x20199
000f6b 940e 1d65 	CALL SUBOPT_0x9C
000f6d f409      	BRNE _0x2019A
                 _0x20199:
000f6e c01f      	RJMP _0x20198
                 _0x2019A:
                 ; 0001 074D             {
                 ; 0001 074E                vMLtoi(20);vMRtoi(1)  ;
000f6f 940e 1d60 	CALL SUBOPT_0x9B
                 ; 0001 074F                 readline();
000f71 940e 1d33 	CALL SUBOPT_0x92
                 ; 0001 0750                 admax = IRLINE[0];imax=0;
                 ; 0001 0751                 for(i=1;i<5;i++){if(admax<IRLINE[i]){admax=IRLINE[i];imax=i;}}
                 _0x2019C:
000f73 3015      	CPI  R17,5
000f74 f468      	BRSH _0x2019D
000f75 940e 1d3c 	CALL SUBOPT_0x93
000f77 940e 1d2e 	CALL SUBOPT_0x91
000f79 174e      	CP   R20,R30
000f7a 075f      	CPC  R21,R31
000f7b f420      	BRSH _0x2019E
000f7c 940e 1d3c 	CALL SUBOPT_0x93
000f7e 940e 1d43 	CALL SUBOPT_0x94
                 _0x2019E:
000f80 5f1f      	SUBI R17,-1
000f81 cff1      	RJMP _0x2019C
                 _0x2019D:
                 ; 0001 0752                 imaxlast=imax;
000f82 2f20      	MOV  R18,R16
000f83 2733      	CLR  R19
                 ; 0001 0753                if(IRLINE[2]>500)  flagblindT=0;
000f84 940e 1d29 	CALL SUBOPT_0x90
000f86 3fa5      	CPI  R26,LOW(0x1F5)
000f87 e0e1      	LDI  R30,HIGH(0x1F5)
000f88 07be      	CPC  R27,R30
000f89 f018      	BRLO _0x2019F
000f8a e0e0      	LDI  R30,LOW(0)
000f8b 87e8      	STD  Y+8,R30
000f8c 87e9      	STD  Y+8+1,R30
                 ; 0001 0754 
                 ; 0001 0755 
                 ; 0001 0756             }
                 _0x2019F:
000f8d cfd9      	RJMP _0x20196
                 _0x20198:
                 ; 0001 0757             while(flagblindP ==1 && keyKT!=0 ) //lac duong ben phai
                 _0x201A0:
000f8e 81ae      	LDD  R26,Y+6
000f8f 81bf      	LDD  R27,Y+6+1
000f90 9711      	SBIW R26,1
000f91 f419      	BRNE _0x201A3
000f92 940e 1d65 	CALL SUBOPT_0x9C
000f94 f409      	BRNE _0x201A4
                 _0x201A3:
000f95 c021      	RJMP _0x201A2
                 _0x201A4:
                 ; 0001 0758             {
                 ; 0001 0759                vMLtoi(1);vMRtoi(20)  ;
000f96 940e 1d4c 	CALL SUBOPT_0x96
000f98 940e 1d50 	CALL SUBOPT_0x97
                 ; 0001 075A                 readline();
000f9a 940e 1d33 	CALL SUBOPT_0x92
                 ; 0001 075B                 admax = IRLINE[0];imax=0;
                 ; 0001 075C                 for(i=1;i<5;i++){if(admax<IRLINE[i]){admax=IRLINE[i];imax=i;}}
                 _0x201A6:
000f9c 3015      	CPI  R17,5
000f9d f468      	BRSH _0x201A7
000f9e 940e 1d3c 	CALL SUBOPT_0x93
000fa0 940e 1d2e 	CALL SUBOPT_0x91
000fa2 174e      	CP   R20,R30
000fa3 075f      	CPC  R21,R31
000fa4 f420      	BRSH _0x201A8
000fa5 940e 1d3c 	CALL SUBOPT_0x93
000fa7 940e 1d43 	CALL SUBOPT_0x94
                 _0x201A8:
000fa9 5f1f      	SUBI R17,-1
000faa cff1      	RJMP _0x201A6
                 _0x201A7:
                 ; 0001 075D                 imaxlast=imax;
000fab 2f20      	MOV  R18,R16
000fac 2733      	CLR  R19
                 ; 0001 075E                if(IRLINE[2]>500)  flagblindP=0;
000fad 940e 1d29 	CALL SUBOPT_0x90
000faf 3fa5      	CPI  R26,LOW(0x1F5)
000fb0 e0e1      	LDI  R30,HIGH(0x1F5)
000fb1 07be      	CPC  R27,R30
000fb2 f018      	BRLO _0x201A9
000fb3 e0e0      	LDI  R30,LOW(0)
000fb4 83ee      	STD  Y+6,R30
000fb5 83ef      	STD  Y+6+1,R30
                 ; 0001 075F 
                 ; 0001 0760             }
                 _0x201A9:
000fb6 cfd7      	RJMP _0x201A0
                 _0x201A2:
                 ; 0001 0761         hc(3,10);wn16s(imax);
000fb7 940e 1cf0 	CALL SUBOPT_0x85
000fb9 940e 1a79 	CALL SUBOPT_0x49
000fbb 940e 0388 	CALL _hc
000fbd 940e 1d49 	CALL SUBOPT_0x95
000fbf 940e 1ce2 	CALL SUBOPT_0x82
                 ; 0001 0762         hc(4,10);wn16s(admax);
000fc1 940e 1ce6 	CALL SUBOPT_0x83
000fc3 940e 1a79 	CALL SUBOPT_0x49
000fc5 940e 1d6a 	CALL SUBOPT_0x9D
                 ; 0001 0763 
                 ; 0001 0764        demled++;
000fc7 85ea      	LDD  R30,Y+10
000fc8 85fb      	LDD  R31,Y+10+1
000fc9 9631      	ADIW R30,1
000fca 87ea      	STD  Y+10,R30
000fcb 87fb      	STD  Y+10+1,R31
                 ; 0001 0765        if(demled>30){demled=0;LEDLtoggle();LEDRtoggle(); }
000fcc 85aa      	LDD  R26,Y+10
000fcd 85bb      	LDD  R27,Y+10+1
000fce 975f      	SBIW R26,31
000fcf f028      	BRLO _0x201AA
000fd0 e0e0      	LDI  R30,LOW(0)
000fd1 87ea      	STD  Y+10,R30
000fd2 87eb      	STD  Y+10+1,R30
000fd3 940e 1d1f 	CALL SUBOPT_0x8E
                 ; 0001 0766    }
                 _0x201AA:
000fd5 cf3d      	RJMP _0x20182
                 _0x20184:
                 ; 0001 0767 }
000fd6 940e 2172 	CALL __LOADLOCR6
000fd8 962c      	ADIW R28,12
000fd9 9508      	RET
                 
                 	.DSEG
                 _0x20179:
000277           	.BYTE 0x13
                 ;
                 ;//========================================================
                 ;void robotblackline() //ANALOG OK
                 ; 0001 076B {
                 
                 	.CSEG
                 _robotblackline:
                 ; 0001 076C     long int lastvalueline=0, valueline=0,value=0,online=0;
                 ; 0001 076D     int i=0,j=0
                 ; 0001 076E     ,imin=0;
                 ; 0001 076F     long int avrg=0,sum=0 ;
                 ; 0001 0770     unsigned int admin;
                 ; 0001 0771      unsigned char imax;
                 ; 0001 0772     int imaxlast=0;
                 ; 0001 0773     unsigned int  admax;
                 ; 0001 0774     unsigned int demled=0;
                 ; 0001 0775     unsigned int flagblindT=0;
                 ; 0001 0776     unsigned int flagblindP=0;
                 ; 0001 0777     float udk,sumi=0,err,lasterr;
                 ; 0001 0778 
                 ; 0001 0779     int iminlast=0;
                 ; 0001 077A     DDRA =0x00;
000fda 97e7      	SBIW R28,55
000fdb e387      	LDI  R24,55
000fdc e0a0      	LDI  R26,LOW(0)
000fdd e0b0      	LDI  R27,HIGH(0)
000fde e4ee      	LDI  R30,LOW(_0x201AB*2)
000fdf e0f2      	LDI  R31,HIGH(_0x201AB*2)
000fe0 940e 2179 	CALL __INITLOCB
000fe2 940e 216b 	CALL __SAVELOCR6
                 ;	lastvalueline -> Y+57
                 ;	valueline -> Y+53
                 ;	value -> Y+49
                 ;	online -> Y+45
                 ;	i -> R16,R17
                 ;	j -> R18,R19
                 ;	imin -> R20,R21
                 ;	avrg -> Y+41
                 ;	sum -> Y+37
                 ;	admin -> Y+35
                 ;	imax -> Y+34
                 ;	imaxlast -> Y+32
                 ;	admax -> Y+30
                 ;	demled -> Y+28
                 ;	flagblindT -> Y+26
                 ;	flagblindP -> Y+24
                 ;	udk -> Y+20
                 ;	sumi -> Y+16
                 ;	err -> Y+12
                 ;	lasterr -> Y+8
                 ;	iminlast -> Y+6
                +
000fe4 e000     +LDI R16 , LOW ( 0 )
000fe5 e010     +LDI R17 , HIGH ( 0 )
                 	__GETWRN 16,17,0
                +
000fe6 e020     +LDI R18 , LOW ( 0 )
000fe7 e030     +LDI R19 , HIGH ( 0 )
                 	__GETWRN 18,19,0
                +
000fe8 e040     +LDI R20 , LOW ( 0 )
000fe9 e050     +LDI R21 , HIGH ( 0 )
                 	__GETWRN 20,21,0
000fea 940e 19e6 	CALL SUBOPT_0x38
                 ; 0001 077B     PORTA=0x00;
                 ; 0001 077C 
                 ; 0001 077D         LcdClear();
000fec 940e 1d0a 	CALL SUBOPT_0x8A
                 ; 0001 077E         hc(0,1);
000fee 940e 1cfa 	CALL SUBOPT_0x87
000ff0 940e 0388 	CALL _hc
                 ; 0001 077F         ws ("BLACK LINE");
                +
000ff2 e8ea     +LDI R30 , LOW ( _0x201AC + ( 0 ) )
000ff3 e0f2     +LDI R31 , HIGH ( _0x201AC + ( 0 ) )
                 	__POINTW1MN _0x201AC,0
000ff4 940e 18d5 	CALL SUBOPT_0xE
                 ; 0001 0780         hc(1,10);
000ff6 940e 1cfa 	CALL SUBOPT_0x87
000ff8 940e 1a79 	CALL SUBOPT_0x49
000ffa 940e 0388 	CALL _hc
                 ; 0001 0781         ws ("FOLOWER");
                +
000ffc e9e5     +LDI R30 , LOW ( _0x201AC + ( 11 ) )
000ffd e0f2     +LDI R31 , HIGH ( _0x201AC + ( 11 ) )
                 	__POINTW1MN _0x201AC,11
000ffe 940e 18d5 	CALL SUBOPT_0xE
                 ; 0001 0782         LEDL=1;LEDR=1;
001000 9aac      	SBI  0x15,4
001001 9aad      	SBI  0x15,5
                 ; 0001 0783 
                 ; 0001 0784         //doc lan dau tien  de khoi dong gia tri iminlast;
                 ; 0001 0785         readline();
001002 940e 1d70 	CALL SUBOPT_0x9E
                 ; 0001 0786         admin = IRLINE[0];imin=0;
                 ; 0001 0787         for(i=1;i<5;i++){if(admin>IRLINE[i]){admin=IRLINE[i];imin=i;}}
                 _0x201B2:
                +
001004 3005     +CPI R16 , LOW ( 5 )
001005 e0e0     +LDI R30 , HIGH ( 5 )
001006 071e     +CPC R17 , R30
                 	__CPWRN 16,17,5
001007 f48c      	BRGE _0x201B3
001008 940e 1d23 	CALL SUBOPT_0x8F
00100a 940e 1d2e 	CALL SUBOPT_0x91
00100c 940e 1d7d 	CALL SUBOPT_0x9F
00100e f438      	BRSH _0x201B4
00100f 940e 1d23 	CALL SUBOPT_0x8F
001011 940e 1d2e 	CALL SUBOPT_0x91
001013 a3eb      	STD  Y+35,R30
001014 a3fc      	STD  Y+35+1,R31
001015 01a8      	MOVW R20,R16
                 _0x201B4:
                +
001016 5f0f     +SUBI R16 , LOW ( - 1 )
001017 4f1f     +SBCI R17 , HIGH ( - 1 )
                 	__ADDWRN 16,17,1
001018 cfeb      	RJMP _0x201B2
                 _0x201B3:
                 ; 0001 0788         iminlast=imin;
                +
001019 834e     +STD Y + 6 , R20
00101a 835f     +STD Y + 6 + 1 , R21
                 	__PUTWSR 20,21,6
                 ; 0001 0789         admin = 1024;
00101b e0e0      	LDI  R30,LOW(1024)
00101c e0f4      	LDI  R31,HIGH(1024)
00101d a3eb      	STD  Y+35,R30
00101e a3fc      	STD  Y+35+1,R31
                 ; 0001 078A         admax = 0;
00101f 8fee      	STD  Y+30,R30
001020 8fef      	STD  Y+30+1,R30
                 ; 0001 078B    //calib
                 ; 0001 078C    while(keyKT!=0)
                 _0x201B5:
001021 9b98      	SBIS 0x13,0
001022 c042      	RJMP _0x201B7
                 ; 0001 078D    {
                 ; 0001 078E       //doc gia tri cam bien
                 ; 0001 078F       readline();
001023 de35      	RCALL _readline
                 ; 0001 0790 
                 ; 0001 0791       for(i=1;i<5;i++){if(admin>IRLINE[i]){admin=IRLINE[i];imin=i;}}
                +
001024 e001     +LDI R16 , LOW ( 1 )
001025 e010     +LDI R17 , HIGH ( 1 )
                 	__GETWRN 16,17,1
                 _0x201B9:
                +
001026 3005     +CPI R16 , LOW ( 5 )
001027 e0e0     +LDI R30 , HIGH ( 5 )
001028 071e     +CPC R17 , R30
                 	__CPWRN 16,17,5
001029 f48c      	BRGE _0x201BA
00102a 940e 1d23 	CALL SUBOPT_0x8F
00102c 940e 1d2e 	CALL SUBOPT_0x91
00102e 940e 1d7d 	CALL SUBOPT_0x9F
001030 f438      	BRSH _0x201BB
001031 940e 1d23 	CALL SUBOPT_0x8F
001033 940e 1d2e 	CALL SUBOPT_0x91
001035 a3eb      	STD  Y+35,R30
001036 a3fc      	STD  Y+35+1,R31
001037 01a8      	MOVW R20,R16
                 _0x201BB:
                +
001038 5f0f     +SUBI R16 , LOW ( - 1 )
001039 4f1f     +SBCI R17 , HIGH ( - 1 )
                 	__ADDWRN 16,17,1
00103a cfeb      	RJMP _0x201B9
                 _0x201BA:
                 ; 0001 0792       //hc(3,10);wn16s(admin);
                 ; 0001 0793       hc(3,10);wn16s(admin);
00103b 940e 1cf0 	CALL SUBOPT_0x85
00103d 940e 1a79 	CALL SUBOPT_0x49
00103f 940e 1d82 	CALL SUBOPT_0xA0
                 ; 0001 0794 
                 ; 0001 0795       for(i=1;i<5;i++){if(admax<IRLINE[i]){admax=IRLINE[i];imax=i;}}
                +
001041 e001     +LDI R16 , LOW ( 1 )
001042 e010     +LDI R17 , HIGH ( 1 )
                 	__GETWRN 16,17,1
                 _0x201BD:
                +
001043 3005     +CPI R16 , LOW ( 5 )
001044 e0e0     +LDI R30 , HIGH ( 5 )
001045 071e     +CPC R17 , R30
                 	__CPWRN 16,17,5
001046 f49c      	BRGE _0x201BE
001047 940e 1d23 	CALL SUBOPT_0x8F
001049 940e 1d2e 	CALL SUBOPT_0x91
00104b 8dae      	LDD  R26,Y+30
00104c 8dbf      	LDD  R27,Y+30+1
00104d 17ae      	CP   R26,R30
00104e 07bf      	CPC  R27,R31
00104f f438      	BRSH _0x201BF
001050 940e 1d23 	CALL SUBOPT_0x8F
001052 940e 1d2e 	CALL SUBOPT_0x91
001054 8fee      	STD  Y+30,R30
001055 8fff      	STD  Y+30+1,R31
                +
001056 a30a     +STD Y + 34 , R16
                 	__PUTBSR 16,34
                 _0x201BF:
                +
001057 5f0f     +SUBI R16 , LOW ( - 1 )
001058 4f1f     +SBCI R17 , HIGH ( - 1 )
                 	__ADDWRN 16,17,1
001059 cfe9      	RJMP _0x201BD
                 _0x201BE:
                 ; 0001 0796       hc(4,10);wn16s(admax);
00105a 940e 1ce6 	CALL SUBOPT_0x83
00105c 940e 1a79 	CALL SUBOPT_0x49
00105e 940e 0388 	CALL _hc
001060 8dee      	LDD  R30,Y+30
001061 8dff      	LDD  R31,Y+30+1
001062 940e 1ce2 	CALL SUBOPT_0x82
                 ; 0001 0797    }
001064 cfbc      	RJMP _0x201B5
                 _0x201B7:
                 ; 0001 0798    //test gia tri doc line
                 ; 0001 0799    online=0;
001065 e0e0      	LDI  R30,LOW(0)
                +
001066 a7ed     +STD Y + 45 , R30
001067 a7ee     +STD Y + 45 + 1 , R30
001068 a7ef     +STD Y + 45 + 2 , R30
001069 abe8     +STD Y + 45 + 3 , R30
                 	__CLRD1S 45
                 ; 0001 079A    while(1)
                 _0x201C0:
                 ; 0001 079B    {
                 ; 0001 079C       //doc gia tri cam bien
                 ; 0001 079D       readline();
00106a ddee      	RCALL _readline
                 ; 0001 079E       for(i=0;i<5;i++)
                +
00106b e000     +LDI R16 , LOW ( 0 )
00106c e010     +LDI R17 , HIGH ( 0 )
                 	__GETWRN 16,17,0
                 _0x201C4:
                +
00106d 3005     +CPI R16 , LOW ( 5 )
00106e e0e0     +LDI R30 , HIGH ( 5 )
00106f 071e     +CPC R17 , R30
                 	__CPWRN 16,17,5
001070 f014      	BRLT PC+3
001071 940c 10ba 	JMP _0x201C5
                 ; 0001 079F       {
                 ; 0001 07A0          value=IRLINE[i];
001073 940e 1d23 	CALL SUBOPT_0x8F
001075 940e 1d2e 	CALL SUBOPT_0x91
001077 2766      	CLR  R22
001078 2777      	CLR  R23
                +
001079 abe9     +STD Y + 49 , R30
00107a abfa     +STD Y + 49 + 1 , R31
00107b ab6b     +STD Y + 49 + 2 , R22
00107c ab7c     +STD Y + 49 + 3 , R23
                 	__PUTD1S 49
                 ; 0001 07A1          if(value<280) online=1;
                +
00107d a9a9     +LDD R26 , Y + 49
00107e a9ba     +LDD R27 , Y + 49 + 1
00107f a98b     +LDD R24 , Y + 49 + 2
001080 a99c     +LDD R25 , Y + 49 + 3
                 	__GETD2S 49
                +
001081 31a8     +CPI R26 , LOW ( 0x118 )
001082 e0e1     +LDI R30 , HIGH ( 0x118 )
001083 07be     +CPC R27 , R30
001084 e0e0     +LDI R30 , BYTE3 ( 0x118 )
001085 078e     +CPC R24 , R30
001086 e0e0     +LDI R30 , BYTE4 ( 0x118 )
001087 079e     +CPC R25 , R30
                 	__CPD2N 0x118
001088 f444      	BRGE _0x201C6
                +
001089 e0e1     +LDI R30 , LOW ( 0x1 )
00108a e0f0     +LDI R31 , HIGH ( 0x1 )
00108b e060     +LDI R22 , BYTE3 ( 0x1 )
00108c e070     +LDI R23 , BYTE4 ( 0x1 )
                 	__GETD1N 0x1
                +
00108d a7ed     +STD Y + 45 , R30
00108e a7fe     +STD Y + 45 + 1 , R31
00108f a76f     +STD Y + 45 + 2 , R22
001090 ab78     +STD Y + 45 + 3 , R23
                 	__PUTD1S 45
                 ; 0001 07A2          avrg = avrg+i*1000*value;
                 _0x201C6:
001091 01f8      	MOVW R30,R16
001092 eea8      	LDI  R26,LOW(1000)
001093 e0b3      	LDI  R27,HIGH(1000)
001094 940e 20a6 	CALL __MULW12
001096 01df      	MOVW R26,R30
                +
001097 a9e9     +LDD R30 , Y + 49
001098 a9fa     +LDD R31 , Y + 49 + 1
001099 a96b     +LDD R22 , Y + 49 + 2
00109a a97c     +LDD R23 , Y + 49 + 3
                 	__GETD1S 49
00109b 940e 2073 	CALL __CWD2
00109d 940e 20ab 	CALL __MULD12
                +
00109f a5a9     +LDD R26 , Y + 41
0010a0 a5ba     +LDD R27 , Y + 41 + 1
0010a1 a58b     +LDD R24 , Y + 41 + 2
0010a2 a59c     +LDD R25 , Y + 41 + 3
                 	__GETD2S 41
0010a3 940e 2058 	CALL __ADDD12
                +
0010a5 a7e9     +STD Y + 41 , R30
0010a6 a7fa     +STD Y + 41 + 1 , R31
0010a7 a76b     +STD Y + 41 + 2 , R22
0010a8 a77c     +STD Y + 41 + 3 , R23
                 	__PUTD1S 41
                 ; 0001 07A3          sum = sum+value;
                +
0010a9 a9e9     +LDD R30 , Y + 49
0010aa a9fa     +LDD R31 , Y + 49 + 1
0010ab a96b     +LDD R22 , Y + 49 + 2
0010ac a97c     +LDD R23 , Y + 49 + 3
                 	__GETD1S 49
                +
0010ad a1ad     +LDD R26 , Y + 37
0010ae a1be     +LDD R27 , Y + 37 + 1
0010af a18f     +LDD R24 , Y + 37 + 2
0010b0 a598     +LDD R25 , Y + 37 + 3
                 	__GETD2S 37
0010b1 940e 2058 	CALL __ADDD12
                +
0010b3 a3ed     +STD Y + 37 , R30
0010b4 a3fe     +STD Y + 37 + 1 , R31
0010b5 a36f     +STD Y + 37 + 2 , R22
0010b6 a778     +STD Y + 37 + 3 , R23
                 	__PUTD1S 37
                 ; 0001 07A4       }
                +
0010b7 5f0f     +SUBI R16 , LOW ( - 1 )
0010b8 4f1f     +SBCI R17 , HIGH ( - 1 )
                 	__ADDWRN 16,17,1
0010b9 cfb3      	RJMP _0x201C4
                 _0x201C5:
                 ; 0001 07A5       //hc(1,10);wn16s(online);
                 ; 0001 07A6       if(online==1)
                +
0010ba a5ad     +LDD R26 , Y + 45
0010bb a5be     +LDD R27 , Y + 45 + 1
0010bc a58f     +LDD R24 , Y + 45 + 2
0010bd a998     +LDD R25 , Y + 45 + 3
                 	__GETD2S 45
                +
0010be 30a1     +CPI R26 , LOW ( 0x1 )
0010bf e0e0     +LDI R30 , HIGH ( 0x1 )
0010c0 07be     +CPC R27 , R30
0010c1 e0e0     +LDI R30 , BYTE3 ( 0x1 )
0010c2 078e     +CPC R24 , R30
0010c3 e0e0     +LDI R30 , BYTE4 ( 0x1 )
0010c4 079e     +CPC R25 , R30
                 	__CPD2N 0x1
0010c5 f501      	BRNE _0x201C7
                 ; 0001 07A7       {
                 ; 0001 07A8          valueline=(int)(avrg/ sum);
                +
0010c6 a1ed     +LDD R30 , Y + 37
0010c7 a1fe     +LDD R31 , Y + 37 + 1
0010c8 a16f     +LDD R22 , Y + 37 + 2
0010c9 a578     +LDD R23 , Y + 37 + 3
                 	__GETD1S 37
                +
0010ca a5a9     +LDD R26 , Y + 41
0010cb a5ba     +LDD R27 , Y + 41 + 1
0010cc a58b     +LDD R24 , Y + 41 + 2
0010cd a59c     +LDD R25 , Y + 41 + 3
                 	__GETD2S 41
0010ce 940e 20ed 	CALL __DIVD21
0010d0 2766      	CLR  R22
0010d1 2777      	CLR  R23
0010d2 940e 206e 	CALL __CWD1
                +
0010d4 abed     +STD Y + 53 , R30
0010d5 abfe     +STD Y + 53 + 1 , R31
0010d6 ab6f     +STD Y + 53 + 2 , R22
0010d7 af78     +STD Y + 53 + 3 , R23
                 	__PUTD1S 53
                 ; 0001 07A9         // hc(2,10);wn16s(valueline);
                 ; 0001 07AA          online=0;
0010d8 e0e0      	LDI  R30,LOW(0)
                +
0010d9 a7ed     +STD Y + 45 , R30
0010da a7ee     +STD Y + 45 + 1 , R30
0010db a7ef     +STD Y + 45 + 2 , R30
0010dc abe8     +STD Y + 45 + 3 , R30
                 	__CLRD1S 45
                 ; 0001 07AB          avrg=0;
                +
0010dd a7e9     +STD Y + 41 , R30
0010de a7ea     +STD Y + 41 + 1 , R30
0010df a7eb     +STD Y + 41 + 2 , R30
0010e0 a7ec     +STD Y + 41 + 3 , R30
                 	__CLRD1S 41
                 ; 0001 07AC          sum=0;
                +
0010e1 a3ed     +STD Y + 37 , R30
0010e2 a3ee     +STD Y + 37 + 1 , R30
0010e3 a3ef     +STD Y + 37 + 2 , R30
0010e4 a7e8     +STD Y + 37 + 3 , R30
                 	__CLRD1S 37
                 ; 0001 07AD       }else
0010e5 c019      	RJMP _0x201C8
                 _0x201C7:
                 ; 0001 07AE       {
                 ; 0001 07AF          if(lastvalueline>1935)
                +
0010e6 ada9     +LDD R26 , Y + 57
0010e7 adba     +LDD R27 , Y + 57 + 1
0010e8 ad8b     +LDD R24 , Y + 57 + 2
0010e9 ad9c     +LDD R25 , Y + 57 + 3
                 	__GETD2S 57
                +
0010ea 39a0     +CPI R26 , LOW ( 0x790 )
0010eb e0e7     +LDI R30 , HIGH ( 0x790 )
0010ec 07be     +CPC R27 , R30
0010ed e0e0     +LDI R30 , BYTE3 ( 0x790 )
0010ee 078e     +CPC R24 , R30
0010ef e0e0     +LDI R30 , BYTE4 ( 0x790 )
0010f0 079e     +CPC R25 , R30
                 	__CPD2N 0x790
0010f1 f02c      	BRLT _0x201C9
                 ; 0001 07B0          valueline=2000;
                +
0010f2 ede0     +LDI R30 , LOW ( 0x7D0 )
0010f3 e0f7     +LDI R31 , HIGH ( 0x7D0 )
0010f4 e060     +LDI R22 , BYTE3 ( 0x7D0 )
0010f5 e070     +LDI R23 , BYTE4 ( 0x7D0 )
                 	__GETD1N 0x7D0
0010f6 c004      	RJMP _0x202DD
                 ; 0001 07B1          else
                 _0x201C9:
                 ; 0001 07B2          valueline=1800;
                +
0010f7 e0e8     +LDI R30 , LOW ( 0x708 )
0010f8 e0f7     +LDI R31 , HIGH ( 0x708 )
0010f9 e060     +LDI R22 , BYTE3 ( 0x708 )
0010fa e070     +LDI R23 , BYTE4 ( 0x708 )
                 	__GETD1N 0x708
                 _0x202DD:
                +
0010fb abed     +STD Y + 53 , R30
0010fc abfe     +STD Y + 53 + 1 , R31
0010fd ab6f     +STD Y + 53 + 2 , R22
0010fe af78     +STD Y + 53 + 3 , R23
                 	__PUTD1S 53
                 ; 0001 07B3       }
                 _0x201C8:
                 ; 0001 07B4       err = 1935-valueline;
                +
0010ff a9ad     +LDD R26 , Y + 53
001100 a9be     +LDD R27 , Y + 53 + 1
001101 a98f     +LDD R24 , Y + 53 + 2
001102 ad98     +LDD R25 , Y + 53 + 3
                 	__GETD2S 53
                +
001103 e8ef     +LDI R30 , LOW ( 0x78F )
001104 e0f7     +LDI R31 , HIGH ( 0x78F )
001105 e060     +LDI R22 , BYTE3 ( 0x78F )
001106 e070     +LDI R23 , BYTE4 ( 0x78F )
                 	__GETD1N 0x78F
001107 940e 205d 	CALL __SUBD12
001109 940e 1ee5 	CALL __CDF1
00110b 940e 19a3 	CALL SUBOPT_0x2C
                 ; 0001 07B5       if(err>100) err=100;
00110d 940e 1d87 	CALL SUBOPT_0xA1
00110f 940e 1a9b 	CALL SUBOPT_0x4F
001111 f009      	BREQ PC+2
001112 f410      	BRCC PC+3
001113 940c 111b 	JMP  _0x201CB
                +
001115 e0e0     +LDI R30 , LOW ( 0x42C80000 )
001116 e0f0     +LDI R31 , HIGH ( 0x42C80000 )
001117 ec68     +LDI R22 , BYTE3 ( 0x42C80000 )
001118 e472     +LDI R23 , BYTE4 ( 0x42C80000 )
                 	__GETD1N 0x42C80000
001119 940e 19a3 	CALL SUBOPT_0x2C
                 ; 0001 07B6       if(err<-100) err=-100;
                 _0x201CB:
00111b 940e 1d87 	CALL SUBOPT_0xA1
                +
00111d e0e0     +LDI R30 , LOW ( 0xC2C80000 )
00111e e0f0     +LDI R31 , HIGH ( 0xC2C80000 )
00111f ec68     +LDI R22 , BYTE3 ( 0xC2C80000 )
001120 ec72     +LDI R23 , BYTE4 ( 0xC2C80000 )
                 	__GETD1N 0xC2C80000
001121 940e 2002 	CALL __CMPF12
001123 f410      	BRSH _0x201CC
001124 940e 19a3 	CALL SUBOPT_0x2C
                 ; 0001 07B7       sumi=sumi+ err/35;
                 _0x201CC:
001126 940e 1d87 	CALL SUBOPT_0xA1
                +
001128 e0e0     +LDI R30 , LOW ( 0x420C0000 )
001129 e0f0     +LDI R31 , HIGH ( 0x420C0000 )
00112a e06c     +LDI R22 , BYTE3 ( 0x420C0000 )
00112b e472     +LDI R23 , BYTE4 ( 0x420C0000 )
                 	__GETD1N 0x420C0000
00112c 940e 1fbd 	CALL __DIVF21
00112e 940e 199e 	CALL SUBOPT_0x2B
001130 940e 1997 	CALL SUBOPT_0x2A
                 ; 0001 07B8       if(sumi>6) sumi=6;
001132 940e 199e 	CALL SUBOPT_0x2B
                +
001134 e0e0     +LDI R30 , LOW ( 0x40C00000 )
001135 e0f0     +LDI R31 , HIGH ( 0x40C00000 )
001136 ec60     +LDI R22 , BYTE3 ( 0x40C00000 )
001137 e470     +LDI R23 , BYTE4 ( 0x40C00000 )
                 	__GETD1N 0x40C00000
001138 940e 2002 	CALL __CMPF12
00113a f009      	BREQ PC+2
00113b f410      	BRCC PC+3
00113c 940c 1142 	JMP  _0x201CD
                +
00113e 8be8     +STD Y + 16 , R30
00113f 8bf9     +STD Y + 16 + 1 , R31
001140 8b6a     +STD Y + 16 + 2 , R22
001141 8b7b     +STD Y + 16 + 3 , R23
                 	__PUTD1S 16
                 ; 0001 07B9       if(sumi<-6) sumi=-6;
                 _0x201CD:
001142 940e 199e 	CALL SUBOPT_0x2B
                +
001144 e0e0     +LDI R30 , LOW ( 0xC0C00000 )
001145 e0f0     +LDI R31 , HIGH ( 0xC0C00000 )
001146 ec60     +LDI R22 , BYTE3 ( 0xC0C00000 )
001147 ec70     +LDI R23 , BYTE4 ( 0xC0C00000 )
                 	__GETD1N 0xC0C00000
001148 940e 2002 	CALL __CMPF12
00114a f420      	BRSH _0x201CE
                +
00114b 8be8     +STD Y + 16 , R30
00114c 8bf9     +STD Y + 16 + 1 , R31
00114d 8b6a     +STD Y + 16 + 2 , R22
00114e 8b7b     +STD Y + 16 + 3 , R23
                 	__PUTD1S 16
                 ; 0001 07BA       udk = err/7 + sumi+(err-lasterr)/30;
                 _0x201CE:
00114f 940e 1d87 	CALL SUBOPT_0xA1
                +
001151 e0e0     +LDI R30 , LOW ( 0x40E00000 )
001152 e0f0     +LDI R31 , HIGH ( 0x40E00000 )
001153 ee60     +LDI R22 , BYTE3 ( 0x40E00000 )
001154 e470     +LDI R23 , BYTE4 ( 0x40E00000 )
                 	__GETD1N 0x40E00000
001155 940e 1fbd 	CALL __DIVF21
001157 940e 199e 	CALL SUBOPT_0x2B
001159 940e 1f1f 	CALL __ADDF12
00115b 937f      	PUSH R23
00115c 936f      	PUSH R22
00115d 93ff      	PUSH R31
00115e 93ef      	PUSH R30
00115f 940e 1d8c 	CALL SUBOPT_0xA2
001161 940e 19b9 	CALL SUBOPT_0x31
001163 940e 1f18 	CALL __SUBF12
001165 01df      	MOVW R26,R30
001166 01cb      	MOVW R24,R22
                +
001167 e0e0     +LDI R30 , LOW ( 0x41F00000 )
001168 e0f0     +LDI R31 , HIGH ( 0x41F00000 )
001169 ef60     +LDI R22 , BYTE3 ( 0x41F00000 )
00116a e471     +LDI R23 , BYTE4 ( 0x41F00000 )
                 	__GETD1N 0x41F00000
00116b 940e 1fbd 	CALL __DIVF21
00116d 91af      	POP  R26
00116e 91bf      	POP  R27
00116f 918f      	POP  R24
001170 919f      	POP  R25
001171 940e 1f1f 	CALL __ADDF12
001173 940e 1992 	CALL SUBOPT_0x29
                 ; 0001 07BB       if(udk>10) {udk=9;sumi=0;}
001175 940e 1d91 	CALL SUBOPT_0xA3
001177 940e 1b99 	CALL SUBOPT_0x60
001179 f009      	BREQ PC+2
00117a f410      	BRCC PC+3
00117b 940c 1183 	JMP  _0x201CF
                +
00117d e0e0     +LDI R30 , LOW ( 0x41100000 )
00117e e0f0     +LDI R31 , HIGH ( 0x41100000 )
00117f e160     +LDI R22 , BYTE3 ( 0x41100000 )
001180 e471     +LDI R23 , BYTE4 ( 0x41100000 )
                 	__GETD1N 0x41100000
001181 940e 1d96 	CALL SUBOPT_0xA4
                 ; 0001 07BC       if(udk<-10){ udk=-9;sumi=0;}
                 _0x201CF:
001183 940e 1d91 	CALL SUBOPT_0xA3
001185 940e 1b9d 	CALL SUBOPT_0x61
001187 f430      	BRSH _0x201D0
                +
001188 e0e0     +LDI R30 , LOW ( 0xC1100000 )
001189 e0f0     +LDI R31 , HIGH ( 0xC1100000 )
00118a e160     +LDI R22 , BYTE3 ( 0xC1100000 )
00118b ec71     +LDI R23 , BYTE4 ( 0xC1100000 )
                 	__GETD1N 0xC1100000
00118c 940e 1d96 	CALL SUBOPT_0xA4
                 ; 0001 07BD       //hc(5,10);wn16s(udk);
                 ; 0001 07BE       vMLtoi(10+udk); vMRtoi(10-udk) ;
                 _0x201D0:
                +
00118e 89ec     +LDD R30 , Y + 20
00118f 89fd     +LDD R31 , Y + 20 + 1
001190 896e     +LDD R22 , Y + 20 + 2
001191 897f     +LDD R23 , Y + 20 + 3
                 	__GETD1S 20
                +
001192 e0a0     +LDI R26 , LOW ( 0x41200000 )
001193 e0b0     +LDI R27 , HIGH ( 0x41200000 )
001194 e280     +LDI R24 , BYTE3 ( 0x41200000 )
001195 e491     +LDI R25 , BYTE4 ( 0x41200000 )
                 	__GETD2N 0x41200000
001196 940e 1f1f 	CALL __ADDF12
001198 940e 1eac 	CALL __CFD1U
00119a 93ea      	ST   -Y,R30
00119b 940e 050d 	CALL _vMLtoi
00119d 940e 1d91 	CALL SUBOPT_0xA3
00119f 940e 194e 	CALL SUBOPT_0x1E
0011a1 940e 1f18 	CALL __SUBF12
0011a3 940e 1eac 	CALL __CFD1U
0011a5 93ea      	ST   -Y,R30
0011a6 940e 0525 	CALL _vMRtoi
                 ; 0001 07BF 
                 ; 0001 07C0       lastvalueline=valueline;
                +
0011a8 a9ed     +LDD R30 , Y + 53
0011a9 a9fe     +LDD R31 , Y + 53 + 1
0011aa a96f     +LDD R22 , Y + 53 + 2
0011ab ad78     +LDD R23 , Y + 53 + 3
                 	__GETD1S 53
                +
0011ac afe9     +STD Y + 57 , R30
0011ad affa     +STD Y + 57 + 1 , R31
0011ae af6b     +STD Y + 57 + 2 , R22
0011af af7c     +STD Y + 57 + 3 , R23
                 	__PUTD1S 57
                 ; 0001 07C1       lasterr=err;
0011b0 940e 19b9 	CALL SUBOPT_0x31
                +
0011b2 87e8     +STD Y + 8 , R30
0011b3 87f9     +STD Y + 8 + 1 , R31
0011b4 876a     +STD Y + 8 + 2 , R22
0011b5 877b     +STD Y + 8 + 3 , R23
                 	__PUTD1S 8
                 ; 0001 07C2    }
0011b6 ceb3      	RJMP _0x201C0
                 ; 0001 07C3 
                 ; 0001 07C4    while(keyKT!=0)
                 _0x201D1:
0011b7 9b98      	SBIS 0x13,0
0011b8 c0e5      	RJMP _0x201D3
                 ; 0001 07C5    {
                 ; 0001 07C6        //doc gia tri cam bien
                 ; 0001 07C7         readline();
0011b9 940e 1d70 	CALL SUBOPT_0x9E
                 ; 0001 07C8         admin = IRLINE[0];imin=0;
                 ; 0001 07C9         for(i=1;i<5;i++){if(admin>IRLINE[i]){admin=IRLINE[i];imin=i;}}
                 _0x201D5:
                +
0011bb 3005     +CPI R16 , LOW ( 5 )
0011bc e0e0     +LDI R30 , HIGH ( 5 )
0011bd 071e     +CPC R17 , R30
                 	__CPWRN 16,17,5
0011be f48c      	BRGE _0x201D6
0011bf 940e 1d23 	CALL SUBOPT_0x8F
0011c1 940e 1d2e 	CALL SUBOPT_0x91
0011c3 940e 1d7d 	CALL SUBOPT_0x9F
0011c5 f438      	BRSH _0x201D7
0011c6 940e 1d23 	CALL SUBOPT_0x8F
0011c8 940e 1d2e 	CALL SUBOPT_0x91
0011ca a3eb      	STD  Y+35,R30
0011cb a3fc      	STD  Y+35+1,R31
0011cc 01a8      	MOVW R20,R16
                 _0x201D7:
                +
0011cd 5f0f     +SUBI R16 , LOW ( - 1 )
0011ce 4f1f     +SBCI R17 , HIGH ( - 1 )
                 	__ADDWRN 16,17,1
0011cf cfeb      	RJMP _0x201D5
                 _0x201D6:
                 ; 0001 07CA         hc(2,10);wn16s(iminlast);
0011d0 940e 1cf5 	CALL SUBOPT_0x86
0011d2 940e 1a79 	CALL SUBOPT_0x49
0011d4 940e 0388 	CALL _hc
0011d6 81ee      	LDD  R30,Y+6
0011d7 81ff      	LDD  R31,Y+6+1
0011d8 940e 1ce2 	CALL SUBOPT_0x82
                 ; 0001 07CB         hc(3,10);wn16s(imin);
0011da 940e 1cf0 	CALL SUBOPT_0x85
0011dc 940e 1a79 	CALL SUBOPT_0x49
0011de 940e 1d6a 	CALL SUBOPT_0x9D
                 ; 0001 07CC         hc(4,10);wn16s(admin);
0011e0 940e 1ce6 	CALL SUBOPT_0x83
0011e2 940e 1a79 	CALL SUBOPT_0x49
0011e4 940e 1d82 	CALL SUBOPT_0xA0
                 ; 0001 07CD 
                 ; 0001 07CE         if((imin-iminlast > 1)||(imin-iminlast <-1))  //tranh truong hop nhay bo trang thai
0011e6 81ae      	LDD  R26,Y+6
0011e7 81bf      	LDD  R27,Y+6+1
0011e8 01fa      	MOVW R30,R20
0011e9 1bea      	SUB  R30,R26
0011ea 0bfb      	SBC  R31,R27
0011eb 01df      	MOVW R26,R30
0011ec 9732      	SBIW R30,2
0011ed f42c      	BRGE _0x201D9
0011ee 01fd      	MOVW R30,R26
0011ef 3fef      	CPI  R30,LOW(0xFFFF)
0011f0 efaf      	LDI  R26,HIGH(0xFFFF)
0011f1 07fa      	CPC  R31,R26
0011f2 f40c      	BRGE _0x201D8
                 _0x201D9:
                 ; 0001 07CF         {
                 ; 0001 07D0         }
                 ; 0001 07D1         else
0011f3 c03c      	RJMP _0x201DB
                 _0x201D8:
                 ; 0001 07D2         {
                 ; 0001 07D3              switch(imin)
0011f4 01fa      	MOVW R30,R20
                 ; 0001 07D4             {
                 ; 0001 07D5               case 0:
0011f5 9730      	SBIW R30,0
0011f6 f449      	BRNE _0x201DF
                 ; 0001 07D6                   vMLtoi(1); vMRtoi(15) ;
0011f7 940e 1d4c 	CALL SUBOPT_0x96
0011f9 940e 1d54 	CALL SUBOPT_0x98
                 ; 0001 07D7                   //flagblindT = 0;
                 ; 0001 07D8                   flagblindP = 1;
0011fb e0e1      	LDI  R30,LOW(1)
0011fc e0f0      	LDI  R31,HIGH(1)
0011fd 8fe8      	STD  Y+24,R30
0011fe 8ff9      	STD  Y+24+1,R31
                 ; 0001 07D9                 break;
0011ff c02e      	RJMP _0x201DE
                 ; 0001 07DA               case 1:
                 _0x201DF:
001200 30e1      	CPI  R30,LOW(0x1)
001201 e0a0      	LDI  R26,HIGH(0x1)
001202 07fa      	CPC  R31,R26
001203 f449      	BRNE _0x201E0
                 ; 0001 07DB                   vMLtoi(2); vMRtoi(8) ;
001204 e0e2      	LDI  R30,LOW(2)
001205 93ea      	ST   -Y,R30
001206 940e 050d 	CALL _vMLtoi
001208 e0e8      	LDI  R30,LOW(8)
001209 93ea      	ST   -Y,R30
00120a 940e 0525 	CALL _vMRtoi
                 ; 0001 07DC                 break;
00120c c021      	RJMP _0x201DE
                 ; 0001 07DD               case 2:
                 _0x201E0:
00120d 30e2      	CPI  R30,LOW(0x2)
00120e e0a0      	LDI  R26,HIGH(0x2)
00120f 07fa      	CPC  R31,R26
001210 f449      	BRNE _0x201E1
                 ; 0001 07DE                   vMLtoi(10);vMRtoi(10) ;
001211 e0ea      	LDI  R30,LOW(10)
001212 93ea      	ST   -Y,R30
001213 940e 050d 	CALL _vMLtoi
001215 e0ea      	LDI  R30,LOW(10)
001216 93ea      	ST   -Y,R30
001217 940e 0525 	CALL _vMRtoi
                 ; 0001 07DF                 break;
001219 c014      	RJMP _0x201DE
                 ; 0001 07E0               case 3:
                 _0x201E1:
00121a 30e3      	CPI  R30,LOW(0x3)
00121b e0a0      	LDI  R26,HIGH(0x3)
00121c 07fa      	CPC  R31,R26
00121d f421      	BRNE _0x201E2
                 ; 0001 07E1                  vMLtoi(8); vMRtoi(2) ;
00121e e0e8      	LDI  R30,LOW(8)
00121f 940e 1d9d 	CALL SUBOPT_0xA5
                 ; 0001 07E2                 break;
001221 c00c      	RJMP _0x201DE
                 ; 0001 07E3               case 4:
                 _0x201E2:
001222 30e4      	CPI  R30,LOW(0x4)
001223 e0a0      	LDI  R26,HIGH(0x4)
001224 07fa      	CPC  R31,R26
001225 f441      	BRNE _0x201E4
                 ; 0001 07E4                   vMLtoi(15);vMRtoi(1)  ;
001226 940e 1d58 	CALL SUBOPT_0x99
001228 940e 1d5c 	CALL SUBOPT_0x9A
                 ; 0001 07E5                   flagblindT = 1;
00122a e0e1      	LDI  R30,LOW(1)
00122b e0f0      	LDI  R31,HIGH(1)
00122c 8fea      	STD  Y+26,R30
00122d 8ffb      	STD  Y+26+1,R31
                 ; 0001 07E6                   //flagblindP = 0;
                 ; 0001 07E7                 break;
                 ; 0001 07E8               default:
                 _0x201E4:
                 ; 0001 07E9                  // vMLtoi(5); vMRtoi(5) ;
                 ; 0001 07EA                 break;
                 ; 0001 07EB             }
                 _0x201DE:
                 ; 0001 07EC 
                 ; 0001 07ED               iminlast=imin;
                +
00122e 834e     +STD Y + 6 , R20
00122f 835f     +STD Y + 6 + 1 , R21
                 	__PUTWSR 20,21,6
                 ; 0001 07EE          }
                 _0x201DB:
                 ; 0001 07EF 
                 ; 0001 07F0 
                 ; 0001 07F1             while(flagblindT == 1 && keyKT!=0) //lac duong ben trai
                 _0x201E5:
001230 8daa      	LDD  R26,Y+26
001231 8dbb      	LDD  R27,Y+26+1
001232 9711      	SBIW R26,1
001233 f419      	BRNE _0x201E8
001234 940e 1d65 	CALL SUBOPT_0x9C
001236 f409      	BRNE _0x201E9
                 _0x201E8:
001237 c026      	RJMP _0x201E7
                 _0x201E9:
                 ; 0001 07F2             {
                 ; 0001 07F3                vMLtoi(20);vMRtoi(2)  ;
001238 e1e4      	LDI  R30,LOW(20)
001239 940e 1d9d 	CALL SUBOPT_0xA5
                 ; 0001 07F4                readline();
00123b 940e 1d70 	CALL SUBOPT_0x9E
                 ; 0001 07F5                admin = IRLINE[0];imin=0;
                 ; 0001 07F6                for(i=1;i<5;i++){if(admin>IRLINE[i]){admin=IRLINE[i];imin=i;}}
                 _0x201EB:
                +
00123d 3005     +CPI R16 , LOW ( 5 )
00123e e0e0     +LDI R30 , HIGH ( 5 )
00123f 071e     +CPC R17 , R30
                 	__CPWRN 16,17,5
001240 f48c      	BRGE _0x201EC
001241 940e 1d23 	CALL SUBOPT_0x8F
001243 940e 1d2e 	CALL SUBOPT_0x91
001245 940e 1d7d 	CALL SUBOPT_0x9F
001247 f438      	BRSH _0x201ED
001248 940e 1d23 	CALL SUBOPT_0x8F
00124a 940e 1d2e 	CALL SUBOPT_0x91
00124c a3eb      	STD  Y+35,R30
00124d a3fc      	STD  Y+35+1,R31
00124e 01a8      	MOVW R20,R16
                 _0x201ED:
                +
00124f 5f0f     +SUBI R16 , LOW ( - 1 )
001250 4f1f     +SBCI R17 , HIGH ( - 1 )
                 	__ADDWRN 16,17,1
001251 cfeb      	RJMP _0x201EB
                 _0x201EC:
                 ; 0001 07F7                iminlast=imin;
                +
001252 834e     +STD Y + 6 , R20
001253 835f     +STD Y + 6 + 1 , R21
                 	__PUTWSR 20,21,6
                 ; 0001 07F8                if(IRLINE[2]<310)  flagblindT=0;
001254 940e 1d29 	CALL SUBOPT_0x90
001256 33a6      	CPI  R26,LOW(0x136)
001257 e0e1      	LDI  R30,HIGH(0x136)
001258 07be      	CPC  R27,R30
001259 f418      	BRSH _0x201EE
00125a e0e0      	LDI  R30,LOW(0)
00125b 8fea      	STD  Y+26,R30
00125c 8feb      	STD  Y+26+1,R30
                 ; 0001 07F9 
                 ; 0001 07FA             }
                 _0x201EE:
00125d cfd2      	RJMP _0x201E5
                 _0x201E7:
                 ; 0001 07FB             while(flagblindP ==1 && keyKT!=0) //lac duong ben phai
                 _0x201EF:
00125e 8da8      	LDD  R26,Y+24
00125f 8db9      	LDD  R27,Y+24+1
001260 9711      	SBIW R26,1
001261 f419      	BRNE _0x201F2
001262 940e 1d65 	CALL SUBOPT_0x9C
001264 f409      	BRNE _0x201F3
                 _0x201F2:
001265 c029      	RJMP _0x201F1
                 _0x201F3:
                 ; 0001 07FC             {
                 ; 0001 07FD                vMLtoi(2);vMRtoi(20)  ;
001266 e0e2      	LDI  R30,LOW(2)
001267 93ea      	ST   -Y,R30
001268 940e 050d 	CALL _vMLtoi
00126a 940e 1d50 	CALL SUBOPT_0x97
                 ; 0001 07FE                readline();
00126c 940e 1d70 	CALL SUBOPT_0x9E
                 ; 0001 07FF                admin = IRLINE[0];imin=0;
                 ; 0001 0800                for(i=1;i<5;i++){if(admin>IRLINE[i]){admin=IRLINE[i];imin=i;}}
                 _0x201F5:
                +
00126e 3005     +CPI R16 , LOW ( 5 )
00126f e0e0     +LDI R30 , HIGH ( 5 )
001270 071e     +CPC R17 , R30
                 	__CPWRN 16,17,5
001271 f48c      	BRGE _0x201F6
001272 940e 1d23 	CALL SUBOPT_0x8F
001274 940e 1d2e 	CALL SUBOPT_0x91
001276 940e 1d7d 	CALL SUBOPT_0x9F
001278 f438      	BRSH _0x201F7
001279 940e 1d23 	CALL SUBOPT_0x8F
00127b 940e 1d2e 	CALL SUBOPT_0x91
00127d a3eb      	STD  Y+35,R30
00127e a3fc      	STD  Y+35+1,R31
00127f 01a8      	MOVW R20,R16
                 _0x201F7:
                +
001280 5f0f     +SUBI R16 , LOW ( - 1 )
001281 4f1f     +SBCI R17 , HIGH ( - 1 )
                 	__ADDWRN 16,17,1
001282 cfeb      	RJMP _0x201F5
                 _0x201F6:
                 ; 0001 0801                iminlast=imin;
                +
001283 834e     +STD Y + 6 , R20
001284 835f     +STD Y + 6 + 1 , R21
                 	__PUTWSR 20,21,6
                 ; 0001 0802                if(IRLINE[2]<310)  flagblindP=0;
001285 940e 1d29 	CALL SUBOPT_0x90
001287 33a6      	CPI  R26,LOW(0x136)
001288 e0e1      	LDI  R30,HIGH(0x136)
001289 07be      	CPC  R27,R30
00128a f418      	BRSH _0x201F8
00128b e0e0      	LDI  R30,LOW(0)
00128c 8fe8      	STD  Y+24,R30
00128d 8fe9      	STD  Y+24+1,R30
                 ; 0001 0803 
                 ; 0001 0804             }
                 _0x201F8:
00128e cfcf      	RJMP _0x201EF
                 _0x201F1:
                 ; 0001 0805 
                 ; 0001 0806 
                 ; 0001 0807        demled++;
00128f 8dec      	LDD  R30,Y+28
001290 8dfd      	LDD  R31,Y+28+1
001291 9631      	ADIW R30,1
001292 8fec      	STD  Y+28,R30
001293 8ffd      	STD  Y+28+1,R31
                 ; 0001 0808        if(demled>30){demled=0;LEDLtoggle();LEDRtoggle(); }
001294 8dac      	LDD  R26,Y+28
001295 8dbd      	LDD  R27,Y+28+1
001296 975f      	SBIW R26,31
001297 f028      	BRLO _0x201F9
001298 e0e0      	LDI  R30,LOW(0)
001299 8fec      	STD  Y+28,R30
00129a 8fed      	STD  Y+28+1,R30
00129b 940e 1d1f 	CALL SUBOPT_0x8E
                 ; 0001 0809    }
                 _0x201F9:
00129d cf19      	RJMP _0x201D1
                 _0x201D3:
                 ; 0001 080A }
00129e 940e 2172 	CALL __LOADLOCR6
0012a0 96ed      	ADIW R28,61
0012a1 9508      	RET
                 
                 	.DSEG
                 _0x201AC:
00028a           	.BYTE 0x13
                 ;//========================================================
                 ;void bluetooth()
                 ; 0001 080D {  unsigned char kytu;
                 
                 	.CSEG
                 _bluetooth:
                 ; 0001 080E    unsigned int demled;
                 ; 0001 080F 
                 ; 0001 0810         LcdClear();
0012a2 940e 216d 	CALL __SAVELOCR4
                 ;	kytu -> R17
                 ;	demled -> R18,R19
0012a4 940e 1d0a 	CALL SUBOPT_0x8A
                 ; 0001 0811         hc(0,10);
0012a6 940e 1a79 	CALL SUBOPT_0x49
0012a8 940e 0388 	CALL _hc
                 ; 0001 0812         ws ("BLUETOOTH");
                +
0012aa e9ed     +LDI R30 , LOW ( _0x201FA + ( 0 ) )
0012ab e0f2     +LDI R31 , HIGH ( _0x201FA + ( 0 ) )
                 	__POINTW1MN _0x201FA,0
0012ac 940e 18d5 	CALL SUBOPT_0xE
                 ; 0001 0813         hc(1,25);
0012ae 940e 1cfa 	CALL SUBOPT_0x87
0012b0 e1e9      	LDI  R30,LOW(25)
0012b1 e0f0      	LDI  R31,HIGH(25)
0012b2 940e 1da4 	CALL SUBOPT_0xA6
                 ; 0001 0814         ws ("DRIVE");
                +
0012b4 eae7     +LDI R30 , LOW ( _0x201FA + ( 10 ) )
0012b5 e0f2     +LDI R31 , HIGH ( _0x201FA + ( 10 ) )
                 	__POINTW1MN _0x201FA,10
0012b6 940e 18d5 	CALL SUBOPT_0xE
                 ; 0001 0815 
                 ; 0001 0816         LEDL=1;LEDR=1;
0012b8 9aac      	SBI  0x15,4
0012b9 9aad      	SBI  0x15,5
                 ; 0001 0817 
                 ; 0001 0818    while(keyKT!=0)
                 _0x201FF:
0012ba 9b98      	SBIS 0x13,0
0012bb c045      	RJMP _0x20201
                 ; 0001 0819    {
                 ; 0001 081A         LEDL=1; LEDR=1;
0012bc 940e 1da8 	CALL SUBOPT_0xA7
                 ; 0001 081B         delay_ms(100);
                 ; 0001 081C         LEDL=0; LEDR=0;
                 ; 0001 081D         delay_ms(100);
                 ; 0001 081E 
                 ; 0001 081F       if (rx_counter)
0012be 91e0 050c 	LDS  R30,_rx_counter
0012c0 30e0      	CPI  R30,0
0012c1 f1f1      	BREQ _0x2020A
                 ; 0001 0820       {
                 ; 0001 0821        //LcdClear();
                 ; 0001 0822        hc(2,42);
0012c2 940e 1cf5 	CALL SUBOPT_0x86
0012c4 940e 1d10 	CALL SUBOPT_0x8C
                 ; 0001 0823        kytu = getchar();
0012c6 940e 047e 	CALL _getchar
0012c8 2f1e      	MOV  R17,R30
                 ; 0001 0824        LcdCharacter(kytu);
0012c9 931a      	ST   -Y,R17
0012ca 940e 0393 	CALL _LcdCharacter
                 ; 0001 0825        //putchar(getchar());
                 ; 0001 0826        if(kytu=='S'){vMLtoi(0);vMRtoi(0);}
0012cc 3513      	CPI  R17,83
0012cd f421      	BRNE _0x2020B
0012ce 940e 1ca9 	CALL SUBOPT_0x77
0012d0 940e 1ca5 	CALL SUBOPT_0x76
                 ; 0001 0827        if(kytu=='F'){vMLtoi(100);vMRtoi(100);}
                 _0x2020B:
0012d2 3416      	CPI  R17,70
0012d3 f441      	BRNE _0x2020C
0012d4 e6e4      	LDI  R30,LOW(100)
0012d5 93ea      	ST   -Y,R30
0012d6 940e 050d 	CALL _vMLtoi
0012d8 e6e4      	LDI  R30,LOW(100)
0012d9 93ea      	ST   -Y,R30
0012da 940e 0525 	CALL _vMRtoi
                 ; 0001 0828        if(kytu=='B'){vMLlui(100);vMRlui(100);}
                 _0x2020C:
0012dc 3412      	CPI  R17,66
0012dd f441      	BRNE _0x2020D
0012de e6e4      	LDI  R30,LOW(100)
0012df 93ea      	ST   -Y,R30
0012e0 940e 0513 	CALL _vMLlui
0012e2 e6e4      	LDI  R30,LOW(100)
0012e3 93ea      	ST   -Y,R30
0012e4 940e 0529 	CALL _vMRlui
                 ; 0001 0829        if(kytu=='R'){vMLtoi(100);vMRtoi(0);}
                 _0x2020D:
0012e6 3512      	CPI  R17,82
0012e7 f431      	BRNE _0x2020E
0012e8 e6e4      	LDI  R30,LOW(100)
0012e9 93ea      	ST   -Y,R30
0012ea 940e 050d 	CALL _vMLtoi
0012ec 940e 1ca5 	CALL SUBOPT_0x76
                 ; 0001 082A        if(kytu=='L'){vMLtoi(0);vMRtoi(100);}
                 _0x2020E:
0012ee 341c      	CPI  R17,76
0012ef f431      	BRNE _0x2020F
0012f0 940e 1ca9 	CALL SUBOPT_0x77
0012f2 e6e4      	LDI  R30,LOW(100)
0012f3 93ea      	ST   -Y,R30
0012f4 940e 0525 	CALL _vMRtoi
                 ; 0001 082B 
                 ; 0001 082C        demled++;
                 _0x2020F:
                +
0012f6 5f2f     +SUBI R18 , LOW ( - 1 )
0012f7 4f3f     +SBCI R19 , HIGH ( - 1 )
                 	__ADDWRN 18,19,1
                 ; 0001 082D        if(demled>1000){demled=0;LEDLtoggle(); LEDRtoggle();}
                +
0012f8 3e29     +CPI R18 , LOW ( 1001 )
0012f9 e0e3     +LDI R30 , HIGH ( 1001 )
0012fa 073e     +CPC R19 , R30
                 	__CPWRN 18,19,1001
0012fb f020      	BRLO _0x20210
                +
0012fc e020     +LDI R18 , LOW ( 0 )
0012fd e030     +LDI R19 , HIGH ( 0 )
                 	__GETWRN 18,19,0
0012fe 940e 1d1f 	CALL SUBOPT_0x8E
                 ; 0001 082E       }
                 _0x20210:
                 ; 0001 082F     }
                 _0x2020A:
001300 cfb9      	RJMP _0x201FF
                 _0x20201:
                 ; 0001 0830 }
                 _0x20C0006:
001301 940e 2174 	CALL __LOADLOCR4
001303 9624      	ADIW R28,4
001304 9508      	RET
                 
                 	.DSEG
                 _0x201FA:
00029d           	.BYTE 0x10
                 ;//========================================================
                 ;
                 ;//Chuong trinh test robot
                 ;   void testmotor()
                 ; 0001 0835    {
                 
                 	.CSEG
                 _testmotor:
                 ; 0001 0836         LcdClear();
001305 940e 1d0a 	CALL SUBOPT_0x8A
                 ; 0001 0837         hc(0,10);
001307 940e 1a79 	CALL SUBOPT_0x49
001309 940e 0388 	CALL _hc
                 ; 0001 0838         ws ("TEST MOTOR");
                +
00130b eaed     +LDI R30 , LOW ( _0x20211 + ( 0 ) )
00130c e0f2     +LDI R31 , HIGH ( _0x20211 + ( 0 ) )
                 	__POINTW1MN _0x20211,0
00130d 940e 18d5 	CALL SUBOPT_0xE
                 ; 0001 0839 
                 ; 0001 083A         vMRtoi(20);
00130f 940e 1d50 	CALL SUBOPT_0x97
                 ; 0001 083B         vMLtoi(20);
001311 e1e4      	LDI  R30,LOW(20)
001312 93ea      	ST   -Y,R30
001313 940e 050d 	CALL _vMLtoi
                 ; 0001 083C       while(keyKT!=0)
                 _0x20212:
001315 9b98      	SBIS 0x13,0
001316 c027      	RJMP _0x20214
                 ; 0001 083D       {
                 ; 0001 083E         hc(2,0);
001317 940e 1db8 	CALL SUBOPT_0xA8
                 ; 0001 083F         ws ("MotorL");
                +
001319 ebe8     +LDI R30 , LOW ( _0x20211 + ( 11 ) )
00131a e0f2     +LDI R31 , HIGH ( _0x20211 + ( 11 ) )
                 	__POINTW1MN _0x20211,11
00131b 940e 18d5 	CALL SUBOPT_0xE
                 ; 0001 0840         hc(2,45);
00131d 940e 1cf5 	CALL SUBOPT_0x86
00131f e2ed      	LDI  R30,LOW(45)
001320 e0f0      	LDI  R31,HIGH(45)
001321 940e 1da4 	CALL SUBOPT_0xA6
                 ; 0001 0841         wn16(QEL);
001323 940e 192c 	CALL SUBOPT_0x18
001325 940e 18d1 	CALL SUBOPT_0xD
                 ; 0001 0842         hc(3,0);
001327 e0e3      	LDI  R30,LOW(3)
001328 e0f0      	LDI  R31,HIGH(3)
001329 940e 1897 	CALL SUBOPT_0x7
                 ; 0001 0843         ws ("MotorR");
                +
00132b ebef     +LDI R30 , LOW ( _0x20211 + ( 18 ) )
00132c e0f2     +LDI R31 , HIGH ( _0x20211 + ( 18 ) )
                 	__POINTW1MN _0x20211,18
00132d 940e 18d5 	CALL SUBOPT_0xE
                 ; 0001 0844         hc(3,45);
00132f 940e 1cf0 	CALL SUBOPT_0x85
001331 e2ed      	LDI  R30,LOW(45)
001332 e0f0      	LDI  R31,HIGH(45)
001333 940e 1da4 	CALL SUBOPT_0xA6
                 ; 0001 0845         wn16(QER);
001335 940e 1cb5 	CALL SUBOPT_0x7A
001337 940e 18d1 	CALL SUBOPT_0xD
                 ; 0001 0846         delay_ms(10);
001339 940e 1a79 	CALL SUBOPT_0x49
00133b 940e 1e6d 	CALL _delay_ms
                 ; 0001 0847       }
00133d cfd7      	RJMP _0x20212
                 _0x20214:
                 ; 0001 0848 
                 ; 0001 0849        vMRstop();
00133e 940e 0534 	CALL _vMRstop
                 ; 0001 084A        vMLstop();
001340 940e 0519 	CALL _vMLstop
                 ; 0001 084B    }
001342 9508      	RET
                 
                 	.DSEG
                 _0x20211:
0002ad           	.BYTE 0x19
                 ; //========================================================
                 ; // UART TEST
                 ;   void testuart()
                 ; 0001 084F    {
                 
                 	.CSEG
                 _testuart:
                 ; 0001 0850           if (rx_counter)
001343 91e0 050c 	LDS  R30,_rx_counter
001345 30e0      	CPI  R30,0
001346 f079      	BREQ _0x20215
                 ; 0001 0851           {
                 ; 0001 0852           LcdClear();
001347 940e 1d0a 	CALL SUBOPT_0x8A
                 ; 0001 0853            hc(0,10);
001349 940e 1a79 	CALL SUBOPT_0x49
00134b 940e 0388 	CALL _hc
                 ; 0001 0854            ws ("TEST UART");
                +
00134d ece6     +LDI R30 , LOW ( _0x20216 + ( 0 ) )
00134e e0f2     +LDI R31 , HIGH ( _0x20216 + ( 0 ) )
                 	__POINTW1MN _0x20216,0
00134f 940e 18d5 	CALL SUBOPT_0xE
                 ; 0001 0855            putchar(getchar());
001351 940e 047e 	CALL _getchar
001353 93ea      	ST   -Y,R30
001354 940e 04be 	CALL _putchar
                 ; 0001 0856           }
                 ; 0001 0857 
                 ; 0001 0858    }
                 _0x20215:
001356 9508      	RET
                 
                 	.DSEG
                 _0x20216:
0002c6           	.BYTE 0xA
                 ;   //========================================================
                 ; // UART TEST
                 ;   void testrf()
                 ; 0001 085C    {
                 
                 	.CSEG
                 _testrf:
                 ; 0001 085D 
                 ; 0001 085E 
                 ; 0001 085F    }
001357 9508      	RET
                 ;
                 ;//========================================================
                 ;   void testir()
                 ; 0001 0863    {    unsigned int AD[8];
                 _testir:
                 ; 0001 0864 
                 ; 0001 0865         DDRA    = 0x00;
001358 9760      	SBIW R28,16
                 ;	AD -> Y+0
001359 940e 19e6 	CALL SUBOPT_0x38
                 ; 0001 0866         PORTA   = 0x00;
                 ; 0001 0867 
                 ; 0001 0868         clear();
00135b 940e 03ca 	CALL _clear
                 ; 0001 0869         hc(0,10);
00135d 940e 1cff 	CALL SUBOPT_0x88
00135f 940e 1a79 	CALL SUBOPT_0x49
001361 940e 0388 	CALL _hc
                 ; 0001 086A         ws ("TEST IR");
                +
001363 ede0     +LDI R30 , LOW ( _0x20217 + ( 0 ) )
001364 e0f2     +LDI R31 , HIGH ( _0x20217 + ( 0 ) )
                 	__POINTW1MN _0x20217,0
001365 940e 18d5 	CALL SUBOPT_0xE
                 ; 0001 086B 
                 ; 0001 086C         while(keyKT!=0)
                 _0x20218:
001367 9b98      	SBIS 0x13,0
001368 c08f      	RJMP _0x2021A
                 ; 0001 086D         {
                 ; 0001 086E 
                 ; 0001 086F         AD[0]=read_adc(0);
001369 e0e0      	LDI  R30,LOW(0)
00136a 93ea      	ST   -Y,R30
00136b 940e 0447 	CALL _read_adc
00136d 83e8      	ST   Y,R30
00136e 83f9      	STD  Y+1,R31
                 ; 0001 0870         AD[1]=read_adc(1);
00136f e0e1      	LDI  R30,LOW(1)
001370 93ea      	ST   -Y,R30
001371 940e 0447 	CALL _read_adc
001373 83ea      	STD  Y+2,R30
001374 83fb      	STD  Y+2+1,R31
                 ; 0001 0871         AD[2]=read_adc(2);
001375 e0e2      	LDI  R30,LOW(2)
001376 93ea      	ST   -Y,R30
001377 940e 0447 	CALL _read_adc
001379 83ec      	STD  Y+4,R30
00137a 83fd      	STD  Y+4+1,R31
                 ; 0001 0872         AD[3]=read_adc(3);
00137b e0e3      	LDI  R30,LOW(3)
00137c 93ea      	ST   -Y,R30
00137d 940e 0447 	CALL _read_adc
00137f 83ee      	STD  Y+6,R30
001380 83ff      	STD  Y+6+1,R31
                 ; 0001 0873         AD[4]=read_adc(4);
001381 e0e4      	LDI  R30,LOW(4)
001382 93ea      	ST   -Y,R30
001383 940e 0447 	CALL _read_adc
001385 87e8      	STD  Y+8,R30
001386 87f9      	STD  Y+8+1,R31
                 ; 0001 0874         AD[5]=read_adc(5);
001387 e0e5      	LDI  R30,LOW(5)
001388 93ea      	ST   -Y,R30
001389 940e 0447 	CALL _read_adc
00138b 87ea      	STD  Y+10,R30
00138c 87fb      	STD  Y+10+1,R31
                 ; 0001 0875         AD[6]=read_adc(6);
00138d e0e6      	LDI  R30,LOW(6)
00138e 93ea      	ST   -Y,R30
00138f 940e 0447 	CALL _read_adc
001391 87ec      	STD  Y+12,R30
001392 87fd      	STD  Y+12+1,R31
                 ; 0001 0876         AD[7]=read_adc(7);
001393 e0e7      	LDI  R30,LOW(7)
001394 93ea      	ST   -Y,R30
001395 940e 0447 	CALL _read_adc
001397 87ee      	STD  Y+14,R30
001398 87ff      	STD  Y+14+1,R31
                 ; 0001 0877 
                 ; 0001 0878         hc(1,0) ;ws("0.");wn164(AD[0]);
001399 940e 1d0d 	CALL SUBOPT_0x8B
                +
00139b ede8     +LDI R30 , LOW ( _0x20217 + ( 8 ) )
00139c e0f2     +LDI R31 , HIGH ( _0x20217 + ( 8 ) )
                 	__POINTW1MN _0x20217,8
00139d 940e 18d5 	CALL SUBOPT_0xE
00139f 81e8      	LD   R30,Y
0013a0 81f9      	LDD  R31,Y+1
0013a1 940e 1dbb 	CALL SUBOPT_0xA9
                 ; 0001 0879         hc(1,43);ws("1.");wn164(AD[1]);
0013a3 940e 1cfa 	CALL SUBOPT_0x87
0013a5 940e 1dbf 	CALL SUBOPT_0xAA
                +
0013a7 edeb     +LDI R30 , LOW ( _0x20217 + ( 11 ) )
0013a8 e0f2     +LDI R31 , HIGH ( _0x20217 + ( 11 ) )
                 	__POINTW1MN _0x20217,11
0013a9 940e 18d5 	CALL SUBOPT_0xE
0013ab 81ea      	LDD  R30,Y+2
0013ac 81fb      	LDD  R31,Y+2+1
0013ad 940e 1dbb 	CALL SUBOPT_0xA9
                 ; 0001 087A         hc(2,0) ;ws("2.");wn164(AD[2]);
0013af 940e 1db8 	CALL SUBOPT_0xA8
                +
0013b1 edee     +LDI R30 , LOW ( _0x20217 + ( 14 ) )
0013b2 e0f2     +LDI R31 , HIGH ( _0x20217 + ( 14 ) )
                 	__POINTW1MN _0x20217,14
0013b3 940e 18d5 	CALL SUBOPT_0xE
0013b5 81ec      	LDD  R30,Y+4
0013b6 81fd      	LDD  R31,Y+4+1
0013b7 940e 1dbb 	CALL SUBOPT_0xA9
                 ; 0001 087B         hc(2,43);ws("3.");wn164(AD[3]);
0013b9 940e 1cf5 	CALL SUBOPT_0x86
0013bb 940e 1dbf 	CALL SUBOPT_0xAA
                +
0013bd eee1     +LDI R30 , LOW ( _0x20217 + ( 17 ) )
0013be e0f2     +LDI R31 , HIGH ( _0x20217 + ( 17 ) )
                 	__POINTW1MN _0x20217,17
0013bf 940e 18d5 	CALL SUBOPT_0xE
0013c1 81ee      	LDD  R30,Y+6
0013c2 81ff      	LDD  R31,Y+6+1
0013c3 940e 1dbb 	CALL SUBOPT_0xA9
                 ; 0001 087C         hc(3,0) ;ws("4.");wn164(AD[4]);
0013c5 e0e3      	LDI  R30,LOW(3)
0013c6 e0f0      	LDI  R31,HIGH(3)
0013c7 940e 1897 	CALL SUBOPT_0x7
                +
0013c9 eee4     +LDI R30 , LOW ( _0x20217 + ( 20 ) )
0013ca e0f2     +LDI R31 , HIGH ( _0x20217 + ( 20 ) )
                 	__POINTW1MN _0x20217,20
0013cb 940e 18d5 	CALL SUBOPT_0xE
0013cd 85e8      	LDD  R30,Y+8
0013ce 85f9      	LDD  R31,Y+8+1
0013cf 940e 1dbb 	CALL SUBOPT_0xA9
                 ; 0001 087D         hc(3,43);ws("5.");wn164(AD[5]);
0013d1 940e 1cf0 	CALL SUBOPT_0x85
0013d3 940e 1dbf 	CALL SUBOPT_0xAA
                +
0013d5 eee7     +LDI R30 , LOW ( _0x20217 + ( 23 ) )
0013d6 e0f2     +LDI R31 , HIGH ( _0x20217 + ( 23 ) )
                 	__POINTW1MN _0x20217,23
0013d7 940e 18d5 	CALL SUBOPT_0xE
0013d9 85ea      	LDD  R30,Y+10
0013da 85fb      	LDD  R31,Y+10+1
0013db 940e 1dbb 	CALL SUBOPT_0xA9
                 ; 0001 087E         hc(4,0) ;ws("6.");wn164(AD[6]);
0013dd e0e4      	LDI  R30,LOW(4)
0013de e0f0      	LDI  R31,HIGH(4)
0013df 940e 1897 	CALL SUBOPT_0x7
                +
0013e1 eeea     +LDI R30 , LOW ( _0x20217 + ( 26 ) )
0013e2 e0f2     +LDI R31 , HIGH ( _0x20217 + ( 26 ) )
                 	__POINTW1MN _0x20217,26
0013e3 940e 18d5 	CALL SUBOPT_0xE
0013e5 85ec      	LDD  R30,Y+12
0013e6 85fd      	LDD  R31,Y+12+1
0013e7 940e 1dbb 	CALL SUBOPT_0xA9
                 ; 0001 087F         hc(4,43);ws("7.");wn164(AD[7]);
0013e9 940e 1ce6 	CALL SUBOPT_0x83
0013eb 940e 1dbf 	CALL SUBOPT_0xAA
                +
0013ed eeed     +LDI R30 , LOW ( _0x20217 + ( 29 ) )
0013ee e0f2     +LDI R31 , HIGH ( _0x20217 + ( 29 ) )
                 	__POINTW1MN _0x20217,29
0013ef 940e 18d5 	CALL SUBOPT_0xE
0013f1 85ee      	LDD  R30,Y+14
0013f2 85ff      	LDD  R31,Y+14+1
0013f3 940e 1dbb 	CALL SUBOPT_0xA9
                 ; 0001 0880 
                 ; 0001 0881         delay_ms(1000);
0013f5 940e 18c6 	CALL SUBOPT_0xB
                 ; 0001 0882         }
0013f7 cf6f      	RJMP _0x20218
                 _0x2021A:
                 ; 0001 0883 
                 ; 0001 0884    }
0013f8 9660      	ADIW R28,16
0013f9 9508      	RET
                 
                 	.DSEG
                 _0x20217:
0002d0           	.BYTE 0x20
                 ;
                 ;//========================================================
                 ; void outlcd1()
                 ; 0001 0888  {
                 
                 	.CSEG
                 _outlcd1:
                 ; 0001 0889      LcdClear();
0013fa 940e 1d0a 	CALL SUBOPT_0x8A
                 ; 0001 088A      hc(0,5);
0013fc 940e 1c95 	CALL SUBOPT_0x73
0013fe 940e 0388 	CALL _hc
                 ; 0001 088B      ws("<SELF TEST>");
                +
001400 efe0     +LDI R30 , LOW ( _0x2021B + ( 0 ) )
001401 e0f2     +LDI R31 , HIGH ( _0x2021B + ( 0 ) )
                 	__POINTW1MN _0x2021B,0
001402 940e 18d5 	CALL SUBOPT_0xE
                 ; 0001 088C      hc(1,0);
001404 940e 1d0d 	CALL SUBOPT_0x8B
                 ; 0001 088D      ws("************");
                +
001406 efec     +LDI R30 , LOW ( _0x2021B + ( 12 ) )
001407 e0f2     +LDI R31 , HIGH ( _0x2021B + ( 12 ) )
                 	__POINTW1MN _0x2021B,12
001408 940e 18d5 	CALL SUBOPT_0xE
                 ; 0001 088E  }
00140a 9508      	RET
                 
                 	.DSEG
                 _0x2021B:
0002f0           	.BYTE 0x19
                 ;//========================================================
                 ;void chopledtheoid()
                 ; 0001 0891 {    unsigned char i;
                 
                 	.CSEG
                 _chopledtheoid:
                 ; 0001 0892         DDRA=0xFF;
00140b 931a      	ST   -Y,R17
                 ;	i -> R17
00140c efef      	LDI  R30,LOW(255)
00140d bbea      	OUT  0x1A,R30
                 ; 0001 0893 
                 ; 0001 0894          switch (id)
00140e 940e 1dc2 	CALL SUBOPT_0xAB
                 ; 0001 0895             {
                 ; 0001 0896                 case 1:
001410 f449      	BRNE _0x2021F
                 ; 0001 0897                     LEDR=1;
001411 9aad      	SBI  0x15,5
                 ; 0001 0898                     LEDL=1;PORTA.4=1;delay_ms(10);
001412 9aac      	SBI  0x15,4
001413 9adc      	SBI  0x1B,4
001414 940e 1a79 	CALL SUBOPT_0x49
001416 940e 1e6d 	CALL _delay_ms
                 ; 0001 0899                     LEDL=0;PORTA.4=0;delay_ms(30);
001418 98ac      	CBI  0x15,4
001419 c06d      	RJMP _0x202DE
                 ; 0001 089A                 break;
                 ; 0001 089B                 case 2:
                 _0x2021F:
00141a 30e2      	CPI  R30,LOW(0x2)
00141b e0a0      	LDI  R26,HIGH(0x2)
00141c 07fa      	CPC  R31,R26
00141d f451      	BRNE _0x2022A
                 ; 0001 089C                     LEDR=1;
00141e 9aad      	SBI  0x15,5
                 ; 0001 089D                     LEDL=1;PORTA.6=1;delay_ms(10);
00141f 9aac      	SBI  0x15,4
001420 9ade      	SBI  0x1B,6
001421 940e 1a79 	CALL SUBOPT_0x49
001423 940e 1e6d 	CALL _delay_ms
                 ; 0001 089E                     LEDL=0;PORTA.6=0;delay_ms(30);
001425 98ac      	CBI  0x15,4
001426 98de      	CBI  0x1B,6
001427 c060      	RJMP _0x202DF
                 ; 0001 089F                 break;
                 ; 0001 08A0                 case 3:
                 _0x2022A:
001428 30e3      	CPI  R30,LOW(0x3)
001429 e0a0      	LDI  R26,HIGH(0x3)
00142a 07fa      	CPC  R31,R26
00142b f451      	BRNE _0x20235
                 ; 0001 08A1                     LEDR=1;
00142c 9aad      	SBI  0x15,5
                 ; 0001 08A2                     LEDL=1;PORTA.7=1;delay_ms(10);
00142d 9aac      	SBI  0x15,4
00142e 9adf      	SBI  0x1B,7
00142f 940e 1a79 	CALL SUBOPT_0x49
001431 940e 1e6d 	CALL _delay_ms
                 ; 0001 08A3                     LEDL=0;PORTA.7=0;delay_ms(30);
001433 98ac      	CBI  0x15,4
001434 98df      	CBI  0x1B,7
001435 c052      	RJMP _0x202DF
                 ; 0001 08A4                 break;
                 ; 0001 08A5                 case 4:
                 _0x20235:
001436 30e4      	CPI  R30,LOW(0x4)
001437 e0a0      	LDI  R26,HIGH(0x4)
001438 07fa      	CPC  R31,R26
001439 f451      	BRNE _0x20240
                 ; 0001 08A6                     LEDR=1;
00143a 9aad      	SBI  0x15,5
                 ; 0001 08A7                     LEDL=1;PORTA.5=1;delay_ms(10);
00143b 9aac      	SBI  0x15,4
00143c 9add      	SBI  0x1B,5
00143d 940e 1a79 	CALL SUBOPT_0x49
00143f 940e 1e6d 	CALL _delay_ms
                 ; 0001 08A8                     LEDL=0;PORTA.5=0;delay_ms(30);
001441 98ac      	CBI  0x15,4
001442 98dd      	CBI  0x1B,5
001443 c044      	RJMP _0x202DF
                 ; 0001 08A9                 break;
                 ; 0001 08AA                 case 5:
                 _0x20240:
001444 30e5      	CPI  R30,LOW(0x5)
001445 e0a0      	LDI  R26,HIGH(0x5)
001446 07fa      	CPC  R31,R26
001447 f441      	BRNE _0x2024B
                 ; 0001 08AB                     LEDL=1;
001448 9aac      	SBI  0x15,4
                 ; 0001 08AC                     LEDR=1;PORTA.4=1;delay_ms(10);
001449 9aad      	SBI  0x15,5
00144a 9adc      	SBI  0x1B,4
00144b 940e 1a79 	CALL SUBOPT_0x49
00144d 940e 1e6d 	CALL _delay_ms
                 ; 0001 08AD                     LEDR=0;PORTA.4=0;delay_ms(30);
00144f c036      	RJMP _0x202E0
                 ; 0001 08AE                 break;
                 ; 0001 08AF                 case 6:
                 _0x2024B:
001450 30e6      	CPI  R30,LOW(0x6)
001451 e0a0      	LDI  R26,HIGH(0x6)
001452 07fa      	CPC  R31,R26
001453 f451      	BRNE _0x20256
                 ; 0001 08B0                     LEDL=1;
001454 9aac      	SBI  0x15,4
                 ; 0001 08B1                     LEDR=1;PORTA.6=1;delay_ms(10);
001455 9aad      	SBI  0x15,5
001456 9ade      	SBI  0x1B,6
001457 940e 1a79 	CALL SUBOPT_0x49
001459 940e 1e6d 	CALL _delay_ms
                 ; 0001 08B2                     LEDR=0;PORTA.6=0;delay_ms(30);
00145b 98ad      	CBI  0x15,5
00145c 98de      	CBI  0x1B,6
00145d c02a      	RJMP _0x202DF
                 ; 0001 08B3                 break;
                 ; 0001 08B4                 case 7:
                 _0x20256:
00145e 30e7      	CPI  R30,LOW(0x7)
00145f e0a0      	LDI  R26,HIGH(0x7)
001460 07fa      	CPC  R31,R26
001461 f451      	BRNE _0x20261
                 ; 0001 08B5                     LEDL=1;
001462 9aac      	SBI  0x15,4
                 ; 0001 08B6                     LEDR=1;PORTA.7=1;delay_ms(10);
001463 9aad      	SBI  0x15,5
001464 9adf      	SBI  0x1B,7
001465 940e 1a79 	CALL SUBOPT_0x49
001467 940e 1e6d 	CALL _delay_ms
                 ; 0001 08B7                     LEDR=0;PORTA.7=0;delay_ms(30);
001469 98ad      	CBI  0x15,5
00146a 98df      	CBI  0x1B,7
00146b c01c      	RJMP _0x202DF
                 ; 0001 08B8                 break;
                 ; 0001 08B9                 case 8:
                 _0x20261:
00146c 30e8      	CPI  R30,LOW(0x8)
00146d e0a0      	LDI  R26,HIGH(0x8)
00146e 07fa      	CPC  R31,R26
00146f f451      	BRNE _0x2026C
                 ; 0001 08BA                     LEDL=1;
001470 9aac      	SBI  0x15,4
                 ; 0001 08BB                     LEDR=1;PORTA.5=1;delay_ms(10);
001471 9aad      	SBI  0x15,5
001472 9add      	SBI  0x1B,5
001473 940e 1a79 	CALL SUBOPT_0x49
001475 940e 1e6d 	CALL _delay_ms
                 ; 0001 08BC                     LEDR=0;PORTA.5=0;delay_ms(30);
001477 98ad      	CBI  0x15,5
001478 98dd      	CBI  0x1B,5
001479 c00e      	RJMP _0x202DF
                 ; 0001 08BD                 break;
                 ; 0001 08BE                 case 9:
                 _0x2026C:
00147a 30e9      	CPI  R30,LOW(0x9)
00147b e0a0      	LDI  R26,HIGH(0x9)
00147c 07fa      	CPC  R31,R26
00147d f471      	BRNE _0x2021E
                 ; 0001 08BF                     LEDL=1;LEDR=1;PORTA.4=1;delay_ms(10);
00147e 9aac      	SBI  0x15,4
00147f 9aad      	SBI  0x15,5
001480 9adc      	SBI  0x1B,4
001481 940e 1a79 	CALL SUBOPT_0x49
001483 940e 1e6d 	CALL _delay_ms
                 ; 0001 08C0                     LEDL=0;LEDR=0;PORTA.4=0;delay_ms(30);
001485 98ac      	CBI  0x15,4
                 _0x202E0:
001486 98ad      	CBI  0x15,5
                 _0x202DE:
001487 98dc      	CBI  0x1B,4
                 _0x202DF:
001488 e1ee      	LDI  R30,LOW(30)
001489 e0f0      	LDI  R31,HIGH(30)
00148a 940e 1dc9 	CALL SUBOPT_0xAC
                 ; 0001 08C1                 break;
                 ; 0001 08C2             };
                 _0x2021E:
                 ; 0001 08C3         //LEDL=1;delay_ms(100);
                 ; 0001 08C4         //LEDL=0;delay_ms(100);
                 ; 0001 08C5         //for(i=0;i<id;i++)
                 ; 0001 08C6         //{
                 ; 0001 08C7         //    LEDR=1;delay_ms(150);
                 ; 0001 08C8         //    LEDR=0;delay_ms(150);
                 ; 0001 08C9         //}
                 ; 0001 08CA }
00148c 9119      	LD   R17,Y+
00148d 9508      	RET
                 ;//========================================================
                 ;//========================================================
                 ;void testRCservo()
                 ; 0001 08CE {
                 _testRCservo:
                 ; 0001 08CF         clear();
00148e 940e 03ca 	CALL _clear
                 ; 0001 08D0         hc(0,10);
001490 940e 1cff 	CALL SUBOPT_0x88
001492 940e 1a79 	CALL SUBOPT_0x49
001494 940e 0388 	CALL _hc
                 ; 0001 08D1         ws ("RC SERVO");
                +
001496 e0e9     +LDI R30 , LOW ( _0x20284 + ( 0 ) )
001497 e0f3     +LDI R31 , HIGH ( _0x20284 + ( 0 ) )
                 	__POINTW1MN _0x20284,0
001498 940e 18d5 	CALL SUBOPT_0xE
                 ; 0001 08D2 // Timer/Counter 0 initialization
                 ; 0001 08D3 // Clock source: System Clock
                 ; 0001 08D4 // Clock value: 7.813 kHz
                 ; 0001 08D5 // Mode: Phase correct PWM top=0xFF
                 ; 0001 08D6 // OC0 output: Non-Inverted PWM
                 ; 0001 08D7 TCCR0=0x65;     //15.32Hz
00149a e6e5      	LDI  R30,LOW(101)
00149b 940e 1dcd 	CALL SUBOPT_0xAD
                 ; 0001 08D8 TCNT0=0x00;
                 ; 0001 08D9 OCR0=0x00;
                 ; 0001 08DA 
                 ; 0001 08DB // Timer/Counter 2 initialization
                 ; 0001 08DC // Clock source: System Clock
                 ; 0001 08DD // Clock value: 7.813 kHz
                 ; 0001 08DE // Mode: Phase correct PWM top=0xFF
                 ; 0001 08DF // OC2 output: Non-Inverted PWM
                 ; 0001 08E0 ASSR=0x00;      //15.32Hz
                 ; 0001 08E1 TCCR2=0x67;
00149d e6e7      	LDI  R30,LOW(103)
00149e bde5      	OUT  0x25,R30
                 ; 0001 08E2 TCNT2=0x00;
00149f e0e0      	LDI  R30,LOW(0)
0014a0 bde4      	OUT  0x24,R30
                 ; 0001 08E3 OCR2=0x00;
0014a1 bde3      	OUT  0x23,R30
                 ; 0001 08E4 
                 ; 0001 08E5   while(keyKT!=0)
                 _0x20285:
0014a2 9b98      	SBIS 0x13,0
0014a3 c013      	RJMP _0x20287
                 ; 0001 08E6    {
                 ; 0001 08E7    LEDL=1;LEDR=1;//PORTB.3=1;
0014a4 9aac      	SBI  0x15,4
0014a5 9aad      	SBI  0x15,5
                 ; 0001 08E8    OCR0=2; OCR2=2;
0014a6 e0e2      	LDI  R30,LOW(2)
0014a7 bfec      	OUT  0x3C,R30
0014a8 bde3      	OUT  0x23,R30
                 ; 0001 08E9    delay_ms(2000);
0014a9 ede0      	LDI  R30,LOW(2000)
0014aa e0f7      	LDI  R31,HIGH(2000)
0014ab 940e 1dc9 	CALL SUBOPT_0xAC
                 ; 0001 08EA 
                 ; 0001 08EB    LEDL=0;LEDR=0;//PORTB.3=1;
0014ad 98ac      	CBI  0x15,4
0014ae 98ad      	CBI  0x15,5
                 ; 0001 08EC    OCR0=10; OCR2=10;
0014af e0ea      	LDI  R30,LOW(10)
0014b0 bfec      	OUT  0x3C,R30
0014b1 bde3      	OUT  0x23,R30
                 ; 0001 08ED    delay_ms(2000);
0014b2 ede0      	LDI  R30,LOW(2000)
0014b3 e0f7      	LDI  R31,HIGH(2000)
0014b4 940e 1dc9 	CALL SUBOPT_0xAC
                 ; 0001 08EE    }
0014b6 cfeb      	RJMP _0x20285
                 _0x20287:
                 ; 0001 08EF // Timer/Counter 0 initialization
                 ; 0001 08F0 // Clock source: System Clock
                 ; 0001 08F1 // Clock value: Timer 0 Stopped
                 ; 0001 08F2 // Mode: Normal top=0xFF
                 ; 0001 08F3 // OC0 output: Disconnected
                 ; 0001 08F4 TCCR0=0x00;
0014b7 e0e0      	LDI  R30,LOW(0)
0014b8 940e 1dcd 	CALL SUBOPT_0xAD
                 ; 0001 08F5 TCNT0=0x00;
                 ; 0001 08F6 OCR0=0x00;
                 ; 0001 08F7 
                 ; 0001 08F8 // Timer/Counter 2 initialization
                 ; 0001 08F9 // Clock source: System Clock
                 ; 0001 08FA // Clock value: Timer2 Stopped
                 ; 0001 08FB // Mode: Normal top=0xFF
                 ; 0001 08FC // OC2 output: Disconnected
                 ; 0001 08FD ASSR =0x00;
                 ; 0001 08FE TCCR2=0x00;
0014ba e0e0      	LDI  R30,LOW(0)
0014bb bde5      	OUT  0x25,R30
                 ; 0001 08FF TCNT2=0x00;
0014bc bde4      	OUT  0x24,R30
                 ; 0001 0900 OCR2 =0x00;
0014bd bde3      	OUT  0x23,R30
                 ; 0001 0901 
                 ; 0001 0902 }
0014be 9508      	RET
                 
                 	.DSEG
                 _0x20284:
000309           	.BYTE 0x9
                 ;
                 ;void selftest()
                 ; 0001 0905 {
                 
                 	.CSEG
                 _selftest:
                 ; 0001 0906     outlcd1();
0014bf 940e 1dd3 	CALL SUBOPT_0xAE
                 ; 0001 0907     hc(2,0);
                 ; 0001 0908     ws ("1.ROBOT WALL");delay_ms(200);
                +
0014c1 e1e2     +LDI R30 , LOW ( _0x20290 + ( 0 ) )
0014c2 e0f3     +LDI R31 , HIGH ( _0x20290 + ( 0 ) )
                 	__POINTW1MN _0x20290,0
0014c3 940e 18d5 	CALL SUBOPT_0xE
0014c5 940e 1d04 	CALL SUBOPT_0x89
                 ; 0001 0909      while(flagselftest==1)
                 _0x20291:
0014c7 91a0 04b5 	LDS  R26,_flagselftest
0014c9 91b0 04b6 	LDS  R27,_flagselftest+1
0014cb 9711      	SBIW R26,1
0014cc f011      	BREQ PC+3
0014cd 940c 157a 	JMP _0x20293
                 ; 0001 090A      {
                 ; 0001 090B         //------------------------------------------------------------------------
                 ; 0001 090C         //test menu kiem tra  robot
                 ; 0001 090D          chopledtheoid();
0014cf df3b      	RCALL _chopledtheoid
                 ; 0001 090E           if(keyKT==0)
0014d0 9998      	SBIC 0x13,0
0014d1 c06a      	RJMP _0x20294
                 ; 0001 090F             {
                 ; 0001 0910                 id++;
0014d2 91e0 04b9 	LDS  R30,_id
0014d4 5fef      	SUBI R30,-LOW(1)
0014d5 93e0 04b9 	STS  _id,R30
                 ; 0001 0911                 if(id>11){id=1;}
0014d7 91a0 04b9 	LDS  R26,_id
0014d9 30ac      	CPI  R26,LOW(0xC)
0014da f018      	BRLO _0x20295
0014db e0e1      	LDI  R30,LOW(1)
0014dc 93e0 04b9 	STS  _id,R30
                 ; 0001 0912                 switch (id)
                 _0x20295:
0014de 940e 1dc2 	CALL SUBOPT_0xAB
                 ; 0001 0913                 {
                 ; 0001 0914 
                 ; 0001 0915                 case 1:
0014e0 f429      	BRNE _0x20299
                 ; 0001 0916                     outlcd1();
0014e1 940e 1dd3 	CALL SUBOPT_0xAE
                 ; 0001 0917                     hc(2,0);
                 ; 0001 0918                     ws ("1.ROBOT WALL");delay_ms(200);
                +
0014e3 e1ef     +LDI R30 , LOW ( _0x20290 + ( 13 ) )
0014e4 e0f3     +LDI R31 , HIGH ( _0x20290 + ( 13 ) )
                 	__POINTW1MN _0x20290,13
0014e5 c050      	RJMP _0x202E1
                 ; 0001 0919                 break;
                 ; 0001 091A                 case 2:
                 _0x20299:
0014e6 30e2      	CPI  R30,LOW(0x2)
0014e7 e0a0      	LDI  R26,HIGH(0x2)
0014e8 07fa      	CPC  R31,R26
0014e9 f429      	BRNE _0x2029A
                 ; 0001 091B                     outlcd1();
0014ea 940e 1dd3 	CALL SUBOPT_0xAE
                 ; 0001 091C                     hc(2,0);
                 ; 0001 091D                     ws ("2.BLUETOOTH ");delay_ms(200);
                +
0014ec e2ec     +LDI R30 , LOW ( _0x20290 + ( 26 ) )
0014ed e0f3     +LDI R31 , HIGH ( _0x20290 + ( 26 ) )
                 	__POINTW1MN _0x20290,26
0014ee c047      	RJMP _0x202E1
                 ; 0001 091E                 break;
                 ; 0001 091F                 case 3:
                 _0x2029A:
0014ef 30e3      	CPI  R30,LOW(0x3)
0014f0 e0a0      	LDI  R26,HIGH(0x3)
0014f1 07fa      	CPC  R31,R26
0014f2 f429      	BRNE _0x2029B
                 ; 0001 0920                     outlcd1();
0014f3 940e 1dd3 	CALL SUBOPT_0xAE
                 ; 0001 0921                     hc(2,0);
                 ; 0001 0922                     ws ("3.WHITE LINE");delay_ms(200);
                +
0014f5 e3e9     +LDI R30 , LOW ( _0x20290 + ( 39 ) )
0014f6 e0f3     +LDI R31 , HIGH ( _0x20290 + ( 39 ) )
                 	__POINTW1MN _0x20290,39
0014f7 c03e      	RJMP _0x202E1
                 ; 0001 0923                 break;
                 ; 0001 0924                 case 4:
                 _0x2029B:
0014f8 30e4      	CPI  R30,LOW(0x4)
0014f9 e0a0      	LDI  R26,HIGH(0x4)
0014fa 07fa      	CPC  R31,R26
0014fb f429      	BRNE _0x2029C
                 ; 0001 0925                     outlcd1();
0014fc 940e 1dd3 	CALL SUBOPT_0xAE
                 ; 0001 0926                     hc(2,0);
                 ; 0001 0927                     ws ("4.BLACK LINE");delay_ms(200);
                +
0014fe e4e6     +LDI R30 , LOW ( _0x20290 + ( 52 ) )
0014ff e0f3     +LDI R31 , HIGH ( _0x20290 + ( 52 ) )
                 	__POINTW1MN _0x20290,52
001500 c035      	RJMP _0x202E1
                 ; 0001 0928                 break;
                 ; 0001 0929                 case 5:
                 _0x2029C:
001501 30e5      	CPI  R30,LOW(0x5)
001502 e0a0      	LDI  R26,HIGH(0x5)
001503 07fa      	CPC  R31,R26
001504 f429      	BRNE _0x2029D
                 ; 0001 092A                     outlcd1();
001505 940e 1dd3 	CALL SUBOPT_0xAE
                 ; 0001 092B                     hc(2,0);
                 ; 0001 092C                     ws ("5.TEST MOTOR");delay_ms(200);
                +
001507 e5e3     +LDI R30 , LOW ( _0x20290 + ( 65 ) )
001508 e0f3     +LDI R31 , HIGH ( _0x20290 + ( 65 ) )
                 	__POINTW1MN _0x20290,65
001509 c02c      	RJMP _0x202E1
                 ; 0001 092D                 break;
                 ; 0001 092E                 case 6:
                 _0x2029D:
00150a 30e6      	CPI  R30,LOW(0x6)
00150b e0a0      	LDI  R26,HIGH(0x6)
00150c 07fa      	CPC  R31,R26
00150d f429      	BRNE _0x2029E
                 ; 0001 092F                     outlcd1();
00150e 940e 1dd3 	CALL SUBOPT_0xAE
                 ; 0001 0930                     hc(2,0);
                 ; 0001 0931                     ws ("6.TEST IR   ");delay_ms(200);
                +
001510 e6e0     +LDI R30 , LOW ( _0x20290 + ( 78 ) )
001511 e0f3     +LDI R31 , HIGH ( _0x20290 + ( 78 ) )
                 	__POINTW1MN _0x20290,78
001512 c023      	RJMP _0x202E1
                 ; 0001 0932                 break;
                 ; 0001 0933                 case 7:
                 _0x2029E:
001513 30e7      	CPI  R30,LOW(0x7)
001514 e0a0      	LDI  R26,HIGH(0x7)
001515 07fa      	CPC  R31,R26
001516 f429      	BRNE _0x2029F
                 ; 0001 0934                     outlcd1();
001517 940e 1dd3 	CALL SUBOPT_0xAE
                 ; 0001 0935                     hc(2,0);
                 ; 0001 0936                     ws ("7.TEST RF   ");delay_ms(200);
                +
001519 e6ed     +LDI R30 , LOW ( _0x20290 + ( 91 ) )
00151a e0f3     +LDI R31 , HIGH ( _0x20290 + ( 91 ) )
                 	__POINTW1MN _0x20290,91
00151b c01a      	RJMP _0x202E1
                 ; 0001 0937                 break;
                 ; 0001 0938                 case 8:
                 _0x2029F:
00151c 30e8      	CPI  R30,LOW(0x8)
00151d e0a0      	LDI  R26,HIGH(0x8)
00151e 07fa      	CPC  R31,R26
00151f f429      	BRNE _0x202A0
                 ; 0001 0939                     outlcd1();
001520 940e 1dd3 	CALL SUBOPT_0xAE
                 ; 0001 093A                     hc(2,0);
                 ; 0001 093B                     ws ("8.TEST UART ");delay_ms(200);
                +
001522 e7ea     +LDI R30 , LOW ( _0x20290 + ( 104 ) )
001523 e0f3     +LDI R31 , HIGH ( _0x20290 + ( 104 ) )
                 	__POINTW1MN _0x20290,104
001524 c011      	RJMP _0x202E1
                 ; 0001 093C                 break;
                 ; 0001 093D                 case 9:
                 _0x202A0:
001525 30e9      	CPI  R30,LOW(0x9)
001526 e0a0      	LDI  R26,HIGH(0x9)
001527 07fa      	CPC  R31,R26
001528 f429      	BRNE _0x202A1
                 ; 0001 093E                     outlcd1();
001529 940e 1dd3 	CALL SUBOPT_0xAE
                 ; 0001 093F                     hc(2,0);
                 ; 0001 0940                     ws ("9.RC SERVO ");delay_ms(200);
                +
00152b e8e7     +LDI R30 , LOW ( _0x20290 + ( 117 ) )
00152c e0f3     +LDI R31 , HIGH ( _0x20290 + ( 117 ) )
                 	__POINTW1MN _0x20290,117
00152d c008      	RJMP _0x202E1
                 ; 0001 0941                 break;
                 ; 0001 0942                 case 10:
                 _0x202A1:
00152e 30ea      	CPI  R30,LOW(0xA)
00152f e0a0      	LDI  R26,HIGH(0xA)
001530 07fa      	CPC  R31,R26
001531 f451      	BRNE _0x20298
                 ; 0001 0943                     outlcd1();
001532 940e 1dd3 	CALL SUBOPT_0xAE
                 ; 0001 0944                     hc(2,0);
                 ; 0001 0945                     ws ("10.UPDATE RB");delay_ms(200);
                +
001534 e9e3     +LDI R30 , LOW ( _0x20290 + ( 129 ) )
001535 e0f3     +LDI R31 , HIGH ( _0x20290 + ( 129 ) )
                 	__POINTW1MN _0x20290,129
                 _0x202E1:
001536 93fa      	ST   -Y,R31
001537 93ea      	ST   -Y,R30
001538 940e 03b1 	CALL _ws
00153a 940e 1d04 	CALL SUBOPT_0x89
                 ; 0001 0946                 break;
                 ; 0001 0947                 };
                 _0x20298:
                 ; 0001 0948             }
                 ; 0001 0949          if(keyKP==0)
                 _0x20294:
00153c 9999      	SBIC 0x13,1
00153d c03b      	RJMP _0x202A3
                 ; 0001 094A             {
                 ; 0001 094B                 switch (id)
00153e 940e 1dc2 	CALL SUBOPT_0xAB
                 ; 0001 094C                 {
                 ; 0001 094D                 case 1:
001540 f411      	BRNE _0x202A7
                 ; 0001 094E                     robotwall() ;
001541 d8a0      	RCALL _robotwall
                 ; 0001 094F                 break;
001542 c036      	RJMP _0x202A6
                 ; 0001 0950                 case 2:
                 _0x202A7:
001543 30e2      	CPI  R30,LOW(0x2)
001544 e0a0      	LDI  R26,HIGH(0x2)
001545 07fa      	CPC  R31,R26
001546 f411      	BRNE _0x202A8
                 ; 0001 0951                     bluetooth() ;
001547 dd5a      	RCALL _bluetooth
                 ; 0001 0952                 break;
001548 c030      	RJMP _0x202A6
                 ; 0001 0953                 case 3:
                 _0x202A8:
001549 30e3      	CPI  R30,LOW(0x3)
00154a e0a0      	LDI  R26,HIGH(0x3)
00154b 07fa      	CPC  R31,R26
00154c f411      	BRNE _0x202A9
                 ; 0001 0954                     robotwhiteline() ;
00154d d98d      	RCALL _robotwhiteline
                 ; 0001 0955                 break;
00154e c02a      	RJMP _0x202A6
                 ; 0001 0956                 case 4:
                 _0x202A9:
00154f 30e4      	CPI  R30,LOW(0x4)
001550 e0a0      	LDI  R26,HIGH(0x4)
001551 07fa      	CPC  R31,R26
001552 f411      	BRNE _0x202AA
                 ; 0001 0957                     robotblackline() ;
001553 da86      	RCALL _robotblackline
                 ; 0001 0958                 break;
001554 c024      	RJMP _0x202A6
                 ; 0001 0959                 case 5:
                 _0x202AA:
001555 30e5      	CPI  R30,LOW(0x5)
001556 e0a0      	LDI  R26,HIGH(0x5)
001557 07fa      	CPC  R31,R26
001558 f411      	BRNE _0x202AB
                 ; 0001 095A                     testmotor() ;
001559 ddab      	RCALL _testmotor
                 ; 0001 095B                 break;
00155a c01e      	RJMP _0x202A6
                 ; 0001 095C                 case 6:
                 _0x202AB:
00155b 30e6      	CPI  R30,LOW(0x6)
00155c e0a0      	LDI  R26,HIGH(0x6)
00155d 07fa      	CPC  R31,R26
00155e f411      	BRNE _0x202AC
                 ; 0001 095D                     testir()    ;
00155f ddf8      	RCALL _testir
                 ; 0001 095E                 break;
001560 c018      	RJMP _0x202A6
                 ; 0001 095F                 case 7:
                 _0x202AC:
001561 30e7      	CPI  R30,LOW(0x7)
001562 e0a0      	LDI  R26,HIGH(0x7)
001563 07fa      	CPC  R31,R26
001564 f411      	BRNE _0x202AD
                 ; 0001 0960                     testrf()    ;
001565 ddf1      	RCALL _testrf
                 ; 0001 0961                 break;
001566 c012      	RJMP _0x202A6
                 ; 0001 0962                 case 8:
                 _0x202AD:
001567 30e8      	CPI  R30,LOW(0x8)
001568 e0a0      	LDI  R26,HIGH(0x8)
001569 07fa      	CPC  R31,R26
00156a f411      	BRNE _0x202AE
                 ; 0001 0963                     testuart()  ;
00156b ddd7      	RCALL _testuart
                 ; 0001 0964                 break;
00156c c00c      	RJMP _0x202A6
                 ; 0001 0965                 case 9:
                 _0x202AE:
00156d 30e9      	CPI  R30,LOW(0x9)
00156e e0a0      	LDI  R26,HIGH(0x9)
00156f 07fa      	CPC  R31,R26
001570 f411      	BRNE _0x202AF
                 ; 0001 0966                     testRCservo()  ;
001571 df1c      	RCALL _testRCservo
                 ; 0001 0967                 break;
001572 c006      	RJMP _0x202A6
                 ; 0001 0968                 case 10:
                 _0x202AF:
001573 30ea      	CPI  R30,LOW(0xA)
001574 e0a0      	LDI  R26,HIGH(0xA)
001575 07fa      	CPC  R31,R26
001576 f411      	BRNE _0x202A6
                 ; 0001 0969                     testposition() ;
001577 940e 0d8a 	CALL _testposition
                 ; 0001 096A                 break;
                 ; 0001 096B 
                 ; 0001 096C                 };
                 _0x202A6:
                 ; 0001 096D 
                 ; 0001 096E             }
                 ; 0001 096F 
                 ; 0001 0970 
                 ; 0001 0971      }//end while(1)
                 _0x202A3:
001579 cf4d      	RJMP _0x20291
                 _0x20293:
                 ; 0001 0972 }
00157a 9508      	RET
                 
                 	.DSEG
                 _0x20290:
000312           	.BYTE 0x8E
                 ;//========================================================
                 ;//          HAM MAIN
                 ;//========================================================
                 ;void main(void)
                 ; 0001 0977 {
                 
                 	.CSEG
                 _main:
                 ; 0001 0978     unsigned char flagreadrb;
                 ; 0001 0979     unsigned int adctest;
                 ; 0001 097A     unsigned char i;
                 ; 0001 097B     float pidl,pidr,pl,il,pr,ir,ur,ul;
                 ; 0001 097C 
                 ; 0001 097D     //------------- khai  bao chuc nang in out cua cac port
                 ; 0001 097E     DDRA    = 0xFF;
00157b 97a0      	SBIW R28,32
                 ;	flagreadrb -> R17
                 ;	adctest -> R18,R19
                 ;	i -> R16
                 ;	pidl -> Y+28
                 ;	pidr -> Y+24
                 ;	pl -> Y+20
                 ;	il -> Y+16
                 ;	pr -> Y+12
                 ;	ir -> Y+8
                 ;	ur -> Y+4
                 ;	ul -> Y+0
00157c efef      	LDI  R30,LOW(255)
00157d bbea      	OUT  0x1A,R30
                 ; 0001 097F     DDRB    = 0b10111111;
00157e ebef      	LDI  R30,LOW(191)
00157f bbe7      	OUT  0x17,R30
                 ; 0001 0980     DDRC    = 0b11111100;
001580 efec      	LDI  R30,LOW(252)
001581 bbe4      	OUT  0x14,R30
                 ; 0001 0981     DDRD    = 0b11110010;
001582 efe2      	LDI  R30,LOW(242)
001583 bbe1      	OUT  0x11,R30
                 ; 0001 0982 
                 ; 0001 0983     //------------- khai  bao chuc nang cua adc
                 ; 0001 0984     // ADC initialization
                 ; 0001 0985     // ADC Clock frequency: 1000.000 kHz
                 ; 0001 0986     // ADC Voltage Reference: AVCC pin
                 ; 0001 0987     ADMUX=ADC_VREF_TYPE & 0xff;
001584 e4e0      	LDI  R30,LOW(64)
001585 b9e7      	OUT  0x7,R30
                 ; 0001 0988     ADCSRA=0x83;
001586 e8e3      	LDI  R30,LOW(131)
001587 b9e6      	OUT  0x6,R30
                 ; 0001 0989     //---------------------------------------------------------------------
                 ; 0001 098A     //------------- khai  bao chuc nang cua bo timer dung lam PWM cho 2 dong co
                 ; 0001 098B     // Timer/Counter 1 initialization
                 ; 0001 098C     // Clock source: System Clock
                 ; 0001 098D     // Clock value: 1000.000 kHz   //PWM 2KHz
                 ; 0001 098E     // Mode: Ph. correct PWM top=0x00FF
                 ; 0001 098F     // OC1A output: Non-Inv.
                 ; 0001 0990     // OC1B output: Non-Inv.
                 ; 0001 0991     // Noise Canceler: Off
                 ; 0001 0992     // Input Capture on Falling Edge
                 ; 0001 0993     // Timer1 Overflow Interrupt: On  // voi period =1/2khz= 0.5ms
                 ; 0001 0994     // Input Capture Interrupt: Off
                 ; 0001 0995     // Compare A Match Interrupt: Off
                 ; 0001 0996     // Compare B Match Interrupt: Off
                 ; 0001 0997     TCCR1A=0xA1;
001588 eae1      	LDI  R30,LOW(161)
001589 bdef      	OUT  0x2F,R30
                 ; 0001 0998     TCCR1B=0x02;
00158a e0e2      	LDI  R30,LOW(2)
00158b bdee      	OUT  0x2E,R30
                 ; 0001 0999     TCNT1H=0x00;
00158c e0e0      	LDI  R30,LOW(0)
00158d bded      	OUT  0x2D,R30
                 ; 0001 099A     TCNT1L=0x00;
00158e bdec      	OUT  0x2C,R30
                 ; 0001 099B     ICR1H=0x00;
00158f bde7      	OUT  0x27,R30
                 ; 0001 099C     ICR1L=0x00;
001590 bde6      	OUT  0x26,R30
                 ; 0001 099D     OCR1AH=0x00;
001591 bdeb      	OUT  0x2B,R30
                 ; 0001 099E     OCR1AL=0x00;
001592 bdea      	OUT  0x2A,R30
                 ; 0001 099F     OCR1BH=0x00;
001593 bde9      	OUT  0x29,R30
                 ; 0001 09A0     OCR1BL=0x00;
001594 bde8      	OUT  0x28,R30
                 ; 0001 09A1     // Timer(s)/Counter(s) Interrupt(s) initialization  timer0
                 ; 0001 09A2     TIMSK=0x04;
001595 e0e4      	LDI  R30,LOW(4)
001596 bfe9      	OUT  0x39,R30
                 ; 0001 09A3 
                 ; 0001 09A4     //OCR1A=0-255; MOTOR LEFT
                 ; 0001 09A5     //OCR1B=0-255; MOTOR RIGHT
                 ; 0001 09A6     for(i=0;i<1;i++)
001597 e000      	LDI  R16,LOW(0)
                 _0x202B2:
001598 3001      	CPI  R16,1
001599 f420      	BRSH _0x202B3
                 ; 0001 09A7     {
                 ; 0001 09A8         LEDL=1; LEDR=1;
00159a 940e 1da8 	CALL SUBOPT_0xA7
                 ; 0001 09A9         delay_ms(100);
                 ; 0001 09AA         LEDL=0; LEDR=0;
                 ; 0001 09AB         delay_ms(100);
                 ; 0001 09AC     }
00159c 5f0f      	SUBI R16,-1
00159d cffa      	RJMP _0x202B2
                 _0x202B3:
                 ; 0001 09AD 
                 ; 0001 09AE     //khai  bao su dung cua glcd
                 ; 0001 09AF     SPIinit();
00159e 940e 043b 	CALL _SPIinit
                 ; 0001 09B0     LCDinit();
0015a0 940e 0440 	CALL _LCDinit
                 ; 0001 09B1 
                 ; 0001 09B2     // khai  bao su dung rf dung de cap nhat gia tri vi tri cua robot
                 ; 0001 09B3     init_NRF24L01();
0015a2 940e 02b0 	CALL _init_NRF24L01
                 ; 0001 09B4     SetRX_Mode();  // chon kenh tan so phat, va dia chi phat trong file nRF14l01.c
0015a4 940e 0340 	CALL _SetRX_Mode
                 ; 0001 09B5     // khai bao su dung encoder
                 ; 0001 09B6     initencoder(); //lay 2 canh len  xuong
0015a6 940e 0503 	CALL _initencoder
                 ; 0001 09B7     // khai bao su dung uart
                 ; 0001 09B8     inituart();
0015a8 940e 04e3 	CALL _inituart
                 ; 0001 09B9     #asm("sei")
0015aa 9478      	sei
                 ; 0001 09BA 
                 ; 0001 09BB     //man hinh khoi dong robokit
                 ; 0001 09BC     hc(0,10);
0015ab 940e 1cff 	CALL SUBOPT_0x88
0015ad 940e 1a79 	CALL SUBOPT_0x49
0015af 940e 0388 	CALL _hc
                 ; 0001 09BD     ws("<AKBOTKIT>");
                +
0015b1 eae0     +LDI R30 , LOW ( _0x202BC + ( 0 ) )
0015b2 e0f3     +LDI R31 , HIGH ( _0x202BC + ( 0 ) )
                 	__POINTW1MN _0x202BC,0
0015b3 940e 18d5 	CALL SUBOPT_0xE
                 ; 0001 09BE     hc(1,0);
0015b5 940e 1d0d 	CALL SUBOPT_0x8B
                 ; 0001 09BF     ws("************");
                +
0015b7 eaeb     +LDI R30 , LOW ( _0x202BC + ( 11 ) )
0015b8 e0f3     +LDI R31 , HIGH ( _0x202BC + ( 11 ) )
                 	__POINTW1MN _0x202BC,11
0015b9 940e 18d5 	CALL SUBOPT_0xE
                 ; 0001 09C0 
                 ; 0001 09C1     //robotwhiteline();
                 ; 0001 09C2     //robotblackline();
                 ; 0001 09C3     //kiem tra neu nhan va giu nut trai se vao chuong trinh selftest (kiem tra hoat dong cua robot)
                 ; 0001 09C4     while (keyKT==0)
                 _0x202BD:
0015bb 9998      	SBIC 0x13,0
0015bc c01d      	RJMP _0x202BF
                 ; 0001 09C5     {
                 ; 0001 09C6       cntselftest++;
0015bd eba7      	LDI  R26,LOW(_cntselftest)
0015be e0b4      	LDI  R27,HIGH(_cntselftest)
0015bf 940e 1c4e 	CALL SUBOPT_0x6B
                 ; 0001 09C7       if(cntselftest>10)
0015c1 91a0 04b7 	LDS  R26,_cntselftest
0015c3 91b0 04b8 	LDS  R27,_cntselftest+1
0015c5 971b      	SBIW R26,11
0015c6 f070      	BRLO _0x202C0
                 ; 0001 09C8       {
                 ; 0001 09C9            while (keyKT==0);//CHO NHA NUT AN
                 _0x202C1:
0015c7 9b98      	SBIS 0x13,0
0015c8 cffe      	RJMP _0x202C1
                 ; 0001 09CA            cntselftest=0;
0015c9 e0e0      	LDI  R30,LOW(0)
0015ca 93e0 04b7 	STS  _cntselftest,R30
0015cc 93e0 04b8 	STS  _cntselftest+1,R30
                 ; 0001 09CB            flagselftest=1;
0015ce e0e1      	LDI  R30,LOW(1)
0015cf e0f0      	LDI  R31,HIGH(1)
0015d0 93e0 04b5 	STS  _flagselftest,R30
0015d2 93f0 04b6 	STS  _flagselftest+1,R31
                 ; 0001 09CC            selftest();
0015d4 deea      	RCALL _selftest
                 ; 0001 09CD       }
                 ; 0001 09CE       delay_ms(100);
                 _0x202C0:
0015d5 e6e4      	LDI  R30,LOW(100)
0015d6 e0f0      	LDI  R31,HIGH(100)
0015d7 940e 1dc9 	CALL SUBOPT_0xAC
                 ; 0001 09CF     }
0015d9 cfe1      	RJMP _0x202BD
                 _0x202BF:
                 ; 0001 09D0 
                 ; 0001 09D1     // vao chuong trinh chinh sau khi bo qua phan selftest
                 ; 0001 09D2     hc(2,0);
0015da 940e 1db8 	CALL SUBOPT_0xA8
                 ; 0001 09D3     ws("MAIN PROGRAM");
                +
0015dc ebe8     +LDI R30 , LOW ( _0x202BC + ( 24 ) )
0015dd e0f3     +LDI R31 , HIGH ( _0x202BC + ( 24 ) )
                 	__POINTW1MN _0x202BC,24
0015de 940e 18d5 	CALL SUBOPT_0xE
                 ; 0001 09D4     settoadoHomRB();
0015e0 940e 0992 	CALL _settoadoHomRB
                 ; 0001 09D5     // code you here
                 ; 0001 09D6     while (1)
                 _0x202C4:
                 ; 0001 09D7     {
                 ; 0001 09D8      //LEDR=!LEDR;
                 ; 0001 09D9      //PHUC
                 ; 0001 09DA ////     //=========================================================   PHUC ID
                 ; 0001 09DB //         chay theo banh co dinh huong tan cong
                 ; 0001 09DC         readposition();
0015e2 940e 05da 	CALL _readposition
                 ; 0001 09DD         calcvitri(0,0);    // de xac dinh huong tan cong
0015e4 940e 1dd6 	CALL SUBOPT_0xAF
0015e6 940e 212e 	CALL __PUTPARD1
0015e8 940e 1dd6 	CALL SUBOPT_0xAF
0015ea 940e 1a8e 	CALL SUBOPT_0x4D
                 ; 0001 09DE 
                 ; 0001 09DF         //flagtancong=1;
                 ; 0001 09E0         if(flagtancong==1)
0015ec e0e1      	LDI  R30,LOW(1)
0015ed e0f0      	LDI  R31,HIGH(1)
0015ee 15e4      	CP   R30,R4
0015ef 05f5      	CPC  R31,R5
0015f0 f449      	BRNE _0x202C7
                 ; 0001 09E1         {
                 ; 0001 09E2             flagtask=2;
0015f1 e0e2      	LDI  R30,LOW(2)
0015f2 e0f0      	LDI  R31,HIGH(2)
0015f3 940e 1cad 	CALL SUBOPT_0x78
                 ; 0001 09E3             rb_wait(50);
                +
0015f5 e3e2     +LDI R30 , LOW ( 0x32 )
0015f6 e0f0     +LDI R31 , HIGH ( 0x32 )
0015f7 e060     +LDI R22 , BYTE3 ( 0x32 )
0015f8 e070     +LDI R23 , BYTE4 ( 0x32 )
                 	__GETD1N 0x32
0015f9 c03d      	RJMP _0x202E2
                 ; 0001 09E4 
                 ; 0001 09E5         }else
                 _0x202C7:
                 ; 0001 09E6         {
                 ; 0001 09E7             if(offsetphongthu<0)    offsetphongthu=-offsetphongthu;//lay do lon
0015fa 2400      	CLR  R0
0015fb 1460      	CP   R6,R0
0015fc 0470      	CPC  R7,R0
0015fd f424      	BRGE _0x202C9
0015fe 01f3      	MOVW R30,R6
0015ff 940e 2062 	CALL __ANEGW1
001601 013f      	MOVW R6,R30
                 ; 0001 09E8             if(robotctrl.ball.y <= 0)
                 _0x202C9:
                +
001602 91a0 044b+LDS R26 , _robotctrl + ( 12 )
001604 91b0 044c+LDS R27 , _robotctrl + ( 12 ) + 1
                 	__GETW2MN _robotctrl,12
001606 940e 2161 	CALL __CPW02
001608 f03c      	BRLT _0x202CA
                 ; 0001 09E9             {
                 ; 0001 09EA                 setRobotX = robotctrl.ball.x;
001609 940e 1ceb 	CALL SUBOPT_0x84
00160b 940e 1ddb 	CALL SUBOPT_0xB0
                 ; 0001 09EB                 setRobotY = robotctrl.ball.y + offsetphongthu;
00160d 0de6      	ADD  R30,R6
00160e 1df7      	ADC  R31,R7
00160f c006      	RJMP _0x202E3
                 ; 0001 09EC 
                 ; 0001 09ED                 flagtask=0;
                 ; 0001 09EE                 rb_wait(200);
                 ; 0001 09EF 
                 ; 0001 09F0             }else
                 _0x202CA:
                 ; 0001 09F1             {
                 ; 0001 09F2                 setRobotX = robotctrl.ball.x;
001610 940e 1ceb 	CALL SUBOPT_0x84
001612 940e 1ddb 	CALL SUBOPT_0xB0
                 ; 0001 09F3                 setRobotY = robotctrl.ball.y - offsetphongthu;
001614 19e6      	SUB  R30,R6
001615 09f7      	SBC  R31,R7
                 _0x202E3:
001616 e7ad      	LDI  R26,LOW(_setRobotY)
001617 e0b4      	LDI  R27,HIGH(_setRobotY)
001618 940e 1922 	CALL SUBOPT_0x16
00161a 940e 211a 	CALL __PUTDP1
                 ; 0001 09F4 
                 ; 0001 09F5                 flagtask=0;
00161c e0e0      	LDI  R30,LOW(0)
00161d 93e0 04f6 	STS  _flagtask,R30
00161f 93e0 04f7 	STS  _flagtask+1,R30
                 ; 0001 09F6                 rb_wait(200);
001621 940e 1de1 	CALL SUBOPT_0xB1
                 ; 0001 09F7 
                 ; 0001 09F8             }
                 ; 0001 09F9 
                 ; 0001 09FA              setRobotX = robotctrl.ball.x+offsetphongthu;
001623 940e 1ceb 	CALL SUBOPT_0x84
001625 0de6      	ADD  R30,R6
001626 1df7      	ADC  R31,R7
001627 940e 1ddb 	CALL SUBOPT_0xB0
                 ; 0001 09FB              setRobotY = robotctrl.ball.y;
001629 e7ad      	LDI  R26,LOW(_setRobotY)
00162a e0b4      	LDI  R27,HIGH(_setRobotY)
00162b 940e 1922 	CALL SUBOPT_0x16
00162d 940e 211a 	CALL __PUTDP1
                 ; 0001 09FC              rb_wait(200);
00162f 940e 1de1 	CALL SUBOPT_0xB1
                 ; 0001 09FD              rb_goball();
001631 940e 0bc0 	CALL _rb_goball
                 ; 0001 09FE              rb_wait(200);
                +
001633 ece8     +LDI R30 , LOW ( 0xC8 )
001634 e0f0     +LDI R31 , HIGH ( 0xC8 )
001635 e060     +LDI R22 , BYTE3 ( 0xC8 )
001636 e070     +LDI R23 , BYTE4 ( 0xC8 )
                 	__GETD1N 0xC8
                 _0x202E2:
001637 940e 212e 	CALL __PUTPARD1
001639 940e 0bcd 	CALL _rb_wait
                 ; 0001 09FF 
                 ; 0001 0A00 
                 ; 0001 0A01         }
                 ; 0001 0A02         ctrrobot();// can phai luon luon chay de dieu khien robot
00163b 940e 0a60 	CALL _ctrrobot
                 ; 0001 0A03      } //end while(1)
00163d cfa4      	RJMP _0x202C4
                 ; 0001 0A04 }
                 _0x202CC:
00163e cfff      	RJMP _0x202CC
                 
                 	.DSEG
                 _0x202BC:
0003a0           	.BYTE 0x25
                 ;
                 
                 	.CSEG
                 	#ifndef __SLEEP_DEFINED__
                 	#endif
                 
                 	.CSEG
                 _spi:
00163f 81e8      	LD   R30,Y
001640 b9ef      	OUT  0xF,R30
                 _0x2020003:
001641 9b77      	SBIS 0xE,7
001642 cffe      	RJMP _0x2020003
001643 b1ef      	IN   R30,0xF
001644 9621      	ADIW R28,1
001645 9508      	RET
                 	#ifndef __SLEEP_DEFINED__
                 	#endif
                 
                 	.CSEG
                 
                 	.CSEG
                 _ftrunc:
001646 817b         ldd  r23,y+3
001647 816a         ldd  r22,y+2
001648 81f9         ldd  r31,y+1
001649 81e8         ld   r30,y
00164a fb77         bst  r23,7
00164b 0f77         lsl  r23
00164c fd67         sbrc r22,7
00164d 6071         sbr  r23,1
00164e 2f97         mov  r25,r23
00164f 579e         subi r25,0x7e
001650 f081         breq __ftrunc0
001651 f078         brcs __ftrunc0
001652 3198         cpi  r25,24
001653 f490         brsh __ftrunc1
001654 27aa         clr  r26
001655 27bb         clr  r27
001656 2788         clr  r24
                 __ftrunc2:
001657 9408         sec
001658 9587         ror  r24
001659 95b7         ror  r27
00165a 95a7         ror  r26
00165b 959a         dec  r25
00165c f7d1         brne __ftrunc2
00165d 23ea         and  r30,r26
00165e 23fb         and  r31,r27
00165f 2368         and  r22,r24
001660 c005         rjmp __ftrunc1
                 __ftrunc0:
001661 94e8         clt
001662 2777         clr  r23
001663 27ee         clr  r30
001664 27ff         clr  r31
001665 2766         clr  r22
                 __ftrunc1:
001666 776f         cbr  r22,0x80
001667 9576         lsr  r23
001668 f408         brcc __ftrunc3
001669 6860         sbr  r22,0x80
                 __ftrunc3:
00166a f977         bld  r23,7
00166b 91a9         ld   r26,y+
00166c 91b9         ld   r27,y+
00166d 9189         ld   r24,y+
00166e 9199         ld   r25,y+
00166f 17ea         cp   r30,r26
001670 07fb         cpc  r31,r27
001671 0768         cpc  r22,r24
001672 0779         cpc  r23,r25
001673 fb97         bst  r25,7
001674 9508         ret
                 _floor:
001675 940e 1de9 	CALL SUBOPT_0xB2
001677 f419          brne __floor1
                 __floor0:
001678 940e 1cb2 	CALL SUBOPT_0x79
00167a c195      	RJMP _0x20C0002
                 __floor1:
00167b f7e6          brtc __floor0
00167c 940e 1def 	CALL SUBOPT_0xB3
00167e c18f      	RJMP _0x20C0004
                 _ceil:
00167f 940e 1de9 	CALL SUBOPT_0xB2
001681 f419          brne __ceil1
                 __ceil0:
001682 940e 1cb2 	CALL SUBOPT_0x79
001684 c18b      	RJMP _0x20C0002
                 __ceil1:
001685 f3e6          brts __ceil0
001686 940e 1def 	CALL SUBOPT_0xB3
001688 940e 1f1f 	CALL __ADDF12
00168a c185      	RJMP _0x20C0002
                 _fmod:
00168b 940e 1df5 	CALL SUBOPT_0xB4
00168d 940e 215d 	CALL __CPD10
00168f f419      	BRNE _0x2060005
001690 940e 1dd6 	CALL SUBOPT_0xAF
001692 c1c5      	RJMP _0x20C0001
                 _0x2060005:
001693 940e 1dfb 	CALL SUBOPT_0xB5
001695 940e 1cb2 	CALL SUBOPT_0x79
001697 940e 215d 	CALL __CPD10
001699 f419      	BRNE _0x2060006
00169a 940e 1dd6 	CALL SUBOPT_0xAF
00169c c1bb      	RJMP _0x20C0001
                 _0x2060006:
00169d 940e 19c7 	CALL SUBOPT_0x33
00169f 940e 2165 	CALL __CPD02
0016a1 f424      	BRGE _0x2060007
0016a2 940e 1e03 	CALL SUBOPT_0xB6
0016a4 dfd0      	RCALL _floor
0016a5 c003      	RJMP _0x2060033
                 _0x2060007:
0016a6 940e 1e03 	CALL SUBOPT_0xB6
0016a8 dfd6      	RCALL _ceil
                 _0x2060033:
0016a9 940e 2129 	CALL __PUTD1S0
0016ab 940e 1cb2 	CALL SUBOPT_0x79
0016ad 940e 19b1 	CALL SUBOPT_0x2F
0016af 940e 1f6f 	CALL __MULF12
0016b1 940e 1d8c 	CALL SUBOPT_0xA2
0016b3 940e 1e07 	CALL SUBOPT_0xB7
0016b5 c1a2      	RJMP _0x20C0001
                 _sin:
0016b6 940e 1e0c 	CALL SUBOPT_0xB8
                +
0016b8 e8e3     +LDI R30 , LOW ( 0x3E22F983 )
0016b9 eff9     +LDI R31 , HIGH ( 0x3E22F983 )
0016ba e262     +LDI R22 , BYTE3 ( 0x3E22F983 )
0016bb e37e     +LDI R23 , BYTE4 ( 0x3E22F983 )
                 	__GETD1N 0x3E22F983
0016bc 940e 1f6f 	CALL __MULF12
0016be 940e 1e14 	CALL SUBOPT_0xB9
0016c0 940e 1e19 	CALL SUBOPT_0xBA
0016c2 940e 212e 	CALL __PUTPARD1
0016c4 dfb0      	RCALL _floor
0016c5 940e 1e1e 	CALL SUBOPT_0xBB
0016c7 940e 1e07 	CALL SUBOPT_0xB7
0016c9 940e 1e14 	CALL SUBOPT_0xB9
0016cb 940e 1e23 	CALL SUBOPT_0xBC
0016cd 940e 2002 	CALL __CMPF12
0016cf f009      	BREQ PC+2
0016d0 f410      	BRCC PC+3
0016d1 940c 16de 	JMP  _0x2060017
0016d3 940e 1e19 	CALL SUBOPT_0xBA
                +
0016d5 e0a0     +LDI R26 , LOW ( 0x3F000000 )
0016d6 e0b0     +LDI R27 , HIGH ( 0x3F000000 )
0016d7 e080     +LDI R24 , BYTE3 ( 0x3F000000 )
0016d8 e39f     +LDI R25 , BYTE4 ( 0x3F000000 )
                 	__GETD2N 0x3F000000
0016d9 940e 1f18 	CALL __SUBF12
0016db 940e 1e14 	CALL SUBOPT_0xB9
0016dd e011      	LDI  R17,LOW(1)
                 _0x2060017:
0016de 940e 1e1e 	CALL SUBOPT_0xBB
                +
0016e0 e0e0     +LDI R30 , LOW ( 0x3E800000 )
0016e1 e0f0     +LDI R31 , HIGH ( 0x3E800000 )
0016e2 e860     +LDI R22 , BYTE3 ( 0x3E800000 )
0016e3 e37e     +LDI R23 , BYTE4 ( 0x3E800000 )
                 	__GETD1N 0x3E800000
0016e4 940e 2002 	CALL __CMPF12
0016e6 f009      	BREQ PC+2
0016e7 f410      	BRCC PC+3
0016e8 940c 16f0 	JMP  _0x2060018
0016ea 940e 1e23 	CALL SUBOPT_0xBC
0016ec 940e 1f18 	CALL __SUBF12
0016ee 940e 1e14 	CALL SUBOPT_0xB9
                 _0x2060018:
0016f0 3010      	CPI  R17,0
0016f1 f011      	BREQ _0x2060019
0016f2 940e 1e29 	CALL SUBOPT_0xBD
                 _0x2060019:
0016f4 940e 1e2d 	CALL SUBOPT_0xBE
                +
0016f6 83e9     +STD Y + 1 , R30
0016f7 83fa     +STD Y + 1 + 1 , R31
0016f8 836b     +STD Y + 1 + 2 , R22
0016f9 837c     +STD Y + 1 + 3 , R23
                 	__PUTD1S 1
0016fa 940e 1e32 	CALL SUBOPT_0xBF
                +
0016fc eba1     +LDI R26 , LOW ( 0x4226C4B1 )
0016fd ecb4     +LDI R27 , HIGH ( 0x4226C4B1 )
0016fe e286     +LDI R24 , BYTE3 ( 0x4226C4B1 )
0016ff e492     +LDI R25 , BYTE4 ( 0x4226C4B1 )
                 	__GETD2N 0x4226C4B1
001700 940e 1f6f 	CALL __MULF12
001702 01df      	MOVW R26,R30
001703 01cb      	MOVW R24,R22
                +
001704 e1ed     +LDI R30 , LOW ( 0x422DE51D )
001705 eef5     +LDI R31 , HIGH ( 0x422DE51D )
001706 e26d     +LDI R22 , BYTE3 ( 0x422DE51D )
001707 e472     +LDI R23 , BYTE4 ( 0x422DE51D )
                 	__GETD1N 0x422DE51D
001708 940e 1e07 	CALL SUBOPT_0xB7
00170a 940e 1e37 	CALL SUBOPT_0xC0
                +
00170c e4ac     +LDI R26 , LOW ( 0x4104534C )
00170d e5b3     +LDI R27 , HIGH ( 0x4104534C )
00170e e084     +LDI R24 , BYTE3 ( 0x4104534C )
00170f e491     +LDI R25 , BYTE4 ( 0x4104534C )
                 	__GETD2N 0x4104534C
001710 940e 1f1f 	CALL __ADDF12
001712 940e 1e1e 	CALL SUBOPT_0xBB
001714 940e 1f6f 	CALL __MULF12
001716 937f      	PUSH R23
001717 936f      	PUSH R22
001718 93ff      	PUSH R31
001719 93ef      	PUSH R30
00171a 940e 1e32 	CALL SUBOPT_0xBF
                +
00171c e1a1     +LDI R26 , LOW ( 0x3FDEED11 )
00171d eebd     +LDI R27 , HIGH ( 0x3FDEED11 )
00171e ed8e     +LDI R24 , BYTE3 ( 0x3FDEED11 )
00171f e39f     +LDI R25 , BYTE4 ( 0x3FDEED11 )
                 	__GETD2N 0x3FDEED11
001720 940e 1f1f 	CALL __ADDF12
001722 940e 1e37 	CALL SUBOPT_0xC0
                +
001724 e5ae     +LDI R26 , LOW ( 0x3FA87B5E )
001725 e7bb     +LDI R27 , HIGH ( 0x3FA87B5E )
001726 ea88     +LDI R24 , BYTE3 ( 0x3FA87B5E )
001727 e39f     +LDI R25 , BYTE4 ( 0x3FA87B5E )
                 	__GETD2N 0x3FA87B5E
001728 940e 1f1f 	CALL __ADDF12
00172a 91af      	POP  R26
00172b 91bf      	POP  R27
00172c 918f      	POP  R24
00172d 919f      	POP  R25
00172e 940e 1fbd 	CALL __DIVF21
001730 c0c0      	RJMP _0x20C0005
                 _cos:
001731 940e 19c7 	CALL SUBOPT_0x33
                +
001733 edeb     +LDI R30 , LOW ( 0x3FC90FDB )
001734 e0ff     +LDI R31 , HIGH ( 0x3FC90FDB )
001735 ec69     +LDI R22 , BYTE3 ( 0x3FC90FDB )
001736 e37f     +LDI R23 , BYTE4 ( 0x3FC90FDB )
                 	__GETD1N 0x3FC90FDB
001737 940e 1f18 	CALL __SUBF12
001739 940e 212e 	CALL __PUTPARD1
00173b df7a      	RCALL _sin
00173c c0d3      	RJMP _0x20C0002
                 _xatan:
00173d 940e 1df5 	CALL SUBOPT_0xB4
00173f 940e 19b1 	CALL SUBOPT_0x2F
001741 940e 1927 	CALL SUBOPT_0x17
                +
001743 e6a5     +LDI R26 , LOW ( 0x40CBD065 )
001744 edb0     +LDI R27 , HIGH ( 0x40CBD065 )
001745 ec8b     +LDI R24 , BYTE3 ( 0x40CBD065 )
001746 e490     +LDI R25 , BYTE4 ( 0x40CBD065 )
                 	__GETD2N 0x40CBD065
001747 940e 1e3e 	CALL SUBOPT_0xC1
001749 940e 19b1 	CALL SUBOPT_0x2F
00174b 940e 1f6f 	CALL __MULF12
00174d 937f      	PUSH R23
00174e 936f      	PUSH R22
00174f 93ff      	PUSH R31
001750 93ef      	PUSH R30
001751 940e 1cb2 	CALL SUBOPT_0x79
                +
001753 e0a0     +LDI R26 , LOW ( 0x41296D00 )
001754 e6bd     +LDI R27 , HIGH ( 0x41296D00 )
001755 e289     +LDI R24 , BYTE3 ( 0x41296D00 )
001756 e491     +LDI R25 , BYTE4 ( 0x41296D00 )
                 	__GETD2N 0x41296D00
001757 940e 1f1f 	CALL __ADDF12
001759 940e 19c7 	CALL SUBOPT_0x33
00175b 940e 1e3e 	CALL SUBOPT_0xC1
00175d 91af      	POP  R26
00175e 91bf      	POP  R27
00175f 918f      	POP  R24
001760 919f      	POP  R25
001761 940e 1fbd 	CALL __DIVF21
001763 9628      	ADIW R28,8
001764 9508      	RET
                 _yatan:
001765 940e 19c7 	CALL SUBOPT_0x33
                +
001767 eced     +LDI R30 , LOW ( 0x3ED413CD )
001768 e1f3     +LDI R31 , HIGH ( 0x3ED413CD )
001769 ed64     +LDI R22 , BYTE3 ( 0x3ED413CD )
00176a e37e     +LDI R23 , BYTE4 ( 0x3ED413CD )
                 	__GETD1N 0x3ED413CD
00176b 940e 2002 	CALL __CMPF12
00176d f420      	BRSH _0x2060020
00176e 940e 1e03 	CALL SUBOPT_0xB6
001770 dfcc      	RCALL _xatan
001771 c09e      	RJMP _0x20C0002
                 _0x2060020:
001772 940e 19c7 	CALL SUBOPT_0x33
                +
001774 e7ea     +LDI R30 , LOW ( 0x401A827A )
001775 e8f2     +LDI R31 , HIGH ( 0x401A827A )
001776 e16a     +LDI R22 , BYTE3 ( 0x401A827A )
001777 e470     +LDI R23 , BYTE4 ( 0x401A827A )
                 	__GETD1N 0x401A827A
001778 940e 2002 	CALL __CMPF12
00177a f009      	BREQ PC+2
00177b f410      	BRCC PC+3
00177c 940c 1783 	JMP  _0x2060021
00177e 940e 1def 	CALL SUBOPT_0xB3
001780 940e 1e47 	CALL SUBOPT_0xC2
001782 c085      	RJMP _0x20C0003
                 _0x2060021:
001783 940e 1def 	CALL SUBOPT_0xB3
001785 940e 1f18 	CALL __SUBF12
001787 937f      	PUSH R23
001788 936f      	PUSH R22
001789 93ff      	PUSH R31
00178a 93ef      	PUSH R30
00178b 940e 1def 	CALL SUBOPT_0xB3
00178d 940e 1f1f 	CALL __ADDF12
00178f 91af      	POP  R26
001790 91bf      	POP  R27
001791 918f      	POP  R24
001792 919f      	POP  R25
001793 940e 1e47 	CALL SUBOPT_0xC2
                +
001795 edab     +LDI R26 , LOW ( 0x3F490FDB )
001796 e0bf     +LDI R27 , HIGH ( 0x3F490FDB )
001797 e489     +LDI R24 , BYTE3 ( 0x3F490FDB )
001798 e39f     +LDI R25 , BYTE4 ( 0x3F490FDB )
                 	__GETD2N 0x3F490FDB
001799 940e 1f1f 	CALL __ADDF12
00179b c074      	RJMP _0x20C0002
                 _asin:
00179c 940e 1e0c 	CALL SUBOPT_0xB8
00179e 940e 1e4d 	CALL SUBOPT_0xC3
0017a0 f048      	BRLO _0x2060023
0017a1 940e 1e1e 	CALL SUBOPT_0xBB
0017a3 940e 1e54 	CALL SUBOPT_0xC4
0017a5 f019      	BREQ PC+4
0017a6 f010      	BRCS PC+3
0017a7 940c 17aa 	JMP  _0x2060023
0017a9 c003      	RJMP _0x2060022
                 _0x2060023:
0017aa 940e 1e5b 	CALL SUBOPT_0xC5
0017ac c044      	RJMP _0x20C0005
                 _0x2060022:
0017ad 85a8      	LDD  R26,Y+8
0017ae 23aa      	TST  R26
0017af f41a      	BRPL _0x2060025
0017b0 940e 1e29 	CALL SUBOPT_0xBD
0017b2 e011      	LDI  R17,LOW(1)
                 _0x2060025:
0017b3 940e 1e2d 	CALL SUBOPT_0xBE
                +
0017b5 e0a0     +LDI R26 , LOW ( 0x3F800000 )
0017b6 e0b0     +LDI R27 , HIGH ( 0x3F800000 )
0017b7 e880     +LDI R24 , BYTE3 ( 0x3F800000 )
0017b8 e39f     +LDI R25 , BYTE4 ( 0x3F800000 )
                 	__GETD2N 0x3F800000
0017b9 940e 1e07 	CALL SUBOPT_0xB7
0017bb 940e 212e 	CALL __PUTPARD1
0017bd 940e 2022 	CALL _sqrt
                +
0017bf 83e9     +STD Y + 1 , R30
0017c0 83fa     +STD Y + 1 + 1 , R31
0017c1 836b     +STD Y + 1 + 2 , R22
0017c2 837c     +STD Y + 1 + 3 , R23
                 	__PUTD1S 1
0017c3 940e 1e1e 	CALL SUBOPT_0xBB
                +
0017c5 efe3     +LDI R30 , LOW ( 0x3F3504F3 )
0017c6 e0f4     +LDI R31 , HIGH ( 0x3F3504F3 )
0017c7 e365     +LDI R22 , BYTE3 ( 0x3F3504F3 )
0017c8 e37f     +LDI R23 , BYTE4 ( 0x3F3504F3 )
                 	__GETD1N 0x3F3504F3
0017c9 940e 2002 	CALL __CMPF12
0017cb f009      	BREQ PC+2
0017cc f410      	BRCC PC+3
0017cd 940c 17de 	JMP  _0x2060026
0017cf 940e 1e19 	CALL SUBOPT_0xBA
                +
0017d1 81a9     +LDD R26 , Y + 1
0017d2 81ba     +LDD R27 , Y + 1 + 1
0017d3 818b     +LDD R24 , Y + 1 + 2
0017d4 819c     +LDD R25 , Y + 1 + 3
                 	__GETD2S 1
0017d5 940e 1e60 	CALL SUBOPT_0xC6
                +
0017d7 edab     +LDI R26 , LOW ( 0x3FC90FDB )
0017d8 e0bf     +LDI R27 , HIGH ( 0x3FC90FDB )
0017d9 ec89     +LDI R24 , BYTE3 ( 0x3FC90FDB )
0017da e39f     +LDI R25 , BYTE4 ( 0x3FC90FDB )
                 	__GETD2N 0x3FC90FDB
0017db 940e 1e07 	CALL SUBOPT_0xB7
0017dd c006      	RJMP _0x2060035
                 _0x2060026:
0017de 940e 1e32 	CALL SUBOPT_0xBF
0017e0 940e 1e1e 	CALL SUBOPT_0xBB
0017e2 940e 1e60 	CALL SUBOPT_0xC6
                 _0x2060035:
                +
0017e4 83e9     +STD Y + 1 , R30
0017e5 83fa     +STD Y + 1 + 1 , R31
0017e6 836b     +STD Y + 1 + 2 , R22
0017e7 837c     +STD Y + 1 + 3 , R23
                 	__PUTD1S 1
0017e8 3010      	CPI  R17,0
0017e9 f029      	BREQ _0x2060028
0017ea 940e 1e32 	CALL SUBOPT_0xBF
0017ec 940e 1e79 	CALL __ANEGF1
0017ee c002      	RJMP _0x20C0005
                 _0x2060028:
0017ef 940e 1e32 	CALL SUBOPT_0xBF
                 _0x20C0005:
0017f1 8118      	LDD  R17,Y+0
0017f2 9629      	ADIW R28,9
0017f3 9508      	RET
                 _acos:
0017f4 940e 19c7 	CALL SUBOPT_0x33
0017f6 940e 1e4d 	CALL SUBOPT_0xC3
0017f8 f048      	BRLO _0x206002A
0017f9 940e 19c7 	CALL SUBOPT_0x33
0017fb 940e 1e54 	CALL SUBOPT_0xC4
0017fd f019      	BREQ PC+4
0017fe f010      	BRCS PC+3
0017ff 940c 1802 	JMP  _0x206002A
001801 c003      	RJMP _0x2060029
                 _0x206002A:
001802 940e 1e5b 	CALL SUBOPT_0xC5
001804 c00b      	RJMP _0x20C0002
                 _0x2060029:
001805 940e 1e03 	CALL SUBOPT_0xB6
001807 df94      	RCALL _asin
                 _0x20C0003:
                +
001808 edab     +LDI R26 , LOW ( 0x3FC90FDB )
001809 e0bf     +LDI R27 , HIGH ( 0x3FC90FDB )
00180a ec89     +LDI R24 , BYTE3 ( 0x3FC90FDB )
00180b e39f     +LDI R25 , BYTE4 ( 0x3FC90FDB )
                 	__GETD2N 0x3FC90FDB
00180c 940e 2140 	CALL __SWAPD12
                 _0x20C0004:
00180e 940e 1f18 	CALL __SUBF12
                 _0x20C0002:
001810 9624      	ADIW R28,4
001811 9508      	RET
                 _atan2:
001812 940e 1df5 	CALL SUBOPT_0xB4
001814 940e 215d 	CALL __CPD10
001816 f4c9      	BRNE _0x206002D
                +
001817 85e8     +LDD R30 , Y + 8
001818 85f9     +LDD R31 , Y + 8 + 1
001819 856a     +LDD R22 , Y + 8 + 2
00181a 857b     +LDD R23 , Y + 8 + 3
                 	__GETD1S 8
00181b 940e 215d 	CALL __CPD10
00181d f419      	BRNE _0x206002E
00181e 940e 1e5b 	CALL SUBOPT_0xC5
001820 c037      	RJMP _0x20C0001
                 _0x206002E:
001821 940e 1d8c 	CALL SUBOPT_0xA2
001823 940e 2165 	CALL __CPD02
001825 f42c      	BRGE _0x206002F
                +
001826 edeb     +LDI R30 , LOW ( 0x3FC90FDB )
001827 e0ff     +LDI R31 , HIGH ( 0x3FC90FDB )
001828 ec69     +LDI R22 , BYTE3 ( 0x3FC90FDB )
001829 e37f     +LDI R23 , BYTE4 ( 0x3FC90FDB )
                 	__GETD1N 0x3FC90FDB
00182a c02d      	RJMP _0x20C0001
                 _0x206002F:
                +
00182b edeb     +LDI R30 , LOW ( 0xBFC90FDB )
00182c e0ff     +LDI R31 , HIGH ( 0xBFC90FDB )
00182d ec69     +LDI R22 , BYTE3 ( 0xBFC90FDB )
00182e eb7f     +LDI R23 , BYTE4 ( 0xBFC90FDB )
                 	__GETD1N 0xBFC90FDB
00182f c028      	RJMP _0x20C0001
                 _0x206002D:
001830 940e 1dfb 	CALL SUBOPT_0xB5
001832 940e 19b1 	CALL SUBOPT_0x2F
001834 940e 2165 	CALL __CPD02
001836 f464      	BRGE _0x2060030
001837 85ab      	LDD  R26,Y+11
001838 23aa      	TST  R26
001839 f022      	BRMI _0x2060031
00183a 940e 1e03 	CALL SUBOPT_0xB6
00183c df28      	RCALL _yatan
00183d c01a      	RJMP _0x20C0001
                 _0x2060031:
00183e 940e 1e66 	CALL SUBOPT_0xC7
001840 940e 1e79 	CALL __ANEGF1
001842 c015      	RJMP _0x20C0001
                 _0x2060030:
001843 85ab      	LDD  R26,Y+11
001844 23aa      	TST  R26
001845 f04a      	BRMI _0x2060032
001846 940e 1e66 	CALL SUBOPT_0xC7
                +
001848 edab     +LDI R26 , LOW ( 0x40490FDB )
001849 e0bf     +LDI R27 , HIGH ( 0x40490FDB )
00184a e489     +LDI R24 , BYTE3 ( 0x40490FDB )
00184b e490     +LDI R25 , BYTE4 ( 0x40490FDB )
                 	__GETD2N 0x40490FDB
00184c 940e 1e07 	CALL SUBOPT_0xB7
00184e c009      	RJMP _0x20C0001
                 _0x2060032:
00184f 940e 1e03 	CALL SUBOPT_0xB6
001851 df13      	RCALL _yatan
                +
001852 edab     +LDI R26 , LOW ( 0xC0490FDB )
001853 e0bf     +LDI R27 , HIGH ( 0xC0490FDB )
001854 e489     +LDI R24 , BYTE3 ( 0xC0490FDB )
001855 ec90     +LDI R25 , BYTE4 ( 0xC0490FDB )
                 	__GETD2N 0xC0490FDB
001856 940e 1f1f 	CALL __ADDF12
                 _0x20C0001:
001858 962c      	ADIW R28,12
001859 9508      	RET
                 
                 	.CSEG
                 
                 	.CSEG
                 
                 	.DSEG
                 
                 	.CSEG
                 
                 	.DSEG
                 _TX_ADDRESS:
0003c5           	.BYTE 0x5
                 _RX_ADDRESS:
0003ca           	.BYTE 0x5
                 _rb:
0003cf           	.BYTE 0x1C
                 _robot11:
0003eb           	.BYTE 0xE
                 _robot12:
0003f9           	.BYTE 0xE
                 _robot13:
000407           	.BYTE 0xE
                 _robot21:
000415           	.BYTE 0xE
                 _robot22:
000423           	.BYTE 0xE
                 _robot23:
000431           	.BYTE 0xE
                 _robotctrl:
00043f           	.BYTE 0xE
                 _errangle:
00044d           	.BYTE 0x4
                 _distance:
000451           	.BYTE 0x4
                 _orentation:
000455           	.BYTE 0x4
                 _RxBuf:
000459           	.BYTE 0x20
                 _setRobotX:
000479           	.BYTE 0x4
                 _setRobotY:
00047d           	.BYTE 0x4
                 _setRobotXmin:
000481           	.BYTE 0x4
                 _setRobotXmax:
000485           	.BYTE 0x4
                 _setRobotAngleX:
000489           	.BYTE 0x4
                 _setRobotAngleY:
00048d           	.BYTE 0x4
                 _offestsanco:
000491           	.BYTE 0x4
                 _rbctrlHomeX:
000495           	.BYTE 0x4
                 _rbctrlHomeY:
000499           	.BYTE 0x4
                 _rbctrlPenaltyX:
00049d           	.BYTE 0x4
                 _rbctrlPenaltyY:
0004a1           	.BYTE 0x4
                 _rbctrlPenaltyAngle:
0004a5           	.BYTE 0x4
                 _rbctrlHomeAngle:
0004a9           	.BYTE 0x4
                 _cntsethomeRB:
0004ad           	.BYTE 0x2
                 _cntstuckRB:
0004af           	.BYTE 0x2
                 _cntunlookRB:
0004b1           	.BYTE 0x2
                 _flagsethome:
0004b3           	.BYTE 0x2
                 _flagselftest:
0004b5           	.BYTE 0x2
                 _cntselftest:
0004b7           	.BYTE 0x2
                 _id:
0004b9           	.BYTE 0x1
                 _IRFL:
0004ba           	.BYTE 0x2
                 _IRFR:
0004bc           	.BYTE 0x2
                 _IRLINE:
0004be           	.BYTE 0xA
                 _timerstick:
0004c8           	.BYTE 0x2
                 _timerstickdis:
0004ca           	.BYTE 0x2
                 _timerstickang:
0004cc           	.BYTE 0x2
                 _timerstickctr:
0004ce           	.BYTE 0x2
                 _vQEL:
0004d0           	.BYTE 0x2
                 _vQER:
0004d2           	.BYTE 0x2
                 _oldQEL:
0004d4           	.BYTE 0x2
                 _oldQER:
0004d6           	.BYTE 0x2
                 _svQEL:
0004d8           	.BYTE 0x2
                 _svQER:
0004da           	.BYTE 0x2
                 _seRki_G001:
0004dc           	.BYTE 0x2
                 _seLki_G001:
0004de           	.BYTE 0x2
                 _uL:
0004e0           	.BYTE 0x2
                 _uR:
0004e2           	.BYTE 0x2
                 _KpR:
0004e4           	.BYTE 0x2
                 _KiR:
0004e6           	.BYTE 0x2
                 _KpL:
0004e8           	.BYTE 0x2
                 _KiL:
0004ea           	.BYTE 0x2
                 _sd:
0004ec           	.BYTE 0x2
                 _oldd:
0004ee           	.BYTE 0x2
                 _flagwaitctrRobot:
0004f0           	.BYTE 0x1
                 _sa:
0004f1           	.BYTE 0x2
                 _olda:
0004f3           	.BYTE 0x2
                 _flagwaitctrAngle:
0004f5           	.BYTE 0x1
                 _flagtask:
0004f6           	.BYTE 0x2
                 _flagtaskold:
0004f8           	.BYTE 0x2
                 _flaghuongtrue:
0004fa           	.BYTE 0x2
                 _verranglekisum:
0004fc           	.BYTE 0x2
                 _QEL:
0004fe           	.BYTE 0x2
                 _QER:
000500           	.BYTE 0x2
                 _rx_buffer:
000502           	.BYTE 0x8
                 _rx_wr_index:
00050a           	.BYTE 0x1
                 _rx_rd_index:
00050b           	.BYTE 0x1
                 _rx_counter:
00050c           	.BYTE 0x1
                 _tx_buffer:
00050d           	.BYTE 0x8
                 _tx_wr_index:
000515           	.BYTE 0x1
                 _tx_rd_index:
000516           	.BYTE 0x1
                 _tx_counter:
000517           	.BYTE 0x1
                 __seed_G105:
000518           	.BYTE 0x4
                 
                 	.CSEG
                 ;OPTIMIZER ADDED SUBROUTINE, CALLED 2 TIMES, CODE SIZE REDUCTION:3 WORDS
                 SUBOPT_0x0:
00185a 93fa      	ST   -Y,R31
00185b 93ea      	ST   -Y,R30
00185c e0e5      	LDI  R30,LOW(5)
00185d e0f0      	LDI  R31,HIGH(5)
00185e 93fa      	ST   -Y,R31
00185f 93ea      	ST   -Y,R30
001860 940c 0323 	JMP  _SPI_Write_Buf
                 
                 ;OPTIMIZER ADDED SUBROUTINE, CALLED 4 TIMES, CODE SIZE REDUCTION:3 WORDS
                 SUBOPT_0x1:
001862 93ea      	ST   -Y,R30
001863 940e 02e5 	CALL _SPI_RW
001865 2f1e      	MOV  R17,R30
001866 9508      	RET
                 
                 ;OPTIMIZER ADDED SUBROUTINE, CALLED 6 TIMES, CODE SIZE REDUCTION:12 WORDS
                 SUBOPT_0x2:
001867 93ea      	ST   -Y,R30
001868 940e 037b 	CALL _LcdWrite
00186a e0e0      	LDI  R30,LOW(0)
00186b 93ea      	ST   -Y,R30
00186c 9508      	RET
                 
                 ;OPTIMIZER ADDED SUBROUTINE, CALLED 2 TIMES, CODE SIZE REDUCTION:7 WORDS
                 SUBOPT_0x3:
00186d 931a      	ST   -Y,R17
00186e 930a      	ST   -Y,R16
                +
00186f e000     +LDI R16 , LOW ( 0 )
001870 e010     +LDI R17 , HIGH ( 0 )
                 	__GETWRN 16,17,0
001871 e0e1      	LDI  R30,LOW(1)
001872 93ea      	ST   -Y,R30
001873 e0e0      	LDI  R30,LOW(0)
001874 93ea      	ST   -Y,R30
001875 940e 037b 	CALL _LcdWrite
                +
001877 e000     +LDI R16 , LOW ( 0 )
001878 e010     +LDI R17 , HIGH ( 0 )
                 	__GETWRN 16,17,0
001879 9508      	RET
                 
                 ;OPTIMIZER ADDED SUBROUTINE, CALLED 2 TIMES, CODE SIZE REDUCTION:14 WORDS
                 SUBOPT_0x4:
00187a e0e1      	LDI  R30,LOW(1)
00187b 93ea      	ST   -Y,R30
00187c 81eb      	LDD  R30,Y+3
00187d e0f0      	LDI  R31,0
00187e 97b0      	SBIW R30,32
00187f e0a5      	LDI  R26,LOW(5)
001880 e0b0      	LDI  R27,HIGH(5)
001881 940e 207e 	CALL __MULW12U
001883 5aec      	SUBI R30,LOW(-_ASCII*2)
001884 4fff      	SBCI R31,HIGH(-_ASCII*2)
001885 0fe0      	ADD  R30,R16
001886 1ff1      	ADC  R31,R17
001887 91e4      	LPM  R30,Z
001888 93ea      	ST   -Y,R30
001889 940c 037b 	JMP  _LcdWrite
                 
                 ;OPTIMIZER ADDED SUBROUTINE, CALLED 3 TIMES, CODE SIZE REDUCTION:3 WORDS
                 SUBOPT_0x5:
00188b 93ea      	ST   -Y,R30
00188c e0e0      	LDI  R30,LOW(0)
00188d 93ea      	ST   -Y,R30
00188e 940c 037b 	JMP  _LcdWrite
                 
                 ;OPTIMIZER ADDED SUBROUTINE, CALLED 2 TIMES, CODE SIZE REDUCTION:1 WORDS
                 SUBOPT_0x6:
001890 931a      	ST   -Y,R17
001891 930a      	ST   -Y,R16
                +
001892 e000     +LDI R16 , LOW ( 0 )
001893 e010     +LDI R17 , HIGH ( 0 )
                 	__GETWRN 16,17,0
                +
001894 e000     +LDI R16 , LOW ( 0 )
001895 e010     +LDI R17 , HIGH ( 0 )
                 	__GETWRN 16,17,0
001896 9508      	RET
                 
                 ;OPTIMIZER ADDED SUBROUTINE, CALLED 22 TIMES, CODE SIZE REDUCTION:123 WORDS
                 SUBOPT_0x7:
001897 93fa      	ST   -Y,R31
001898 93ea      	ST   -Y,R30
001899 e0e0      	LDI  R30,LOW(0)
00189a e0f0      	LDI  R31,HIGH(0)
00189b 93fa      	ST   -Y,R31
00189c 93ea      	ST   -Y,R30
00189d 940c 0388 	JMP  _hc
                 
                 ;OPTIMIZER ADDED SUBROUTINE, CALLED 5 TIMES, CODE SIZE REDUCTION:5 WORDS
                 SUBOPT_0x8:
00189f 2fe1      	MOV  R30,R17
0018a0 e0f0      	LDI  R31,0
0018a1 9508      	RET
                 
                 ;OPTIMIZER ADDED SUBROUTINE, CALLED 2 TIMES, CODE SIZE REDUCTION:16 WORDS
                 SUBOPT_0x9:
0018a2 01de      	MOVW R26,R28
0018a3 9611      	ADIW R26,1
0018a4 0fea      	ADD  R30,R26
0018a5 1ffb      	ADC  R31,R27
0018a6 01bf      	MOVW R22,R30
0018a7 81ae      	LDD  R26,Y+6
0018a8 81bf      	LDD  R27,Y+6+1
0018a9 e0ea      	LDI  R30,LOW(10)
0018aa e0f0      	LDI  R31,HIGH(10)
0018ab 940e 20f2 	CALL __MODW21U
0018ad 01db      	MOVW R26,R22
0018ae 93ec      	ST   X,R30
0018af 81ae      	LDD  R26,Y+6
0018b0 81bf      	LDD  R27,Y+6+1
0018b1 e0ea      	LDI  R30,LOW(10)
0018b2 e0f0      	LDI  R31,HIGH(10)
0018b3 940e 20b0 	CALL __DIVW21U
0018b5 83ee      	STD  Y+6,R30
0018b6 83ff      	STD  Y+6+1,R31
0018b7 9508      	RET
                 
                 ;OPTIMIZER ADDED SUBROUTINE, CALLED 2 TIMES, CODE SIZE REDUCTION:8 WORDS
                 SUBOPT_0xA:
0018b8 e0a4      	LDI  R26,LOW(4)
0018b9 e0b0      	LDI  R27,HIGH(4)
0018ba 940e 2146 	CALL __SWAPW12
0018bc 1bea      	SUB  R30,R26
0018bd 0bfb      	SBC  R31,R27
0018be 01de      	MOVW R26,R28
0018bf 9611      	ADIW R26,1
0018c0 0fae      	ADD  R26,R30
0018c1 1fbf      	ADC  R27,R31
0018c2 91ec      	LD   R30,X
0018c3 5de0      	SUBI R30,-LOW(48)
0018c4 93ea      	ST   -Y,R30
0018c5 9508      	RET
                 
                 ;OPTIMIZER ADDED SUBROUTINE, CALLED 4 TIMES, CODE SIZE REDUCTION:9 WORDS
                 SUBOPT_0xB:
0018c6 eee8      	LDI  R30,LOW(1000)
0018c7 e0f3      	LDI  R31,HIGH(1000)
0018c8 93fa      	ST   -Y,R31
0018c9 93ea      	ST   -Y,R30
0018ca 940c 1e6d 	JMP  _delay_ms
                 
                 ;OPTIMIZER ADDED SUBROUTINE, CALLED 4 TIMES, CODE SIZE REDUCTION:3 WORDS
                 SUBOPT_0xC:
0018cc 1bea      	SUB  R30,R26
0018cd 0bfb      	SBC  R31,R27
0018ce 83e8      	ST   Y,R30
0018cf 83f9      	STD  Y+1,R31
0018d0 9508      	RET
                 
                 ;OPTIMIZER ADDED SUBROUTINE, CALLED 5 TIMES, CODE SIZE REDUCTION:5 WORDS
                 SUBOPT_0xD:
0018d1 93fa      	ST   -Y,R31
0018d2 93ea      	ST   -Y,R30
0018d3 940c 0410 	JMP  _wn16
                 
                 ;OPTIMIZER ADDED SUBROUTINE, CALLED 28 TIMES, CODE SIZE REDUCTION:51 WORDS
                 SUBOPT_0xE:
0018d5 93fa      	ST   -Y,R31
0018d6 93ea      	ST   -Y,R30
0018d7 940c 03b1 	JMP  _ws
                 
                 ;OPTIMIZER ADDED SUBROUTINE, CALLED 2 TIMES, CODE SIZE REDUCTION:1 WORDS
                 SUBOPT_0xF:
0018d9 50e1      	SUBI R30,LOW(1)
0018da e0f0      	LDI  R31,0
0018db 5fee      	SUBI R30,LOW(-_rx_buffer)
0018dc 4ffa      	SBCI R31,HIGH(-_rx_buffer)
0018dd 9508      	RET
                 
                 ;OPTIMIZER ADDED SUBROUTINE, CALLED 2 TIMES, CODE SIZE REDUCTION:1 WORDS
                 SUBOPT_0x10:
0018de 50e1      	SUBI R30,LOW(1)
0018df e0f0      	LDI  R31,0
0018e0 5fe3      	SUBI R30,LOW(-_tx_buffer)
0018e1 4ffa      	SBCI R31,HIGH(-_tx_buffer)
0018e2 9508      	RET
                 
                 ;OPTIMIZER ADDED SUBROUTINE, CALLED 2 TIMES, CODE SIZE REDUCTION:1 WORDS
                 SUBOPT_0x11:
0018e3 93aa      	ST   -Y,R26
0018e4 93ba      	ST   -Y,R27
0018e5 93ea      	ST   -Y,R30
0018e6 93fa      	ST   -Y,R31
0018e7 b7ef      	IN   R30,SREG
0018e8 93ea      	ST   -Y,R30
0018e9 9508      	RET
                 
                 ;OPTIMIZER ADDED SUBROUTINE, CALLED 6 TIMES, CODE SIZE REDUCTION:37 WORDS
                 SUBOPT_0x12:
0018ea e0e0      	LDI  R30,LOW(0)
0018eb 93e0 04dc 	STS  _seRki_G001,R30
0018ed 93e0 04dd 	STS  _seRki_G001+1,R30
0018ef 93e0 04de 	STS  _seLki_G001,R30
0018f1 93e0 04df 	STS  _seLki_G001+1,R30
0018f3 9508      	RET
                 
                 ;OPTIMIZER ADDED SUBROUTINE, CALLED 2 TIMES, CODE SIZE REDUCTION:3 WORDS
                 SUBOPT_0x13:
0018f4 81e8      	LD   R30,Y
0018f5 e0f0      	LDI  R31,0
0018f6 93e0 04d8 	STS  _svQEL,R30
0018f8 93f0 04d9 	STS  _svQEL+1,R31
0018fa 9508      	RET
                 
                 ;OPTIMIZER ADDED SUBROUTINE, CALLED 2 TIMES, CODE SIZE REDUCTION:26 WORDS
                 SUBOPT_0x14:
0018fb e0e0      	LDI  R30,LOW(0)
0018fc 93e0 04f5 	STS  _flagwaitctrAngle,R30
0018fe e0e1      	LDI  R30,LOW(1)
0018ff 93e0 04f0 	STS  _flagwaitctrRobot,R30
001901 81ea      	LDD  R30,Y+2
001902 81fb      	LDD  R31,Y+2+1
001903 93e0 04ec 	STS  _sd,R30
001905 93f0 04ed 	STS  _sd+1,R31
001907 91e0 0500 	LDS  R30,_QER
001909 91f0 0501 	LDS  R31,_QER+1
00190b 91a0 04fe 	LDS  R26,_QEL
00190d 91b0 04ff 	LDS  R27,_QEL+1
00190f 0fae      	ADD  R26,R30
001910 1fbf      	ADC  R27,R31
001911 01fd      	MOVW R30,R26
001912 95f6      	LSR  R31
001913 95e7      	ROR  R30
001914 93e0 04ee 	STS  _oldd,R30
001916 93f0 04ef 	STS  _oldd+1,R31
001918 81e8      	LD   R30,Y
001919 93ea      	ST   -Y,R30
00191a 9508      	RET
                 
                 ;OPTIMIZER ADDED SUBROUTINE, CALLED 2 TIMES, CODE SIZE REDUCTION:4 WORDS
                 SUBOPT_0x15:
00191b 9724      	SBIW R28,4
00191c e0e0      	LDI  R30,LOW(0)
00191d 83e8      	ST   Y,R30
00191e 83e9      	STD  Y+1,R30
00191f 83ea      	STD  Y+2,R30
001920 83eb      	STD  Y+3,R30
001921 9508      	RET
                 
                 ;OPTIMIZER ADDED SUBROUTINE, CALLED 14 TIMES, CODE SIZE REDUCTION:23 WORDS
                 SUBOPT_0x16:
001922 940e 206e 	CALL __CWD1
001924 940e 1ee5 	CALL __CDF1
001926 9508      	RET
                 
                 ;OPTIMIZER ADDED SUBROUTINE, CALLED 2 TIMES, CODE SIZE REDUCTION:5 WORDS
                 SUBOPT_0x17:
001927 940e 1f6f 	CALL __MULF12
001929 940e 2129 	CALL __PUTD1S0
00192b 9508      	RET
                 
                 ;OPTIMIZER ADDED SUBROUTINE, CALLED 8 TIMES, CODE SIZE REDUCTION:11 WORDS
                 SUBOPT_0x18:
00192c 91e0 04fe 	LDS  R30,_QEL
00192e 91f0 04ff 	LDS  R31,_QEL+1
001930 9508      	RET
                 
                 ;OPTIMIZER ADDED SUBROUTINE, CALLED 4 TIMES, CODE SIZE REDUCTION:3 WORDS
                 SUBOPT_0x19:
                +
001931 8dec     +LDD R30 , Y + 28
001932 8dfd     +LDD R31 , Y + 28 + 1
001933 8d6e     +LDD R22 , Y + 28 + 2
001934 8d7f     +LDD R23 , Y + 28 + 3
                 	__GETD1S 28
001935 9508      	RET
                 
                 ;OPTIMIZER ADDED SUBROUTINE, CALLED 3 TIMES, CODE SIZE REDUCTION:1 WORDS
                 SUBOPT_0x1A:
                +
001936 a1e8     +LDD R30 , Y + 32
001937 a1f9     +LDD R31 , Y + 32 + 1
001938 a16a     +LDD R22 , Y + 32 + 2
001939 a17b     +LDD R23 , Y + 32 + 3
                 	__GETD1S 32
00193a 9508      	RET
                 
                 ;OPTIMIZER ADDED SUBROUTINE, CALLED 5 TIMES, CODE SIZE REDUCTION:5 WORDS
                 SUBOPT_0x1B:
                +
00193b a1ec     +LDD R30 , Y + 36
00193c a1fd     +LDD R31 , Y + 36 + 1
00193d a16e     +LDD R22 , Y + 36 + 2
00193e a17f     +LDD R23 , Y + 36 + 3
                 	__GETD1S 36
00193f 9508      	RET
                 
                 ;OPTIMIZER ADDED SUBROUTINE, CALLED 3 TIMES, CODE SIZE REDUCTION:1 WORDS
                 SUBOPT_0x1C:
                +
001940 a5ec     +LDD R30 , Y + 44
001941 a5fd     +LDD R31 , Y + 44 + 1
001942 a56e     +LDD R22 , Y + 44 + 2
001943 a57f     +LDD R23 , Y + 44 + 3
                 	__GETD1S 44
001944 9508      	RET
                 
                 ;OPTIMIZER ADDED SUBROUTINE, CALLED 3 TIMES, CODE SIZE REDUCTION:9 WORDS
                 SUBOPT_0x1D:
001945 91e0 03cf 	LDS  R30,_rb
001947 91f0 03d0 	LDS  R31,_rb+1
001949 9160 03d1 	LDS  R22,_rb+2
00194b 9170 03d2 	LDS  R23,_rb+3
00194d 9508      	RET
                 
                 ;OPTIMIZER ADDED SUBROUTINE, CALLED 5 TIMES, CODE SIZE REDUCTION:5 WORDS
                 SUBOPT_0x1E:
                +
00194e e0e0     +LDI R30 , LOW ( 0x41200000 )
00194f e0f0     +LDI R31 , HIGH ( 0x41200000 )
001950 e260     +LDI R22 , BYTE3 ( 0x41200000 )
001951 e471     +LDI R23 , BYTE4 ( 0x41200000 )
                 	__GETD1N 0x41200000
001952 9508      	RET
                 
                 ;OPTIMIZER ADDED SUBROUTINE, CALLED 2 TIMES, CODE SIZE REDUCTION:5 WORDS
                 SUBOPT_0x1F:
001953 dff1      	RCALL SUBOPT_0x1D
001954 940e 1eae 	CALL __CFD1
001956 01df      	MOVW R26,R30
001957 e0ea      	LDI  R30,LOW(10)
001958 e0f0      	LDI  R31,HIGH(10)
001959 940e 20c3 	CALL __DIVW21
00195b 015f      	MOVW R10,R30
00195c 9508      	RET
                 
                 ;OPTIMIZER ADDED SUBROUTINE, CALLED 7 TIMES, CODE SIZE REDUCTION:21 WORDS
                 SUBOPT_0x20:
00195d ecef      	LDI  R30,LOW(_rb)
00195e e0f3      	LDI  R31,HIGH(_rb)
00195f e1ac      	LDI  R26,28
001960 940e 2133 	CALL __PUTPARL
001962 940c 059c 	JMP  _convertRobot2IntRobot
                 
                 ;OPTIMIZER ADDED SUBROUTINE, CALLED 4 TIMES, CODE SIZE REDUCTION:3 WORDS
                 SUBOPT_0x21:
                +
001964 91a0 0441+LDS R26 , _robotctrl + ( 2 )
001966 91b0 0442+LDS R27 , _robotctrl + ( 2 ) + 1
                 	__GETW2MN _robotctrl,2
001968 9508      	RET
                 
                 ;OPTIMIZER ADDED SUBROUTINE, CALLED 4 TIMES, CODE SIZE REDUCTION:3 WORDS
                 SUBOPT_0x22:
                +
001969 91a0 0443+LDS R26 , _robotctrl + ( 4 )
00196b 91b0 0444+LDS R27 , _robotctrl + ( 4 ) + 1
                 	__GETW2MN _robotctrl,4
00196d 9508      	RET
                 
                 ;OPTIMIZER ADDED SUBROUTINE, CALLED 2 TIMES, CODE SIZE REDUCTION:1 WORDS
                 SUBOPT_0x23:
00196e dfb3      	RCALL SUBOPT_0x16
00196f 940e 2140 	CALL __SWAPD12
001971 940e 1f18 	CALL __SUBF12
001973 9508      	RET
                 
                 ;OPTIMIZER ADDED SUBROUTINE, CALLED 2 TIMES, CODE SIZE REDUCTION:1 WORDS
                 SUBOPT_0x24:
                +
001974 a5a8     +LDD R26 , Y + 40
001975 a5b9     +LDD R27 , Y + 40 + 1
001976 a58a     +LDD R24 , Y + 40 + 2
001977 a59b     +LDD R25 , Y + 40 + 3
                 	__GETD2S 40
001978 940e 1f6f 	CALL __MULF12
00197a 9508      	RET
                 
                 ;OPTIMIZER ADDED SUBROUTINE, CALLED 2 TIMES, CODE SIZE REDUCTION:1 WORDS
                 SUBOPT_0x25:
                +
00197b a1ac     +LDD R26 , Y + 36
00197c a1bd     +LDD R27 , Y + 36 + 1
00197d a18e     +LDD R24 , Y + 36 + 2
00197e a19f     +LDD R25 , Y + 36 + 3
                 	__GETD2S 36
00197f 940e 1f6f 	CALL __MULF12
001981 9508      	RET
                 
                 ;OPTIMIZER ADDED SUBROUTINE, CALLED 3 TIMES, CODE SIZE REDUCTION:5 WORDS
                 SUBOPT_0x26:
001982 940e 1f1f 	CALL __ADDF12
001984 940e 212e 	CALL __PUTPARD1
001986 940c 2022 	JMP  _sqrt
                 
                 ;OPTIMIZER ADDED SUBROUTINE, CALLED 3 TIMES, CODE SIZE REDUCTION:1 WORDS
                 SUBOPT_0x27:
                +
001988 a1a8     +LDD R26 , Y + 32
001989 a1b9     +LDD R27 , Y + 32 + 1
00198a a18a     +LDD R24 , Y + 32 + 2
00198b a19b     +LDD R25 , Y + 32 + 3
                 	__GETD2S 32
00198c 9508      	RET
                 
                 ;OPTIMIZER ADDED SUBROUTINE, CALLED 3 TIMES, CODE SIZE REDUCTION:1 WORDS
                 SUBOPT_0x28:
                +
00198d 8dac     +LDD R26 , Y + 28
00198e 8dbd     +LDD R27 , Y + 28 + 1
00198f 8d8e     +LDD R24 , Y + 28 + 2
001990 8d9f     +LDD R25 , Y + 28 + 3
                 	__GETD2S 28
001991 9508      	RET
                 
                 ;OPTIMIZER ADDED SUBROUTINE, CALLED 4 TIMES, CODE SIZE REDUCTION:3 WORDS
                 SUBOPT_0x29:
                +
001992 8bec     +STD Y + 20 , R30
001993 8bfd     +STD Y + 20 + 1 , R31
001994 8b6e     +STD Y + 20 + 2 , R22
001995 8b7f     +STD Y + 20 + 3 , R23
                 	__PUTD1S 20
001996 9508      	RET
                 
                 ;OPTIMIZER ADDED SUBROUTINE, CALLED 2 TIMES, CODE SIZE REDUCTION:1 WORDS
                 SUBOPT_0x2A:
001997 940e 1f1f 	CALL __ADDF12
                +
001999 8be8     +STD Y + 16 , R30
00199a 8bf9     +STD Y + 16 + 1 , R31
00199b 8b6a     +STD Y + 16 + 2 , R22
00199c 8b7b     +STD Y + 16 + 3 , R23
                 	__PUTD1S 16
00199d 9508      	RET
                 
                 ;OPTIMIZER ADDED SUBROUTINE, CALLED 5 TIMES, CODE SIZE REDUCTION:5 WORDS
                 SUBOPT_0x2B:
                +
00199e 89a8     +LDD R26 , Y + 16
00199f 89b9     +LDD R27 , Y + 16 + 1
0019a0 898a     +LDD R24 , Y + 16 + 2
0019a1 899b     +LDD R25 , Y + 16 + 3
                 	__GETD2S 16
0019a2 9508      	RET
                 
                 ;OPTIMIZER ADDED SUBROUTINE, CALLED 4 TIMES, CODE SIZE REDUCTION:3 WORDS
                 SUBOPT_0x2C:
                +
0019a3 87ec     +STD Y + 12 , R30
0019a4 87fd     +STD Y + 12 + 1 , R31
0019a5 876e     +STD Y + 12 + 2 , R22
0019a6 877f     +STD Y + 12 + 3 , R23
                 	__PUTD1S 12
0019a7 9508      	RET
                 
                 ;OPTIMIZER ADDED SUBROUTINE, CALLED 3 TIMES, CODE SIZE REDUCTION:1 WORDS
                 SUBOPT_0x2D:
0019a8 df92      	RCALL SUBOPT_0x1B
0019a9 940e 212e 	CALL __PUTPARD1
0019ab 9508      	RET
                 
                 ;OPTIMIZER ADDED SUBROUTINE, CALLED 2 TIMES, CODE SIZE REDUCTION:1 WORDS
                 SUBOPT_0x2E:
0019ac df93      	RCALL SUBOPT_0x1C
0019ad 940e 212e 	CALL __PUTPARD1
0019af 940c 1812 	JMP  _atan2
                 
                 ;OPTIMIZER ADDED SUBROUTINE, CALLED 5 TIMES, CODE SIZE REDUCTION:5 WORDS
                 SUBOPT_0x2F:
                +
0019b1 81ac     +LDD R26 , Y + 4
0019b2 81bd     +LDD R27 , Y + 4 + 1
0019b3 818e     +LDD R24 , Y + 4 + 2
0019b4 819f     +LDD R25 , Y + 4 + 3
                 	__GETD2S 4
0019b5 9508      	RET
                 
                 ;OPTIMIZER ADDED SUBROUTINE, CALLED 7 TIMES, CODE SIZE REDUCTION:9 WORDS
                 SUBOPT_0x30:
0019b6 940e 2129 	CALL __PUTD1S0
0019b8 9508      	RET
                 
                 ;OPTIMIZER ADDED SUBROUTINE, CALLED 3 TIMES, CODE SIZE REDUCTION:1 WORDS
                 SUBOPT_0x31:
                +
0019b9 85ec     +LDD R30 , Y + 12
0019ba 85fd     +LDD R31 , Y + 12 + 1
0019bb 856e     +LDD R22 , Y + 12 + 2
0019bc 857f     +LDD R23 , Y + 12 + 3
                 	__GETD1S 12
0019bd 9508      	RET
                 
                 ;OPTIMIZER ADDED SUBROUTINE, CALLED 2 TIMES, CODE SIZE REDUCTION:3 WORDS
                 SUBOPT_0x32:
                +
0019be e0a0     +LDI R26 , LOW ( 0x43340000 )
0019bf e0b0     +LDI R27 , HIGH ( 0x43340000 )
0019c0 e384     +LDI R24 , BYTE3 ( 0x43340000 )
0019c1 e493     +LDI R25 , BYTE4 ( 0x43340000 )
                 	__GETD2N 0x43340000
0019c2 940e 1f6f 	CALL __MULF12
0019c4 01df      	MOVW R26,R30
0019c5 01cb      	MOVW R24,R22
0019c6 9508      	RET
                 
                 ;OPTIMIZER ADDED SUBROUTINE, CALLED 10 TIMES, CODE SIZE REDUCTION:15 WORDS
                 SUBOPT_0x33:
0019c7 940e 2124 	CALL __GETD2S0
0019c9 9508      	RET
                 
                 ;OPTIMIZER ADDED SUBROUTINE, CALLED 6 TIMES, CODE SIZE REDUCTION:7 WORDS
                 SUBOPT_0x34:
                +
0019ca edeb     +LDI R30 , LOW ( 0x40490FDB )
0019cb e0ff     +LDI R31 , HIGH ( 0x40490FDB )
0019cc e469     +LDI R22 , BYTE3 ( 0x40490FDB )
0019cd e470     +LDI R23 , BYTE4 ( 0x40490FDB )
                 	__GETD1N 0x40490FDB
0019ce 9508      	RET
                 
                 ;OPTIMIZER ADDED SUBROUTINE, CALLED 10 TIMES, CODE SIZE REDUCTION:51 WORDS
                 SUBOPT_0x35:
0019cf 91e0 044d 	LDS  R30,_errangle
0019d1 91f0 044e 	LDS  R31,_errangle+1
0019d3 9160 044f 	LDS  R22,_errangle+2
0019d5 9170 0450 	LDS  R23,_errangle+3
0019d7 9508      	RET
                 
                 ;OPTIMIZER ADDED SUBROUTINE, CALLED 2 TIMES, CODE SIZE REDUCTION:3 WORDS
                 SUBOPT_0x36:
0019d8 91a0 0455 	LDS  R26,_orentation
0019da 91b0 0456 	LDS  R27,_orentation+1
0019dc 9180 0457 	LDS  R24,_orentation+2
0019de 9190 0458 	LDS  R25,_orentation+3
0019e0 9508      	RET
                 
                 ;OPTIMIZER ADDED SUBROUTINE, CALLED 3 TIMES, CODE SIZE REDUCTION:1 WORDS
                 SUBOPT_0x37:
0019e1 e0e4      	LDI  R30,LOW(4)
0019e2 e0f0      	LDI  R31,HIGH(4)
0019e3 15ea      	CP   R30,R10
0019e4 05fb      	CPC  R31,R11
0019e5 9508      	RET
                 
                 ;OPTIMIZER ADDED SUBROUTINE, CALLED 8 TIMES, CODE SIZE REDUCTION:11 WORDS
                 SUBOPT_0x38:
0019e6 e0e0      	LDI  R30,LOW(0)
0019e7 bbea      	OUT  0x1A,R30
0019e8 bbeb      	OUT  0x1B,R30
0019e9 9508      	RET
                 
                 ;OPTIMIZER ADDED SUBROUTINE, CALLED 2 TIMES, CODE SIZE REDUCTION:18 WORDS
                 SUBOPT_0x39:
0019ea e0e4      	LDI  R30,LOW(4)
0019eb 93ea      	ST   -Y,R30
0019ec 940e 0447 	CALL _read_adc
0019ee 93e0 04ba 	STS  _IRFL,R30
0019f0 93f0 04bb 	STS  _IRFL+1,R31
0019f2 e0e5      	LDI  R30,LOW(5)
0019f3 93ea      	ST   -Y,R30
0019f4 940e 0447 	CALL _read_adc
0019f6 93e0 04bc 	STS  _IRFR,R30
0019f8 93f0 04bd 	STS  _IRFR+1,R31
0019fa 91a0 04ba 	LDS  R26,_IRFL
0019fc 91b0 04bb 	LDS  R27,_IRFL+1
0019fe 32ac      	CPI  R26,LOW(0x12C)
0019ff e0e1      	LDI  R30,HIGH(0x12C)
001a00 07be      	CPC  R27,R30
001a01 9508      	RET
                 
                 ;OPTIMIZER ADDED SUBROUTINE, CALLED 8 TIMES, CODE SIZE REDUCTION:32 WORDS
                 SUBOPT_0x3A:
001a02 91a0 04bc 	LDS  R26,_IRFR
001a04 91b0 04bd 	LDS  R27,_IRFR+1
001a06 32ac      	CPI  R26,LOW(0x12C)
001a07 e0e1      	LDI  R30,HIGH(0x12C)
001a08 07be      	CPC  R27,R30
001a09 9508      	RET
                 
                 ;OPTIMIZER ADDED SUBROUTINE, CALLED 2 TIMES, CODE SIZE REDUCTION:9 WORDS
                 SUBOPT_0x3B:
001a0a e1e6      	LDI  R30,LOW(22)
001a0b 93ea      	ST   -Y,R30
001a0c 940e 050d 	CALL _vMLtoi
001a0e e1e6      	LDI  R30,LOW(22)
001a0f 93ea      	ST   -Y,R30
001a10 940e 0529 	CALL _vMRlui
001a12 e6e4      	LDI  R30,LOW(100)
001a13 e0f0      	LDI  R31,HIGH(100)
001a14 93fa      	ST   -Y,R31
001a15 93ea      	ST   -Y,R30
001a16 940c 1e6d 	JMP  _delay_ms
                 
                 ;OPTIMIZER ADDED SUBROUTINE, CALLED 12 TIMES, CODE SIZE REDUCTION:19 WORDS
                 SUBOPT_0x3C:
001a18 91a0 04ba 	LDS  R26,_IRFL
001a1a 91b0 04bb 	LDS  R27,_IRFL+1
001a1c 9508      	RET
                 
                 ;OPTIMIZER ADDED SUBROUTINE, CALLED 4 TIMES, CODE SIZE REDUCTION:3 WORDS
                 SUBOPT_0x3D:
001a1d e0e0      	LDI  R30,LOW(0)
001a1e 93ea      	ST   -Y,R30
001a1f 940c 0513 	JMP  _vMLlui
                 
                 ;OPTIMIZER ADDED SUBROUTINE, CALLED 2 TIMES, CODE SIZE REDUCTION:4 WORDS
                 SUBOPT_0x3E:
001a21 93ea      	ST   -Y,R30
001a22 940e 0529 	CALL _vMRlui
001a24 e6e4      	LDI  R30,LOW(100)
001a25 e0f0      	LDI  R31,HIGH(100)
001a26 93fa      	ST   -Y,R31
001a27 93ea      	ST   -Y,R30
001a28 940c 1e6d 	JMP  _delay_ms
                 
                 ;OPTIMIZER ADDED SUBROUTINE, CALLED 4 TIMES, CODE SIZE REDUCTION:12 WORDS
                 SUBOPT_0x3F:
001a2a 91a0 04bc 	LDS  R26,_IRFR
001a2c 91b0 04bd 	LDS  R27,_IRFR+1
001a2e 32ad      	CPI  R26,LOW(0x12D)
001a2f e0e1      	LDI  R30,HIGH(0x12D)
001a30 07be      	CPC  R27,R30
001a31 9508      	RET
                 
                 ;OPTIMIZER ADDED SUBROUTINE, CALLED 6 TIMES, CODE SIZE REDUCTION:12 WORDS
                 SUBOPT_0x40:
001a32 dfe5      	RCALL SUBOPT_0x3C
001a33 32ac      	CPI  R26,LOW(0x12C)
001a34 e0e1      	LDI  R30,HIGH(0x12C)
001a35 07be      	CPC  R27,R30
001a36 9508      	RET
                 
                 ;OPTIMIZER ADDED SUBROUTINE, CALLED 4 TIMES, CODE SIZE REDUCTION:3 WORDS
                 SUBOPT_0x41:
001a37 93ea      	ST   -Y,R30
001a38 940e 0513 	CALL _vMLlui
001a3a e0e0      	LDI  R30,LOW(0)
001a3b 9508      	RET
                 
                 ;OPTIMIZER ADDED SUBROUTINE, CALLED 3 TIMES, CODE SIZE REDUCTION:3 WORDS
                 SUBOPT_0x42:
001a3c dfdb      	RCALL SUBOPT_0x3C
001a3d 32ad      	CPI  R26,LOW(0x12D)
001a3e e0e1      	LDI  R30,HIGH(0x12D)
001a3f 07be      	CPC  R27,R30
001a40 9508      	RET
                 
                 ;OPTIMIZER ADDED SUBROUTINE, CALLED 3 TIMES, CODE SIZE REDUCTION:13 WORDS
                 SUBOPT_0x43:
001a41 e1e6      	LDI  R30,LOW(22)
001a42 93ea      	ST   -Y,R30
001a43 940e 0529 	CALL _vMRlui
001a45 e2ec      	LDI  R30,LOW(300)
001a46 e0f1      	LDI  R31,HIGH(300)
001a47 93fa      	ST   -Y,R31
001a48 93ea      	ST   -Y,R30
001a49 940c 1e6d 	JMP  _delay_ms
                 
                 ;OPTIMIZER ADDED SUBROUTINE, CALLED 3 TIMES, CODE SIZE REDUCTION:11 WORDS
                 SUBOPT_0x44:
001a4b 93ea      	ST   -Y,R30
001a4c 940e 0529 	CALL _vMRlui
001a4e e2ec      	LDI  R30,LOW(300)
001a4f e0f1      	LDI  R31,HIGH(300)
001a50 93fa      	ST   -Y,R31
001a51 93ea      	ST   -Y,R30
001a52 940c 1e6d 	JMP  _delay_ms
                 
                 ;OPTIMIZER ADDED SUBROUTINE, CALLED 3 TIMES, CODE SIZE REDUCTION:1 WORDS
                 SUBOPT_0x45:
001a54 e0e3      	LDI  R30,LOW(3)
001a55 e0f0      	LDI  R31,HIGH(3)
001a56 15ea      	CP   R30,R10
001a57 05fb      	CPC  R31,R11
001a58 9508      	RET
                 
                 ;OPTIMIZER ADDED SUBROUTINE, CALLED 2 TIMES, CODE SIZE REDUCTION:15 WORDS
                 SUBOPT_0x46:
001a59 940e 05da 	CALL _readposition
001a5b e0e4      	LDI  R30,LOW(4)
001a5c 93ea      	ST   -Y,R30
001a5d 940e 0447 	CALL _read_adc
001a5f 93e0 04ba 	STS  _IRFL,R30
001a61 93f0 04bb 	STS  _IRFL+1,R31
001a63 e0e5      	LDI  R30,LOW(5)
001a64 93ea      	ST   -Y,R30
001a65 940e 0447 	CALL _read_adc
001a67 93e0 04bc 	STS  _IRFR,R30
001a69 93f0 04bd 	STS  _IRFR+1,R31
001a6b cfd0      	RJMP SUBOPT_0x42
                 
                 ;OPTIMIZER ADDED SUBROUTINE, CALLED 2 TIMES, CODE SIZE REDUCTION:3 WORDS
                 SUBOPT_0x47:
001a6c e1e4      	LDI  R30,LOW(20)
001a6d 93ea      	ST   -Y,R30
001a6e 940e 050d 	CALL _vMLtoi
001a70 e1e4      	LDI  R30,LOW(20)
001a71 93ea      	ST   -Y,R30
001a72 940c 0525 	JMP  _vMRtoi
                 
                 ;OPTIMIZER ADDED SUBROUTINE, CALLED 3 TIMES, CODE SIZE REDUCTION:1 WORDS
                 SUBOPT_0x48:
001a74 e1e4      	LDI  R30,LOW(20)
001a75 e0f0      	LDI  R31,HIGH(20)
001a76 93fa      	ST   -Y,R31
001a77 93ea      	ST   -Y,R30
001a78 9508      	RET
                 
                 ;OPTIMIZER ADDED SUBROUTINE, CALLED 27 TIMES, CODE SIZE REDUCTION:49 WORDS
                 SUBOPT_0x49:
001a79 e0ea      	LDI  R30,LOW(10)
001a7a e0f0      	LDI  R31,HIGH(10)
001a7b 93fa      	ST   -Y,R31
001a7c 93ea      	ST   -Y,R30
001a7d 9508      	RET
                 
                 ;OPTIMIZER ADDED SUBROUTINE, CALLED 3 TIMES, CODE SIZE REDUCTION:1 WORDS
                 SUBOPT_0x4A:
001a7e e0e1      	LDI  R30,LOW(1)
001a7f e0f0      	LDI  R31,HIGH(1)
001a80 15ea      	CP   R30,R10
001a81 05fb      	CPC  R31,R11
001a82 9508      	RET
                 
                 ;OPTIMIZER ADDED SUBROUTINE, CALLED 7 TIMES, CODE SIZE REDUCTION:15 WORDS
                 SUBOPT_0x4B:
001a83 e0e0      	LDI  R30,LOW(0)
001a84 93e0 04b3 	STS  _flagsethome,R30
001a86 93e0 04b4 	STS  _flagsethome+1,R30
001a88 9508      	RET
                 
                 ;OPTIMIZER ADDED SUBROUTINE, CALLED 3 TIMES, CODE SIZE REDUCTION:1 WORDS
                 SUBOPT_0x4C:
001a89 e0e2      	LDI  R30,LOW(2)
001a8a e0f0      	LDI  R31,HIGH(2)
001a8b 15ea      	CP   R30,R10
001a8c 05fb      	CPC  R31,R11
001a8d 9508      	RET
                 
                 ;OPTIMIZER ADDED SUBROUTINE, CALLED 9 TIMES, CODE SIZE REDUCTION:13 WORDS
                 SUBOPT_0x4D:
001a8e 940e 212e 	CALL __PUTPARD1
001a90 940c 065a 	JMP  _calcvitri
                 
                 ;OPTIMIZER ADDED SUBROUTINE, CALLED 8 TIMES, CODE SIZE REDUCTION:39 WORDS
                 SUBOPT_0x4E:
001a92 91a0 0451 	LDS  R26,_distance
001a94 91b0 0452 	LDS  R27,_distance+1
001a96 9180 0453 	LDS  R24,_distance+2
001a98 9190 0454 	LDS  R25,_distance+3
001a9a 9508      	RET
                 
                 ;OPTIMIZER ADDED SUBROUTINE, CALLED 2 TIMES, CODE SIZE REDUCTION:1 WORDS
                 SUBOPT_0x4F:
                +
001a9b e0e0     +LDI R30 , LOW ( 0x42C80000 )
001a9c e0f0     +LDI R31 , HIGH ( 0x42C80000 )
001a9d ec68     +LDI R22 , BYTE3 ( 0x42C80000 )
001a9e e472     +LDI R23 , BYTE4 ( 0x42C80000 )
                 	__GETD1N 0x42C80000
001a9f 940e 2002 	CALL __CMPF12
001aa1 9508      	RET
                 
                 ;OPTIMIZER ADDED SUBROUTINE, CALLED 24 TIMES, CODE SIZE REDUCTION:135 WORDS
                 SUBOPT_0x50:
001aa2 91a0 044d 	LDS  R26,_errangle
001aa4 91b0 044e 	LDS  R27,_errangle+1
001aa6 9180 044f 	LDS  R24,_errangle+2
001aa8 9190 0450 	LDS  R25,_errangle+3
001aaa 9508      	RET
                 
                 ;OPTIMIZER ADDED SUBROUTINE, CALLED 6 TIMES, CODE SIZE REDUCTION:17 WORDS
                 SUBOPT_0x51:
                +
001aab e0e0     +LDI R30 , LOW ( 0x41900000 )
001aac e0f0     +LDI R31 , HIGH ( 0x41900000 )
001aad e960     +LDI R22 , BYTE3 ( 0x41900000 )
001aae e471     +LDI R23 , BYTE4 ( 0x41900000 )
                 	__GETD1N 0x41900000
001aaf 940e 2002 	CALL __CMPF12
001ab1 9508      	RET
                 
                 ;OPTIMIZER ADDED SUBROUTINE, CALLED 6 TIMES, CODE SIZE REDUCTION:27 WORDS
                 SUBOPT_0x52:
001ab2 dfef      	RCALL SUBOPT_0x50
                +
001ab3 e0e0     +LDI R30 , LOW ( 0xC1900000 )
001ab4 e0f0     +LDI R31 , HIGH ( 0xC1900000 )
001ab5 e960     +LDI R22 , BYTE3 ( 0xC1900000 )
001ab6 ec71     +LDI R23 , BYTE4 ( 0xC1900000 )
                 	__GETD1N 0xC1900000
001ab7 940e 2002 	CALL __CMPF12
001ab9 9508      	RET
                 
                 ;OPTIMIZER ADDED SUBROUTINE, CALLED 8 TIMES, CODE SIZE REDUCTION:319 WORDS
                 SUBOPT_0x53:
001aba 9724      	SBIW R28,4
001abb dfe6      	RCALL SUBOPT_0x50
                +
001abc e0e0     +LDI R30 , LOW ( 0x41D80000 )
001abd e0f0     +LDI R31 , HIGH ( 0x41D80000 )
001abe ed68     +LDI R22 , BYTE3 ( 0x41D80000 )
001abf e471     +LDI R23 , BYTE4 ( 0x41D80000 )
                 	__GETD1N 0x41D80000
001ac0 940e 1f6f 	CALL __MULF12
001ac2 01df      	MOVW R26,R30
001ac3 01cb      	MOVW R24,R22
                +
001ac4 e0e0     +LDI R30 , LOW ( 0x43340000 )
001ac5 e0f0     +LDI R31 , HIGH ( 0x43340000 )
001ac6 e364     +LDI R22 , BYTE3 ( 0x43340000 )
001ac7 e473     +LDI R23 , BYTE4 ( 0x43340000 )
                 	__GETD1N 0x43340000
001ac8 940e 1fbd 	CALL __DIVF21
001aca 940e 1eac 	CALL __CFD1U
001acc 83ea      	STD  Y+2,R30
001acd 83fb      	STD  Y+2+1,R31
001ace df00      	RCALL SUBOPT_0x35
001acf 940e 1eae 	CALL __CFD1
001ad1 93fa      	ST   -Y,R31
001ad2 93ea      	ST   -Y,R30
001ad3 940e 0a1c 	CALL _calcVangle
001ad5 83e8      	ST   Y,R30
001ad6 83f9      	STD  Y+1,R31
001ad7 81ea      	LDD  R30,Y+2
001ad8 81fb      	LDD  R31,Y+2+1
001ad9 93fa      	ST   -Y,R31
001ada 93ea      	ST   -Y,R30
001adb 81ea      	LDD  R30,Y+2
001adc 81fb      	LDD  R31,Y+2+1
001add 93fa      	ST   -Y,R31
001ade 93ea      	ST   -Y,R30
001adf 940e 054e 	CALL _ctrRobotXoay
001ae1 e0e1      	LDI  R30,LOW(1)
001ae2 e0f0      	LDI  R31,HIGH(1)
001ae3 93fa      	ST   -Y,R31
001ae4 93ea      	ST   -Y,R30
001ae5 940e 1e6d 	CALL _delay_ms
001ae7 9624      	ADIW R28,4
001ae8 9508      	RET
                 
                 ;OPTIMIZER ADDED SUBROUTINE, CALLED 4 TIMES, CODE SIZE REDUCTION:45 WORDS
                 SUBOPT_0x54:
001ae9 dfa8      	RCALL SUBOPT_0x4E
                +
001aea e3ed     +LDI R30 , LOW ( 0x40A70A3D )
001aeb e0fa     +LDI R31 , HIGH ( 0x40A70A3D )
001aec ea67     +LDI R22 , BYTE3 ( 0x40A70A3D )
001aed e470     +LDI R23 , BYTE4 ( 0x40A70A3D )
                 	__GETD1N 0x40A70A3D
001aee 940e 1fbd 	CALL __DIVF21
001af0 940e 1eac 	CALL __CFD1U
001af2 93fa      	ST   -Y,R31
001af3 93ea      	ST   -Y,R30
001af4 e0ef      	LDI  R30,LOW(15)
001af5 e0f0      	LDI  R31,HIGH(15)
001af6 93fa      	ST   -Y,R31
001af7 93ea      	ST   -Y,R30
001af8 940c 0540 	JMP  _ctrRobottoi
                 
                 ;OPTIMIZER ADDED SUBROUTINE, CALLED 2 TIMES, CODE SIZE REDUCTION:17 WORDS
                 SUBOPT_0x55:
001afa 91a0 04a9 	LDS  R26,_rbctrlHomeAngle
001afc 91b0 04aa 	LDS  R27,_rbctrlHomeAngle+1
001afe 9180 04ab 	LDS  R24,_rbctrlHomeAngle+2
001b00 9190 04ac 	LDS  R25,_rbctrlHomeAngle+3
001b02 dec7      	RCALL SUBOPT_0x34
001b03 940e 1f6f 	CALL __MULF12
001b05 01df      	MOVW R26,R30
001b06 01cb      	MOVW R24,R22
                +
001b07 e0e0     +LDI R30 , LOW ( 0x43340000 )
001b08 e0f0     +LDI R31 , HIGH ( 0x43340000 )
001b09 e364     +LDI R22 , BYTE3 ( 0x43340000 )
001b0a e473     +LDI R23 , BYTE4 ( 0x43340000 )
                 	__GETD1N 0x43340000
001b0b 940e 1fbd 	CALL __DIVF21
001b0d 940e 212e 	CALL __PUTPARD1
001b0f 9508      	RET
                 
                 ;OPTIMIZER ADDED SUBROUTINE, CALLED 2 TIMES, CODE SIZE REDUCTION:11 WORDS
                 SUBOPT_0x56:
001b10 940e 1731 	CALL _cos
                +
001b12 e0a0     +LDI R26 , LOW ( 0x41200000 )
001b13 e0b0     +LDI R27 , HIGH ( 0x41200000 )
001b14 e280     +LDI R24 , BYTE3 ( 0x41200000 )
001b15 e491     +LDI R25 , BYTE4 ( 0x41200000 )
                 	__GETD2N 0x41200000
001b16 940e 1f6f 	CALL __MULF12
001b18 93e0 0489 	STS  _setRobotAngleX,R30
001b1a 93f0 048a 	STS  _setRobotAngleX+1,R31
001b1c 9360 048b 	STS  _setRobotAngleX+2,R22
001b1e 9370 048c 	STS  _setRobotAngleX+3,R23
001b20 9508      	RET
                 
                 ;OPTIMIZER ADDED SUBROUTINE, CALLED 2 TIMES, CODE SIZE REDUCTION:13 WORDS
                 SUBOPT_0x57:
001b21 940e 16b6 	CALL _sin
                +
001b23 e0a0     +LDI R26 , LOW ( 0x41200000 )
001b24 e0b0     +LDI R27 , HIGH ( 0x41200000 )
001b25 e280     +LDI R24 , BYTE3 ( 0x41200000 )
001b26 e491     +LDI R25 , BYTE4 ( 0x41200000 )
                 	__GETD2N 0x41200000
001b27 940e 1f6f 	CALL __MULF12
001b29 93e0 048d 	STS  _setRobotAngleY,R30
001b2b 93f0 048e 	STS  _setRobotAngleY+1,R31
001b2d 9360 048f 	STS  _setRobotAngleY+2,R22
001b2f 9370 0490 	STS  _setRobotAngleY+3,R23
001b31 ce32      	RJMP SUBOPT_0x21
                 
                 ;OPTIMIZER ADDED SUBROUTINE, CALLED 3 TIMES, CODE SIZE REDUCTION:29 WORDS
                 SUBOPT_0x58:
001b32 91e0 0489 	LDS  R30,_setRobotAngleX
001b34 91f0 048a 	LDS  R31,_setRobotAngleX+1
001b36 9160 048b 	LDS  R22,_setRobotAngleX+2
001b38 9170 048c 	LDS  R23,_setRobotAngleX+3
001b3a 940e 2073 	CALL __CWD2
001b3c 940e 213d 	CALL __CDF2
001b3e 940e 1f1f 	CALL __ADDF12
001b40 940e 212e 	CALL __PUTPARD1
001b42 ce26      	RJMP SUBOPT_0x22
                 
                 ;OPTIMIZER ADDED SUBROUTINE, CALLED 3 TIMES, CODE SIZE REDUCTION:25 WORDS
                 SUBOPT_0x59:
001b43 91e0 048d 	LDS  R30,_setRobotAngleY
001b45 91f0 048e 	LDS  R31,_setRobotAngleY+1
001b47 9160 048f 	LDS  R22,_setRobotAngleY+2
001b49 9170 0490 	LDS  R23,_setRobotAngleY+3
001b4b 940e 2073 	CALL __CWD2
001b4d 940e 213d 	CALL __CDF2
001b4f 940e 1f1f 	CALL __ADDF12
001b51 cf3c      	RJMP SUBOPT_0x4D
                 
                 ;OPTIMIZER ADDED SUBROUTINE, CALLED 2 TIMES, CODE SIZE REDUCTION:11 WORDS
                 SUBOPT_0x5A:
001b52 e0e0      	LDI  R30,LOW(0)
001b53 93e0 04fc 	STS  _verranglekisum,R30
001b55 93e0 04fd 	STS  _verranglekisum+1,R30
001b57 93e0 04fa 	STS  _flaghuongtrue,R30
001b59 93e0 04fb 	STS  _flaghuongtrue+1,R30
001b5b e0e1      	LDI  R30,LOW(1)
001b5c e0f0      	LDI  R31,HIGH(1)
001b5d 93e0 04b3 	STS  _flagsethome,R30
001b5f 93f0 04b4 	STS  _flagsethome+1,R31
001b61 9508      	RET
                 
                 ;OPTIMIZER ADDED SUBROUTINE, CALLED 2 TIMES, CODE SIZE REDUCTION:7 WORDS
                 SUBOPT_0x5B:
001b62 eaaf      	LDI  R26,LOW(_cntstuckRB)
001b63 e0b4      	LDI  R27,HIGH(_cntstuckRB)
001b64 91ed      	LD   R30,X+
001b65 91fd      	LD   R31,X+
001b66 9631      	ADIW R30,1
001b67 93fe      	ST   -X,R31
001b68 93ee      	ST   -X,R30
001b69 91a0 04af 	LDS  R26,_cntstuckRB
001b6b 91b0 04b0 	LDS  R27,_cntstuckRB+1
001b6d 9713      	SBIW R26,3
001b6e 9508      	RET
                 
                 ;OPTIMIZER ADDED SUBROUTINE, CALLED 2 TIMES, CODE SIZE REDUCTION:7 WORDS
                 SUBOPT_0x5C:
001b6f eba1      	LDI  R26,LOW(_cntunlookRB)
001b70 e0b4      	LDI  R27,HIGH(_cntunlookRB)
001b71 91ed      	LD   R30,X+
001b72 91fd      	LD   R31,X+
001b73 9631      	ADIW R30,1
001b74 93fe      	ST   -X,R31
001b75 93ee      	ST   -X,R30
001b76 91a0 04b1 	LDS  R26,_cntunlookRB
001b78 91b0 04b2 	LDS  R27,_cntunlookRB+1
001b7a 9713      	SBIW R26,3
001b7b 9508      	RET
                 
                 ;OPTIMIZER ADDED SUBROUTINE, CALLED 3 TIMES, CODE SIZE REDUCTION:1 WORDS
                 SUBOPT_0x5D:
001b7c e0e8      	LDI  R30,LOW(8)
001b7d e0f0      	LDI  R31,HIGH(8)
001b7e 15ea      	CP   R30,R10
001b7f 05fb      	CPC  R31,R11
001b80 9508      	RET
                 
                 ;OPTIMIZER ADDED SUBROUTINE, CALLED 5 TIMES, CODE SIZE REDUCTION:5 WORDS
                 SUBOPT_0x5E:
001b81 df20      	RCALL SUBOPT_0x50
001b82 cf28      	RJMP SUBOPT_0x51
                 
                 ;OPTIMIZER ADDED SUBROUTINE, CALLED 2 TIMES, CODE SIZE REDUCTION:17 WORDS
                 SUBOPT_0x5F:
001b83 91a0 04a5 	LDS  R26,_rbctrlPenaltyAngle
001b85 91b0 04a6 	LDS  R27,_rbctrlPenaltyAngle+1
001b87 9180 04a7 	LDS  R24,_rbctrlPenaltyAngle+2
001b89 9190 04a8 	LDS  R25,_rbctrlPenaltyAngle+3
001b8b de3e      	RCALL SUBOPT_0x34
001b8c 940e 1f6f 	CALL __MULF12
001b8e 01df      	MOVW R26,R30
001b8f 01cb      	MOVW R24,R22
                +
001b90 e0e0     +LDI R30 , LOW ( 0x43340000 )
001b91 e0f0     +LDI R31 , HIGH ( 0x43340000 )
001b92 e364     +LDI R22 , BYTE3 ( 0x43340000 )
001b93 e473     +LDI R23 , BYTE4 ( 0x43340000 )
                 	__GETD1N 0x43340000
001b94 940e 1fbd 	CALL __DIVF21
001b96 940e 212e 	CALL __PUTPARD1
001b98 9508      	RET
                 
                 ;OPTIMIZER ADDED SUBROUTINE, CALLED 3 TIMES, CODE SIZE REDUCTION:1 WORDS
                 SUBOPT_0x60:
001b99 ddb4      	RCALL SUBOPT_0x1E
001b9a 940e 2002 	CALL __CMPF12
001b9c 9508      	RET
                 
                 ;OPTIMIZER ADDED SUBROUTINE, CALLED 2 TIMES, CODE SIZE REDUCTION:1 WORDS
                 SUBOPT_0x61:
                +
001b9d e0e0     +LDI R30 , LOW ( 0xC1200000 )
001b9e e0f0     +LDI R31 , HIGH ( 0xC1200000 )
001b9f e260     +LDI R22 , BYTE3 ( 0xC1200000 )
001ba0 ec71     +LDI R23 , BYTE4 ( 0xC1200000 )
                 	__GETD1N 0xC1200000
001ba1 940e 2002 	CALL __CMPF12
001ba3 9508      	RET
                 
                 ;OPTIMIZER ADDED SUBROUTINE, CALLED 5 TIMES, CODE SIZE REDUCTION:157 WORDS
                 SUBOPT_0x62:
001ba4 e0e0      	LDI  R30,LOW(0)
001ba5 93e0 049d 	STS  _rbctrlPenaltyX,R30
001ba7 93e0 049e 	STS  _rbctrlPenaltyX+1,R30
001ba9 93e0 049f 	STS  _rbctrlPenaltyX+2,R30
001bab 93e0 04a0 	STS  _rbctrlPenaltyX+3,R30
001bad 93e0 04a1 	STS  _rbctrlPenaltyY,R30
001baf 93e0 04a2 	STS  _rbctrlPenaltyY+1,R30
001bb1 93e0 04a3 	STS  _rbctrlPenaltyY+2,R30
001bb3 93e0 04a4 	STS  _rbctrlPenaltyY+3,R30
                +
001bb5 e0e0     +LDI R30 , LOW ( 0x43330000 )
001bb6 e0f0     +LDI R31 , HIGH ( 0x43330000 )
001bb7 e363     +LDI R22 , BYTE3 ( 0x43330000 )
001bb8 e473     +LDI R23 , BYTE4 ( 0x43330000 )
                 	__GETD1N 0x43330000
001bb9 93e0 04a5 	STS  _rbctrlPenaltyAngle,R30
001bbb 93f0 04a6 	STS  _rbctrlPenaltyAngle+1,R31
001bbd 9360 04a7 	STS  _rbctrlPenaltyAngle+2,R22
001bbf 9370 04a8 	STS  _rbctrlPenaltyAngle+3,R23
001bc1 93e0 04a9 	STS  _rbctrlHomeAngle,R30
001bc3 93f0 04aa 	STS  _rbctrlHomeAngle+1,R31
001bc5 9360 04ab 	STS  _rbctrlHomeAngle+2,R22
001bc7 9370 04ac 	STS  _rbctrlHomeAngle+3,R23
001bc9 9508      	RET
                 
                 ;OPTIMIZER ADDED SUBROUTINE, CALLED 2 TIMES, CODE SIZE REDUCTION:35 WORDS
                 SUBOPT_0x63:
                +
001bca e9ea     +LDI R30 , LOW ( 0x4386D99A )
001bcb edf9     +LDI R31 , HIGH ( 0x4386D99A )
001bcc e866     +LDI R22 , BYTE3 ( 0x4386D99A )
001bcd e473     +LDI R23 , BYTE4 ( 0x4386D99A )
                 	__GETD1N 0x4386D99A
001bce 93e0 0495 	STS  _rbctrlHomeX,R30
001bd0 93f0 0496 	STS  _rbctrlHomeX+1,R31
001bd2 9360 0497 	STS  _rbctrlHomeX+2,R22
001bd4 9370 0498 	STS  _rbctrlHomeX+3,R23
                +
001bd6 e9ea     +LDI R30 , LOW ( 0x3FD9999A )
001bd7 e9f9     +LDI R31 , HIGH ( 0x3FD9999A )
001bd8 ed69     +LDI R22 , BYTE3 ( 0x3FD9999A )
001bd9 e37f     +LDI R23 , BYTE4 ( 0x3FD9999A )
                 	__GETD1N 0x3FD9999A
001bda 93e0 0499 	STS  _rbctrlHomeY,R30
001bdc 93f0 049a 	STS  _rbctrlHomeY+1,R31
001bde 9360 049b 	STS  _rbctrlHomeY+2,R22
001be0 9370 049c 	STS  _rbctrlHomeY+3,R23
                +
001be2 e0e0     +LDI R30 , LOW ( 0x42A00000 )
001be3 e0f0     +LDI R31 , HIGH ( 0x42A00000 )
001be4 ea60     +LDI R22 , BYTE3 ( 0x42A00000 )
001be5 e472     +LDI R23 , BYTE4 ( 0x42A00000 )
                 	__GETD1N 0x42A00000
001be6 93e0 0481 	STS  _setRobotXmin,R30
001be8 93f0 0482 	STS  _setRobotXmin+1,R31
001bea 9360 0483 	STS  _setRobotXmin+2,R22
001bec 9370 0484 	STS  _setRobotXmin+3,R23
                +
001bee e0e0     +LDI R30 , LOW ( 0x43820000 )
001bef e0f0     +LDI R31 , HIGH ( 0x43820000 )
001bf0 e862     +LDI R22 , BYTE3 ( 0x43820000 )
001bf1 e473     +LDI R23 , BYTE4 ( 0x43820000 )
                 	__GETD1N 0x43820000
001bf2 9508      	RET
                 
                 ;OPTIMIZER ADDED SUBROUTINE, CALLED 2 TIMES, CODE SIZE REDUCTION:11 WORDS
                 SUBOPT_0x64:
                +
001bf3 e0e0     +LDI R30 , LOW ( 0x42840000 )
001bf4 e0f0     +LDI R31 , HIGH ( 0x42840000 )
001bf5 e864     +LDI R22 , BYTE3 ( 0x42840000 )
001bf6 e472     +LDI R23 , BYTE4 ( 0x42840000 )
                 	__GETD1N 0x42840000
001bf7 93e0 0495 	STS  _rbctrlHomeX,R30
001bf9 93f0 0496 	STS  _rbctrlHomeX+1,R31
001bfb 9360 0497 	STS  _rbctrlHomeX+2,R22
001bfd 9370 0498 	STS  _rbctrlHomeX+3,R23
                +
001bff eced     +LDI R30 , LOW ( 0x429ECCCD )
001c00 ecfc     +LDI R31 , HIGH ( 0x429ECCCD )
001c01 e96e     +LDI R22 , BYTE3 ( 0x429ECCCD )
001c02 e472     +LDI R23 , BYTE4 ( 0x429ECCCD )
                 	__GETD1N 0x429ECCCD
001c03 9508      	RET
                 
                 ;OPTIMIZER ADDED SUBROUTINE, CALLED 4 TIMES, CODE SIZE REDUCTION:27 WORDS
                 SUBOPT_0x65:
                +
001c04 e0e0     +LDI R30 , LOW ( 0xC3870000 )
001c05 e0f0     +LDI R31 , HIGH ( 0xC3870000 )
001c06 e867     +LDI R22 , BYTE3 ( 0xC3870000 )
001c07 ec73     +LDI R23 , BYTE4 ( 0xC3870000 )
                 	__GETD1N 0xC3870000
001c08 93e0 0481 	STS  _setRobotXmin,R30
001c0a 93f0 0482 	STS  _setRobotXmin+1,R31
001c0c 9360 0483 	STS  _setRobotXmin+2,R22
001c0e 9370 0484 	STS  _setRobotXmin+3,R23
001c10 9508      	RET
                 
                 ;OPTIMIZER ADDED SUBROUTINE, CALLED 2 TIMES, CODE SIZE REDUCTION:7 WORDS
                 SUBOPT_0x66:
                +
001c11 e0e0     +LDI R30 , LOW ( 0x43870000 )
001c12 e0f0     +LDI R31 , HIGH ( 0x43870000 )
001c13 e867     +LDI R22 , BYTE3 ( 0x43870000 )
001c14 e473     +LDI R23 , BYTE4 ( 0x43870000 )
                 	__GETD1N 0x43870000
001c15 93e0 0485 	STS  _setRobotXmax,R30
001c17 93f0 0486 	STS  _setRobotXmax+1,R31
001c19 9360 0487 	STS  _setRobotXmax+2,R22
001c1b 9370 0488 	STS  _setRobotXmax+3,R23
001c1d 9508      	RET
                 
                 ;OPTIMIZER ADDED SUBROUTINE, CALLED 2 TIMES, CODE SIZE REDUCTION:7 WORDS
                 SUBOPT_0x67:
001c1e 93e0 04a5 	STS  _rbctrlPenaltyAngle,R30
001c20 93f0 04a6 	STS  _rbctrlPenaltyAngle+1,R31
001c22 9360 04a7 	STS  _rbctrlPenaltyAngle+2,R22
001c24 9370 04a8 	STS  _rbctrlPenaltyAngle+3,R23
                +
001c26 e0e0     +LDI R30 , LOW ( 0x43330000 )
001c27 e0f0     +LDI R31 , HIGH ( 0x43330000 )
001c28 e363     +LDI R22 , BYTE3 ( 0x43330000 )
001c29 e473     +LDI R23 , BYTE4 ( 0x43330000 )
                 	__GETD1N 0x43330000
001c2a 9508      	RET
                 
                 ;OPTIMIZER ADDED SUBROUTINE, CALLED 2 TIMES, CODE SIZE REDUCTION:21 WORDS
                 SUBOPT_0x68:
                +
001c2b e6e6     +LDI R30 , LOW ( 0x42586666 )
001c2c e6f6     +LDI R31 , HIGH ( 0x42586666 )
001c2d e568     +LDI R22 , BYTE3 ( 0x42586666 )
001c2e e472     +LDI R23 , BYTE4 ( 0x42586666 )
                 	__GETD1N 0x42586666
001c2f 93e0 0495 	STS  _rbctrlHomeX,R30
001c31 93f0 0496 	STS  _rbctrlHomeX+1,R31
001c33 9360 0497 	STS  _rbctrlHomeX+2,R22
001c35 9370 0498 	STS  _rbctrlHomeX+3,R23
                +
001c37 eced     +LDI R30 , LOW ( 0xC2C7CCCD )
001c38 ecfc     +LDI R31 , HIGH ( 0xC2C7CCCD )
001c39 ec67     +LDI R22 , BYTE3 ( 0xC2C7CCCD )
001c3a ec72     +LDI R23 , BYTE4 ( 0xC2C7CCCD )
                 	__GETD1N 0xC2C7CCCD
001c3b 93e0 0499 	STS  _rbctrlHomeY,R30
001c3d 93f0 049a 	STS  _rbctrlHomeY+1,R31
001c3f 9360 049b 	STS  _rbctrlHomeY+2,R22
001c41 9370 049c 	STS  _rbctrlHomeY+3,R23
001c43 cfc0      	RJMP SUBOPT_0x65
                 
                 ;OPTIMIZER ADDED SUBROUTINE, CALLED 4 TIMES, CODE SIZE REDUCTION:3 WORDS
                 SUBOPT_0x69:
001c44 91a0 04fc 	LDS  R26,_verranglekisum
001c46 91b0 04fd 	LDS  R27,_verranglekisum+1
001c48 9508      	RET
                 
                 ;OPTIMIZER ADDED SUBROUTINE, CALLED 3 TIMES, CODE SIZE REDUCTION:1 WORDS
                 SUBOPT_0x6A:
001c49 93e0 04fc 	STS  _verranglekisum,R30
001c4b 93f0 04fd 	STS  _verranglekisum+1,R31
001c4d 9508      	RET
                 
                 ;OPTIMIZER ADDED SUBROUTINE, CALLED 8 TIMES, CODE SIZE REDUCTION:18 WORDS
                 SUBOPT_0x6B:
001c4e 91ed      	LD   R30,X+
001c4f 91fd      	LD   R31,X+
001c50 9631      	ADIW R30,1
001c51 93fe      	ST   -X,R31
001c52 93ee      	ST   -X,R30
001c53 9508      	RET
                 
                 ;OPTIMIZER ADDED SUBROUTINE, CALLED 4 TIMES, CODE SIZE REDUCTION:15 WORDS
                 SUBOPT_0x6C:
001c54 91e0 0481 	LDS  R30,_setRobotXmin
001c56 91f0 0482 	LDS  R31,_setRobotXmin+1
001c58 9160 0483 	LDS  R22,_setRobotXmin+2
001c5a 9170 0484 	LDS  R23,_setRobotXmin+3
001c5c 9508      	RET
                 
                 ;OPTIMIZER ADDED SUBROUTINE, CALLED 2 TIMES, CODE SIZE REDUCTION:5 WORDS
                 SUBOPT_0x6D:
001c5d 91a0 0479 	LDS  R26,_setRobotX
001c5f 91b0 047a 	LDS  R27,_setRobotX+1
001c61 9180 047b 	LDS  R24,_setRobotX+2
001c63 9190 047c 	LDS  R25,_setRobotX+3
001c65 940e 2002 	CALL __CMPF12
001c67 9508      	RET
                 
                 ;OPTIMIZER ADDED SUBROUTINE, CALLED 2 TIMES, CODE SIZE REDUCTION:3 WORDS
                 SUBOPT_0x6E:
001c68 93e0 0479 	STS  _setRobotX,R30
001c6a 93f0 047a 	STS  _setRobotX+1,R31
001c6c 9360 047b 	STS  _setRobotX+2,R22
001c6e 9370 047c 	STS  _setRobotX+3,R23
001c70 9508      	RET
                 
                 ;OPTIMIZER ADDED SUBROUTINE, CALLED 4 TIMES, CODE SIZE REDUCTION:15 WORDS
                 SUBOPT_0x6F:
001c71 91e0 0485 	LDS  R30,_setRobotXmax
001c73 91f0 0486 	LDS  R31,_setRobotXmax+1
001c75 9160 0487 	LDS  R22,_setRobotXmax+2
001c77 9170 0488 	LDS  R23,_setRobotXmax+3
001c79 9508      	RET
                 
                 ;OPTIMIZER ADDED SUBROUTINE, CALLED 3 TIMES, CODE SIZE REDUCTION:5 WORDS
                 SUBOPT_0x70:
001c7a e0ea      	LDI  R30,LOW(10)
001c7b e0f0      	LDI  R31,HIGH(10)
001c7c 93e0 04f6 	STS  _flagtask,R30
001c7e 93f0 04f7 	STS  _flagtask+1,R31
001c80 9508      	RET
                 
                 ;OPTIMIZER ADDED SUBROUTINE, CALLED 2 TIMES, CODE SIZE REDUCTION:1 WORDS
                 SUBOPT_0x71:
001c81 940e 2073 	CALL __CWD2
001c83 940e 213d 	CALL __CDF2
001c85 940e 2002 	CALL __CMPF12
001c87 9508      	RET
                 
                 ;OPTIMIZER ADDED SUBROUTINE, CALLED 2 TIMES, CODE SIZE REDUCTION:11 WORDS
                 SUBOPT_0x72:
                +
001c88 91e0 0449+LDS R30 , _robotctrl + ( 10 )
001c8a 91f0 044a+LDS R31 , _robotctrl + ( 10 ) + 1
                 	__GETW1MN _robotctrl,10
001c8c dc95      	RCALL SUBOPT_0x16
001c8d 940e 212e 	CALL __PUTPARD1
                +
001c8f 91e0 044b+LDS R30 , _robotctrl + ( 12 )
001c91 91f0 044c+LDS R31 , _robotctrl + ( 12 ) + 1
                 	__GETW1MN _robotctrl,12
001c93 dc8e      	RCALL SUBOPT_0x16
001c94 cdf9      	RJMP SUBOPT_0x4D
                 
                 ;OPTIMIZER ADDED SUBROUTINE, CALLED 3 TIMES, CODE SIZE REDUCTION:1 WORDS
                 SUBOPT_0x73:
001c95 e0e5      	LDI  R30,LOW(5)
001c96 e0f0      	LDI  R31,HIGH(5)
001c97 93fa      	ST   -Y,R31
001c98 93ea      	ST   -Y,R30
001c99 9508      	RET
                 
                 ;OPTIMIZER ADDED SUBROUTINE, CALLED 4 TIMES, CODE SIZE REDUCTION:3 WORDS
                 SUBOPT_0x74:
001c9a e2e8      	LDI  R30,LOW(40)
001c9b e0f0      	LDI  R31,HIGH(40)
001c9c 93fa      	ST   -Y,R31
001c9d 93ea      	ST   -Y,R30
001c9e 9508      	RET
                 
                 ;OPTIMIZER ADDED SUBROUTINE, CALLED 2 TIMES, CODE SIZE REDUCTION:1 WORDS
                 SUBOPT_0x75:
001c9f e9e0      	LDI  R30,LOW(400)
001ca0 e0f1      	LDI  R31,HIGH(400)
001ca1 93fa      	ST   -Y,R31
001ca2 93ea      	ST   -Y,R30
001ca3 940c 1e6d 	JMP  _delay_ms
                 
                 ;OPTIMIZER ADDED SUBROUTINE, CALLED 3 TIMES, CODE SIZE REDUCTION:1 WORDS
                 SUBOPT_0x76:
001ca5 e0e0      	LDI  R30,LOW(0)
001ca6 93ea      	ST   -Y,R30
001ca7 940c 0525 	JMP  _vMRtoi
                 
                 ;OPTIMIZER ADDED SUBROUTINE, CALLED 3 TIMES, CODE SIZE REDUCTION:1 WORDS
                 SUBOPT_0x77:
001ca9 e0e0      	LDI  R30,LOW(0)
001caa 93ea      	ST   -Y,R30
001cab 940c 050d 	JMP  _vMLtoi
                 
                 ;OPTIMIZER ADDED SUBROUTINE, CALLED 3 TIMES, CODE SIZE REDUCTION:1 WORDS
                 SUBOPT_0x78:
001cad 93e0 04f6 	STS  _flagtask,R30
001caf 93f0 04f7 	STS  _flagtask+1,R31
001cb1 9508      	RET
                 
                 ;OPTIMIZER ADDED SUBROUTINE, CALLED 22 TIMES, CODE SIZE REDUCTION:39 WORDS
                 SUBOPT_0x79:
001cb2 940e 211f 	CALL __GETD1S0
001cb4 9508      	RET
                 
                 ;OPTIMIZER ADDED SUBROUTINE, CALLED 3 TIMES, CODE SIZE REDUCTION:1 WORDS
                 SUBOPT_0x7A:
001cb5 91e0 0500 	LDS  R30,_QER
001cb7 91f0 0501 	LDS  R31,_QER+1
001cb9 9508      	RET
                 
                 ;OPTIMIZER ADDED SUBROUTINE, CALLED 4 TIMES, CODE SIZE REDUCTION:3 WORDS
                 SUBOPT_0x7B:
001cba 91a0 04dc 	LDS  R26,_seRki_G001
001cbc 91b0 04dd 	LDS  R27,_seRki_G001+1
001cbe 9508      	RET
                 
                 ;OPTIMIZER ADDED SUBROUTINE, CALLED 3 TIMES, CODE SIZE REDUCTION:1 WORDS
                 SUBOPT_0x7C:
001cbf 93e0 04dc 	STS  _seRki_G001,R30
001cc1 93f0 04dd 	STS  _seRki_G001+1,R31
001cc3 9508      	RET
                 
                 ;OPTIMIZER ADDED SUBROUTINE, CALLED 4 TIMES, CODE SIZE REDUCTION:3 WORDS
                 SUBOPT_0x7D:
001cc4 91a0 04de 	LDS  R26,_seLki_G001
001cc6 91b0 04df 	LDS  R27,_seLki_G001+1
001cc8 9508      	RET
                 
                 ;OPTIMIZER ADDED SUBROUTINE, CALLED 3 TIMES, CODE SIZE REDUCTION:1 WORDS
                 SUBOPT_0x7E:
001cc9 93e0 04de 	STS  _seLki_G001,R30
001ccb 93f0 04df 	STS  _seLki_G001+1,R31
001ccd 9508      	RET
                 
                 ;OPTIMIZER ADDED SUBROUTINE, CALLED 3 TIMES, CODE SIZE REDUCTION:1 WORDS
                 SUBOPT_0x7F:
001cce e0e0      	LDI  R30,LOW(0)
001ccf 83e8      	ST   Y,R30
001cd0 83e9      	STD  Y+1,R30
001cd1 9508      	RET
                 
                 ;OPTIMIZER ADDED SUBROUTINE, CALLED 2 TIMES, CODE SIZE REDUCTION:6 WORDS
                 SUBOPT_0x80:
001cd2 dc59      	RCALL SUBOPT_0x18
001cd3 91a0 0500 	LDS  R26,_QER
001cd5 91b0 0501 	LDS  R27,_QER+1
001cd7 0fae      	ADD  R26,R30
001cd8 1fbf      	ADC  R27,R31
001cd9 01fd      	MOVW R30,R26
001cda 95f6      	LSR  R31
001cdb 95e7      	ROR  R30
001cdc 9508      	RET
                 
                 ;OPTIMIZER ADDED SUBROUTINE, CALLED 4 TIMES, CODE SIZE REDUCTION:3 WORDS
                 SUBOPT_0x81:
                +
001cdd 91e0 044b+LDS R30 , _robotctrl + ( 12 )
001cdf 91f0 044c+LDS R31 , _robotctrl + ( 12 ) + 1
                 	__GETW1MN _robotctrl,12
001ce1 9508      	RET
                 
                 ;OPTIMIZER ADDED SUBROUTINE, CALLED 11 TIMES, CODE SIZE REDUCTION:17 WORDS
                 SUBOPT_0x82:
001ce2 93fa      	ST   -Y,R31
001ce3 93ea      	ST   -Y,R30
001ce4 940c 0427 	JMP  _wn16s
                 
                 ;OPTIMIZER ADDED SUBROUTINE, CALLED 5 TIMES, CODE SIZE REDUCTION:5 WORDS
                 SUBOPT_0x83:
001ce6 e0e4      	LDI  R30,LOW(4)
001ce7 e0f0      	LDI  R31,HIGH(4)
001ce8 93fa      	ST   -Y,R31
001ce9 93ea      	ST   -Y,R30
001cea 9508      	RET
                 
                 ;OPTIMIZER ADDED SUBROUTINE, CALLED 4 TIMES, CODE SIZE REDUCTION:3 WORDS
                 SUBOPT_0x84:
                +
001ceb 91e0 0449+LDS R30 , _robotctrl + ( 10 )
001ced 91f0 044a+LDS R31 , _robotctrl + ( 10 ) + 1
                 	__GETW1MN _robotctrl,10
001cef 9508      	RET
                 
                 ;OPTIMIZER ADDED SUBROUTINE, CALLED 6 TIMES, CODE SIZE REDUCTION:7 WORDS
                 SUBOPT_0x85:
001cf0 e0e3      	LDI  R30,LOW(3)
001cf1 e0f0      	LDI  R31,HIGH(3)
001cf2 93fa      	ST   -Y,R31
001cf3 93ea      	ST   -Y,R30
001cf4 9508      	RET
                 
                 ;OPTIMIZER ADDED SUBROUTINE, CALLED 5 TIMES, CODE SIZE REDUCTION:5 WORDS
                 SUBOPT_0x86:
001cf5 e0e2      	LDI  R30,LOW(2)
001cf6 e0f0      	LDI  R31,HIGH(2)
001cf7 93fa      	ST   -Y,R31
001cf8 93ea      	ST   -Y,R30
001cf9 9508      	RET
                 
                 ;OPTIMIZER ADDED SUBROUTINE, CALLED 10 TIMES, CODE SIZE REDUCTION:15 WORDS
                 SUBOPT_0x87:
001cfa e0e1      	LDI  R30,LOW(1)
001cfb e0f0      	LDI  R31,HIGH(1)
001cfc 93fa      	ST   -Y,R31
001cfd 93ea      	ST   -Y,R30
001cfe 9508      	RET
                 
                 ;OPTIMIZER ADDED SUBROUTINE, CALLED 11 TIMES, CODE SIZE REDUCTION:17 WORDS
                 SUBOPT_0x88:
001cff e0e0      	LDI  R30,LOW(0)
001d00 e0f0      	LDI  R31,HIGH(0)
001d01 93fa      	ST   -Y,R31
001d02 93ea      	ST   -Y,R30
001d03 9508      	RET
                 
                 ;OPTIMIZER ADDED SUBROUTINE, CALLED 3 TIMES, CODE SIZE REDUCTION:5 WORDS
                 SUBOPT_0x89:
001d04 ece8      	LDI  R30,LOW(200)
001d05 e0f0      	LDI  R31,HIGH(200)
001d06 93fa      	ST   -Y,R31
001d07 93ea      	ST   -Y,R30
001d08 940c 1e6d 	JMP  _delay_ms
                 
                 ;OPTIMIZER ADDED SUBROUTINE, CALLED 7 TIMES, CODE SIZE REDUCTION:9 WORDS
                 SUBOPT_0x8A:
001d0a 940e 03bd 	CALL _LcdClear
001d0c cff2      	RJMP SUBOPT_0x88
                 
                 ;OPTIMIZER ADDED SUBROUTINE, CALLED 4 TIMES, CODE SIZE REDUCTION:3 WORDS
                 SUBOPT_0x8B:
001d0d e0e1      	LDI  R30,LOW(1)
001d0e e0f0      	LDI  R31,HIGH(1)
001d0f cb87      	RJMP SUBOPT_0x7
                 
                 ;OPTIMIZER ADDED SUBROUTINE, CALLED 2 TIMES, CODE SIZE REDUCTION:1 WORDS
                 SUBOPT_0x8C:
001d10 e2ea      	LDI  R30,LOW(42)
001d11 e0f0      	LDI  R31,HIGH(42)
001d12 93fa      	ST   -Y,R31
001d13 93ea      	ST   -Y,R30
001d14 940c 0388 	JMP  _hc
                 
                 ;OPTIMIZER ADDED SUBROUTINE, CALLED 2 TIMES, CODE SIZE REDUCTION:4 WORDS
                 SUBOPT_0x8D:
001d16 93ea      	ST   -Y,R30
001d17 940e 0529 	CALL _vMRlui
001d19 e5e8      	LDI  R30,LOW(600)
001d1a e0f2      	LDI  R31,HIGH(600)
001d1b 93fa      	ST   -Y,R31
001d1c 93ea      	ST   -Y,R30
001d1d 940c 1e6d 	JMP  _delay_ms
                 
                 ;OPTIMIZER ADDED SUBROUTINE, CALLED 4 TIMES, CODE SIZE REDUCTION:3 WORDS
                 SUBOPT_0x8E:
001d1f 940e 036a 	CALL _LEDLtoggle
001d21 940c 0370 	JMP  _LEDRtoggle
                 
                 ;OPTIMIZER ADDED SUBROUTINE, CALLED 16 TIMES, CODE SIZE REDUCTION:42 WORDS
                 SUBOPT_0x8F:
001d23 01f8      	MOVW R30,R16
001d24 ebae      	LDI  R26,LOW(_IRLINE)
001d25 e0b4      	LDI  R27,HIGH(_IRLINE)
001d26 0fee      	LSL  R30
001d27 1fff      	ROL  R31
001d28 9508      	RET
                 
                 ;OPTIMIZER ADDED SUBROUTINE, CALLED 5 TIMES, CODE SIZE REDUCTION:5 WORDS
                 SUBOPT_0x90:
                +
001d29 91a0 04c2+LDS R26 , _IRLINE + ( 4 )
001d2b 91b0 04c3+LDS R27 , _IRLINE + ( 4 ) + 1
                 	__GETW2MN _IRLINE,4
001d2d 9508      	RET
                 
                 ;OPTIMIZER ADDED SUBROUTINE, CALLED 18 TIMES, CODE SIZE REDUCTION:31 WORDS
                 SUBOPT_0x91:
001d2e 0fae      	ADD  R26,R30
001d2f 1fbf      	ADC  R27,R31
001d30 940e 2116 	CALL __GETW1P
001d32 9508      	RET
                 
                 ;OPTIMIZER ADDED SUBROUTINE, CALLED 4 TIMES, CODE SIZE REDUCTION:15 WORDS
                 SUBOPT_0x92:
001d33 940e 0e59 	CALL _readline
                +
001d35 9140 04be+LDS R20 , 0 + ( _IRLINE )
001d37 9150 04bf+LDS R21 , 0 + ( _IRLINE ) + 1
                 	__GETWRMN 20,21,0,_IRLINE
001d39 e000      	LDI  R16,LOW(0)
001d3a e011      	LDI  R17,LOW(1)
001d3b 9508      	RET
                 
                 ;OPTIMIZER ADDED SUBROUTINE, CALLED 8 TIMES, CODE SIZE REDUCTION:39 WORDS
                 SUBOPT_0x93:
001d3c 2fe1      	MOV  R30,R17
001d3d ebae      	LDI  R26,LOW(_IRLINE)
001d3e e0b4      	LDI  R27,HIGH(_IRLINE)
001d3f e0f0      	LDI  R31,0
001d40 0fee      	LSL  R30
001d41 1fff      	ROL  R31
001d42 9508      	RET
                 
                 ;OPTIMIZER ADDED SUBROUTINE, CALLED 4 TIMES, CODE SIZE REDUCTION:6 WORDS
                 SUBOPT_0x94:
001d43 0fae      	ADD  R26,R30
001d44 1fbf      	ADC  R27,R31
001d45 914d      	LD   R20,X+
001d46 915c      	LD   R21,X
001d47 2f01      	MOV  R16,R17
001d48 9508      	RET
                 
                 ;OPTIMIZER ADDED SUBROUTINE, CALLED 3 TIMES, CODE SIZE REDUCTION:1 WORDS
                 SUBOPT_0x95:
001d49 2fe0      	MOV  R30,R16
001d4a e0f0      	LDI  R31,0
001d4b 9508      	RET
                 
                 ;OPTIMIZER ADDED SUBROUTINE, CALLED 4 TIMES, CODE SIZE REDUCTION:3 WORDS
                 SUBOPT_0x96:
001d4c e0e1      	LDI  R30,LOW(1)
001d4d 93ea      	ST   -Y,R30
001d4e 940c 050d 	JMP  _vMLtoi
                 
                 ;OPTIMIZER ADDED SUBROUTINE, CALLED 4 TIMES, CODE SIZE REDUCTION:3 WORDS
                 SUBOPT_0x97:
001d50 e1e4      	LDI  R30,LOW(20)
001d51 93ea      	ST   -Y,R30
001d52 940c 0525 	JMP  _vMRtoi
                 
                 ;OPTIMIZER ADDED SUBROUTINE, CALLED 3 TIMES, CODE SIZE REDUCTION:1 WORDS
                 SUBOPT_0x98:
001d54 e0ef      	LDI  R30,LOW(15)
001d55 93ea      	ST   -Y,R30
001d56 940c 0525 	JMP  _vMRtoi
                 
                 ;OPTIMIZER ADDED SUBROUTINE, CALLED 3 TIMES, CODE SIZE REDUCTION:1 WORDS
                 SUBOPT_0x99:
001d58 e0ef      	LDI  R30,LOW(15)
001d59 93ea      	ST   -Y,R30
001d5a 940c 050d 	JMP  _vMLtoi
                 
                 ;OPTIMIZER ADDED SUBROUTINE, CALLED 4 TIMES, CODE SIZE REDUCTION:3 WORDS
                 SUBOPT_0x9A:
001d5c e0e1      	LDI  R30,LOW(1)
001d5d 93ea      	ST   -Y,R30
001d5e 940c 0525 	JMP  _vMRtoi
                 
                 ;OPTIMIZER ADDED SUBROUTINE, CALLED 2 TIMES, CODE SIZE REDUCTION:1 WORDS
                 SUBOPT_0x9B:
001d60 e1e4      	LDI  R30,LOW(20)
001d61 93ea      	ST   -Y,R30
001d62 940e 050d 	CALL _vMLtoi
001d64 cff7      	RJMP SUBOPT_0x9A
                 
                 ;OPTIMIZER ADDED SUBROUTINE, CALLED 4 TIMES, CODE SIZE REDUCTION:3 WORDS
                 SUBOPT_0x9C:
001d65 e0a0      	LDI  R26,0
001d66 9998      	SBIC 0x13,0
001d67 e0a1      	LDI  R26,1
001d68 30a0      	CPI  R26,LOW(0x0)
001d69 9508      	RET
                 
                 ;OPTIMIZER ADDED SUBROUTINE, CALLED 2 TIMES, CODE SIZE REDUCTION:1 WORDS
                 SUBOPT_0x9D:
001d6a 940e 0388 	CALL _hc
001d6c 935a      	ST   -Y,R21
001d6d 934a      	ST   -Y,R20
001d6e 940c 0427 	JMP  _wn16s
                 
                 ;OPTIMIZER ADDED SUBROUTINE, CALLED 4 TIMES, CODE SIZE REDUCTION:27 WORDS
                 SUBOPT_0x9E:
001d70 940e 0e59 	CALL _readline
001d72 91e0 04be 	LDS  R30,_IRLINE
001d74 91f0 04bf 	LDS  R31,_IRLINE+1
001d76 a3eb      	STD  Y+35,R30
001d77 a3fc      	STD  Y+35+1,R31
                +
001d78 e040     +LDI R20 , LOW ( 0 )
001d79 e050     +LDI R21 , HIGH ( 0 )
                 	__GETWRN 20,21,0
                +
001d7a e001     +LDI R16 , LOW ( 1 )
001d7b e010     +LDI R17 , HIGH ( 1 )
                 	__GETWRN 16,17,1
001d7c 9508      	RET
                 
                 ;OPTIMIZER ADDED SUBROUTINE, CALLED 5 TIMES, CODE SIZE REDUCTION:5 WORDS
                 SUBOPT_0x9F:
001d7d a1ab      	LDD  R26,Y+35
001d7e a1bc      	LDD  R27,Y+35+1
001d7f 17ea      	CP   R30,R26
001d80 07fb      	CPC  R31,R27
001d81 9508      	RET
                 
                 ;OPTIMIZER ADDED SUBROUTINE, CALLED 2 TIMES, CODE SIZE REDUCTION:1 WORDS
                 SUBOPT_0xA0:
001d82 940e 0388 	CALL _hc
001d84 a1eb      	LDD  R30,Y+35
001d85 a1fc      	LDD  R31,Y+35+1
001d86 cf5b      	RJMP SUBOPT_0x82
                 
                 ;OPTIMIZER ADDED SUBROUTINE, CALLED 4 TIMES, CODE SIZE REDUCTION:3 WORDS
                 SUBOPT_0xA1:
                +
001d87 85ac     +LDD R26 , Y + 12
001d88 85bd     +LDD R27 , Y + 12 + 1
001d89 858e     +LDD R24 , Y + 12 + 2
001d8a 859f     +LDD R25 , Y + 12 + 3
                 	__GETD2S 12
001d8b 9508      	RET
                 
                 ;OPTIMIZER ADDED SUBROUTINE, CALLED 5 TIMES, CODE SIZE REDUCTION:5 WORDS
                 SUBOPT_0xA2:
                +
001d8c 85a8     +LDD R26 , Y + 8
001d8d 85b9     +LDD R27 , Y + 8 + 1
001d8e 858a     +LDD R24 , Y + 8 + 2
001d8f 859b     +LDD R25 , Y + 8 + 3
                 	__GETD2S 8
001d90 9508      	RET
                 
                 ;OPTIMIZER ADDED SUBROUTINE, CALLED 3 TIMES, CODE SIZE REDUCTION:1 WORDS
                 SUBOPT_0xA3:
                +
001d91 89ac     +LDD R26 , Y + 20
001d92 89bd     +LDD R27 , Y + 20 + 1
001d93 898e     +LDD R24 , Y + 20 + 2
001d94 899f     +LDD R25 , Y + 20 + 3
                 	__GETD2S 20
001d95 9508      	RET
                 
                 ;OPTIMIZER ADDED SUBROUTINE, CALLED 2 TIMES, CODE SIZE REDUCTION:2 WORDS
                 SUBOPT_0xA4:
001d96 dbfb      	RCALL SUBOPT_0x29
001d97 e0e0      	LDI  R30,LOW(0)
                +
001d98 8be8     +STD Y + 16 , R30
001d99 8be9     +STD Y + 16 + 1 , R30
001d9a 8bea     +STD Y + 16 + 2 , R30
001d9b 8beb     +STD Y + 16 + 3 , R30
                 	__CLRD1S 16
001d9c 9508      	RET
                 
                 ;OPTIMIZER ADDED SUBROUTINE, CALLED 2 TIMES, CODE SIZE REDUCTION:2 WORDS
                 SUBOPT_0xA5:
001d9d 93ea      	ST   -Y,R30
001d9e 940e 050d 	CALL _vMLtoi
001da0 e0e2      	LDI  R30,LOW(2)
001da1 93ea      	ST   -Y,R30
001da2 940c 0525 	JMP  _vMRtoi
                 
                 ;OPTIMIZER ADDED SUBROUTINE, CALLED 7 TIMES, CODE SIZE REDUCTION:9 WORDS
                 SUBOPT_0xA6:
001da4 93fa      	ST   -Y,R31
001da5 93ea      	ST   -Y,R30
001da6 940c 0388 	JMP  _hc
                 
                 ;OPTIMIZER ADDED SUBROUTINE, CALLED 2 TIMES, CODE SIZE REDUCTION:11 WORDS
                 SUBOPT_0xA7:
001da8 9aac      	SBI  0x15,4
001da9 9aad      	SBI  0x15,5
001daa e6e4      	LDI  R30,LOW(100)
001dab e0f0      	LDI  R31,HIGH(100)
001dac 93fa      	ST   -Y,R31
001dad 93ea      	ST   -Y,R30
001dae 940e 1e6d 	CALL _delay_ms
001db0 98ac      	CBI  0x15,4
001db1 98ad      	CBI  0x15,5
001db2 e6e4      	LDI  R30,LOW(100)
001db3 e0f0      	LDI  R31,HIGH(100)
001db4 93fa      	ST   -Y,R31
001db5 93ea      	ST   -Y,R30
001db6 940c 1e6d 	JMP  _delay_ms
                 
                 ;OPTIMIZER ADDED SUBROUTINE, CALLED 14 TIMES, CODE SIZE REDUCTION:23 WORDS
                 SUBOPT_0xA8:
001db8 e0e2      	LDI  R30,LOW(2)
001db9 e0f0      	LDI  R31,HIGH(2)
001dba cadc      	RJMP SUBOPT_0x7
                 
                 ;OPTIMIZER ADDED SUBROUTINE, CALLED 8 TIMES, CODE SIZE REDUCTION:11 WORDS
                 SUBOPT_0xA9:
001dbb 93fa      	ST   -Y,R31
001dbc 93ea      	ST   -Y,R30
001dbd 940c 03dd 	JMP  _wn164
                 
                 ;OPTIMIZER ADDED SUBROUTINE, CALLED 4 TIMES, CODE SIZE REDUCTION:3 WORDS
                 SUBOPT_0xAA:
001dbf e2eb      	LDI  R30,LOW(43)
001dc0 e0f0      	LDI  R31,HIGH(43)
001dc1 cfe2      	RJMP SUBOPT_0xA6
                 
                 ;OPTIMIZER ADDED SUBROUTINE, CALLED 3 TIMES, CODE SIZE REDUCTION:9 WORDS
                 SUBOPT_0xAB:
001dc2 91e0 04b9 	LDS  R30,_id
001dc4 e0f0      	LDI  R31,0
001dc5 30e1      	CPI  R30,LOW(0x1)
001dc6 e0a0      	LDI  R26,HIGH(0x1)
001dc7 07fa      	CPC  R31,R26
001dc8 9508      	RET
                 
                 ;OPTIMIZER ADDED SUBROUTINE, CALLED 4 TIMES, CODE SIZE REDUCTION:3 WORDS
                 SUBOPT_0xAC:
001dc9 93fa      	ST   -Y,R31
001dca 93ea      	ST   -Y,R30
001dcb 940c 1e6d 	JMP  _delay_ms
                 
                 ;OPTIMIZER ADDED SUBROUTINE, CALLED 2 TIMES, CODE SIZE REDUCTION:2 WORDS
                 SUBOPT_0xAD:
001dcd bfe3      	OUT  0x33,R30
001dce e0e0      	LDI  R30,LOW(0)
001dcf bfe2      	OUT  0x32,R30
001dd0 bfec      	OUT  0x3C,R30
001dd1 bde2      	OUT  0x22,R30
001dd2 9508      	RET
                 
                 ;OPTIMIZER ADDED SUBROUTINE, CALLED 11 TIMES, CODE SIZE REDUCTION:17 WORDS
                 SUBOPT_0xAE:
001dd3 940e 13fa 	CALL _outlcd1
001dd5 cfe2      	RJMP SUBOPT_0xA8
                 
                 ;OPTIMIZER ADDED SUBROUTINE, CALLED 4 TIMES, CODE SIZE REDUCTION:3 WORDS
                 SUBOPT_0xAF:
                +
001dd6 e0e0     +LDI R30 , LOW ( 0x0 )
001dd7 e0f0     +LDI R31 , HIGH ( 0x0 )
001dd8 e060     +LDI R22 , BYTE3 ( 0x0 )
001dd9 e070     +LDI R23 , BYTE4 ( 0x0 )
                 	__GETD1N 0x0
001dda 9508      	RET
                 
                 ;OPTIMIZER ADDED SUBROUTINE, CALLED 3 TIMES, CODE SIZE REDUCTION:9 WORDS
                 SUBOPT_0xB0:
001ddb e7a9      	LDI  R26,LOW(_setRobotX)
001ddc e0b4      	LDI  R27,HIGH(_setRobotX)
001ddd db44      	RCALL SUBOPT_0x16
001dde 940e 211a 	CALL __PUTDP1
001de0 cefc      	RJMP SUBOPT_0x81
                 
                 ;OPTIMIZER ADDED SUBROUTINE, CALLED 2 TIMES, CODE SIZE REDUCTION:3 WORDS
                 SUBOPT_0xB1:
                +
001de1 ece8     +LDI R30 , LOW ( 0xC8 )
001de2 e0f0     +LDI R31 , HIGH ( 0xC8 )
001de3 e060     +LDI R22 , BYTE3 ( 0xC8 )
001de4 e070     +LDI R23 , BYTE4 ( 0xC8 )
                 	__GETD1N 0xC8
001de5 940e 212e 	CALL __PUTPARD1
001de7 940c 0bcd 	JMP  _rb_wait
                 
                 ;OPTIMIZER ADDED SUBROUTINE, CALLED 2 TIMES, CODE SIZE REDUCTION:3 WORDS
                 SUBOPT_0xB2:
001de9 dec8      	RCALL SUBOPT_0x79
001dea 940e 212e 	CALL __PUTPARD1
001dec 940e 1646 	CALL _ftrunc
001dee cbc7      	RJMP SUBOPT_0x30
                 
                 ;OPTIMIZER ADDED SUBROUTINE, CALLED 5 TIMES, CODE SIZE REDUCTION:13 WORDS
                 SUBOPT_0xB3:
001def dec2      	RCALL SUBOPT_0x79
                +
001df0 e0a0     +LDI R26 , LOW ( 0x3F800000 )
001df1 e0b0     +LDI R27 , HIGH ( 0x3F800000 )
001df2 e880     +LDI R24 , BYTE3 ( 0x3F800000 )
001df3 e39f     +LDI R25 , BYTE4 ( 0x3F800000 )
                 	__GETD2N 0x3F800000
001df4 9508      	RET
                 
                 ;OPTIMIZER ADDED SUBROUTINE, CALLED 3 TIMES, CODE SIZE REDUCTION:3 WORDS
                 SUBOPT_0xB4:
001df5 9724      	SBIW R28,4
                +
001df6 81ec     +LDD R30 , Y + 4
001df7 81fd     +LDD R31 , Y + 4 + 1
001df8 816e     +LDD R22 , Y + 4 + 2
001df9 817f     +LDD R23 , Y + 4 + 3
                 	__GETD1S 4
001dfa 9508      	RET
                 
                 ;OPTIMIZER ADDED SUBROUTINE, CALLED 2 TIMES, CODE SIZE REDUCTION:5 WORDS
                 SUBOPT_0xB5:
                +
001dfb 81ec     +LDD R30 , Y + 4
001dfc 81fd     +LDD R31 , Y + 4 + 1
001dfd 816e     +LDD R22 , Y + 4 + 2
001dfe 817f     +LDD R23 , Y + 4 + 3
                 	__GETD1S 4
001dff df8c      	RCALL SUBOPT_0xA2
001e00 940e 1fbd 	CALL __DIVF21
001e02 cbb3      	RJMP SUBOPT_0x30
                 
                 ;OPTIMIZER ADDED SUBROUTINE, CALLED 6 TIMES, CODE SIZE REDUCTION:7 WORDS
                 SUBOPT_0xB6:
001e03 deae      	RCALL SUBOPT_0x79
001e04 940e 212e 	CALL __PUTPARD1
001e06 9508      	RET
                 
                 ;OPTIMIZER ADDED SUBROUTINE, CALLED 6 TIMES, CODE SIZE REDUCTION:7 WORDS
                 SUBOPT_0xB7:
001e07 940e 2140 	CALL __SWAPD12
001e09 940e 1f18 	CALL __SUBF12
001e0b 9508      	RET
                 
                 ;OPTIMIZER ADDED SUBROUTINE, CALLED 2 TIMES, CODE SIZE REDUCTION:2 WORDS
                 SUBOPT_0xB8:
001e0c 9724      	SBIW R28,4
001e0d 931a      	ST   -Y,R17
001e0e e010      	LDI  R17,0
                +
001e0f 81ad     +LDD R26 , Y + 5
001e10 81be     +LDD R27 , Y + 5 + 1
001e11 818f     +LDD R24 , Y + 5 + 2
001e12 8598     +LDD R25 , Y + 5 + 3
                 	__GETD2S 5
001e13 9508      	RET
                 
                 ;OPTIMIZER ADDED SUBROUTINE, CALLED 6 TIMES, CODE SIZE REDUCTION:7 WORDS
                 SUBOPT_0xB9:
                +
001e14 83ed     +STD Y + 5 , R30
001e15 83fe     +STD Y + 5 + 1 , R31
001e16 836f     +STD Y + 5 + 2 , R22
001e17 8778     +STD Y + 5 + 3 , R23
                 	__PUTD1S 5
001e18 9508      	RET
                 
                 ;OPTIMIZER ADDED SUBROUTINE, CALLED 7 TIMES, CODE SIZE REDUCTION:9 WORDS
                 SUBOPT_0xBA:
                +
001e19 81ed     +LDD R30 , Y + 5
001e1a 81fe     +LDD R31 , Y + 5 + 1
001e1b 816f     +LDD R22 , Y + 5 + 2
001e1c 8578     +LDD R23 , Y + 5 + 3
                 	__GETD1S 5
001e1d 9508      	RET
                 
                 ;OPTIMIZER ADDED SUBROUTINE, CALLED 10 TIMES, CODE SIZE REDUCTION:15 WORDS
                 SUBOPT_0xBB:
                +
001e1e 81ad     +LDD R26 , Y + 5
001e1f 81be     +LDD R27 , Y + 5 + 1
001e20 818f     +LDD R24 , Y + 5 + 2
001e21 8598     +LDD R25 , Y + 5 + 3
                 	__GETD2S 5
001e22 9508      	RET
                 
                 ;OPTIMIZER ADDED SUBROUTINE, CALLED 2 TIMES, CODE SIZE REDUCTION:1 WORDS
                 SUBOPT_0xBC:
001e23 dffa      	RCALL SUBOPT_0xBB
                +
001e24 e0e0     +LDI R30 , LOW ( 0x3F000000 )
001e25 e0f0     +LDI R31 , HIGH ( 0x3F000000 )
001e26 e060     +LDI R22 , BYTE3 ( 0x3F000000 )
001e27 e37f     +LDI R23 , BYTE4 ( 0x3F000000 )
                 	__GETD1N 0x3F000000
001e28 9508      	RET
                 
                 ;OPTIMIZER ADDED SUBROUTINE, CALLED 2 TIMES, CODE SIZE REDUCTION:1 WORDS
                 SUBOPT_0xBD:
001e29 dfef      	RCALL SUBOPT_0xBA
001e2a 940e 1e79 	CALL __ANEGF1
001e2c cfe7      	RJMP SUBOPT_0xB9
                 
                 ;OPTIMIZER ADDED SUBROUTINE, CALLED 2 TIMES, CODE SIZE REDUCTION:1 WORDS
                 SUBOPT_0xBE:
001e2d dfeb      	RCALL SUBOPT_0xBA
001e2e dfef      	RCALL SUBOPT_0xBB
001e2f 940e 1f6f 	CALL __MULF12
001e31 9508      	RET
                 
                 ;OPTIMIZER ADDED SUBROUTINE, CALLED 5 TIMES, CODE SIZE REDUCTION:5 WORDS
                 SUBOPT_0xBF:
                +
001e32 81e9     +LDD R30 , Y + 1
001e33 81fa     +LDD R31 , Y + 1 + 1
001e34 816b     +LDD R22 , Y + 1 + 2
001e35 817c     +LDD R23 , Y + 1 + 3
                 	__GETD1S 1
001e36 9508      	RET
                 
                 ;OPTIMIZER ADDED SUBROUTINE, CALLED 2 TIMES, CODE SIZE REDUCTION:1 WORDS
                 SUBOPT_0xC0:
                +
001e37 81a9     +LDD R26 , Y + 1
001e38 81ba     +LDD R27 , Y + 1 + 1
001e39 818b     +LDD R24 , Y + 1 + 2
001e3a 819c     +LDD R25 , Y + 1 + 3
                 	__GETD2S 1
001e3b 940e 1f6f 	CALL __MULF12
001e3d 9508      	RET
                 
                 ;OPTIMIZER ADDED SUBROUTINE, CALLED 2 TIMES, CODE SIZE REDUCTION:3 WORDS
                 SUBOPT_0xC1:
001e3e 940e 1f6f 	CALL __MULF12
                +
001e40 e4ae     +LDI R26 , LOW ( 0x414A8F4E )
001e41 e8bf     +LDI R27 , HIGH ( 0x414A8F4E )
001e42 e48a     +LDI R24 , BYTE3 ( 0x414A8F4E )
001e43 e491     +LDI R25 , BYTE4 ( 0x414A8F4E )
                 	__GETD2N 0x414A8F4E
001e44 940e 1f1f 	CALL __ADDF12
001e46 9508      	RET
                 
                 ;OPTIMIZER ADDED SUBROUTINE, CALLED 2 TIMES, CODE SIZE REDUCTION:1 WORDS
                 SUBOPT_0xC2:
001e47 940e 1fbd 	CALL __DIVF21
001e49 940e 212e 	CALL __PUTPARD1
001e4b 940c 173d 	JMP  _xatan
                 
                 ;OPTIMIZER ADDED SUBROUTINE, CALLED 2 TIMES, CODE SIZE REDUCTION:1 WORDS
                 SUBOPT_0xC3:
                +
001e4d e0e0     +LDI R30 , LOW ( 0xBF800000 )
001e4e e0f0     +LDI R31 , HIGH ( 0xBF800000 )
001e4f e860     +LDI R22 , BYTE3 ( 0xBF800000 )
001e50 eb7f     +LDI R23 , BYTE4 ( 0xBF800000 )
                 	__GETD1N 0xBF800000
001e51 940e 2002 	CALL __CMPF12
001e53 9508      	RET
                 
                 ;OPTIMIZER ADDED SUBROUTINE, CALLED 2 TIMES, CODE SIZE REDUCTION:1 WORDS
                 SUBOPT_0xC4:
                +
001e54 e0e0     +LDI R30 , LOW ( 0x3F800000 )
001e55 e0f0     +LDI R31 , HIGH ( 0x3F800000 )
001e56 e860     +LDI R22 , BYTE3 ( 0x3F800000 )
001e57 e37f     +LDI R23 , BYTE4 ( 0x3F800000 )
                 	__GETD1N 0x3F800000
001e58 940e 2002 	CALL __CMPF12
001e5a 9508      	RET
                 
                 ;OPTIMIZER ADDED SUBROUTINE, CALLED 3 TIMES, CODE SIZE REDUCTION:1 WORDS
                 SUBOPT_0xC5:
                +
001e5b efef     +LDI R30 , LOW ( 0x7F7FFFFF )
001e5c efff     +LDI R31 , HIGH ( 0x7F7FFFFF )
001e5d e76f     +LDI R22 , BYTE3 ( 0x7F7FFFFF )
001e5e e77f     +LDI R23 , BYTE4 ( 0x7F7FFFFF )
                 	__GETD1N 0x7F7FFFFF
001e5f 9508      	RET
                 
                 ;OPTIMIZER ADDED SUBROUTINE, CALLED 2 TIMES, CODE SIZE REDUCTION:1 WORDS
                 SUBOPT_0xC6:
001e60 940e 1fbd 	CALL __DIVF21
001e62 940e 212e 	CALL __PUTPARD1
001e64 940c 1765 	JMP  _yatan
                 
                 ;OPTIMIZER ADDED SUBROUTINE, CALLED 2 TIMES, CODE SIZE REDUCTION:3 WORDS
                 SUBOPT_0xC7:
001e66 de4b      	RCALL SUBOPT_0x79
001e67 940e 1e79 	CALL __ANEGF1
001e69 940e 212e 	CALL __PUTPARD1
001e6b 940c 1765 	JMP  _yatan
                 
                 
                 	.CSEG
                 _delay_ms:
001e6d 91e9      	ld   r30,y+
001e6e 91f9      	ld   r31,y+
001e6f 9630      	adiw r30,0
001e70 f039      	breq __delay_ms1
                 __delay_ms0:
                +
001e71 ed80     +LDI R24 , LOW ( 0x7D0 )
001e72 e097     +LDI R25 , HIGH ( 0x7D0 )
                +__DELAY_USW_LOOP :
001e73 9701     +SBIW R24 , 1
001e74 f7f1     +BRNE __DELAY_USW_LOOP
                 	__DELAY_USW 0x7D0
001e75 95a8      	wdr
001e76 9731      	sbiw r30,1
001e77 f7c9      	brne __delay_ms0
                 __delay_ms1:
001e78 9508      	ret
                 
                 __ANEGF1:
001e79 9730      	SBIW R30,0
001e7a 4060      	SBCI R22,0
001e7b 4070      	SBCI R23,0
001e7c f009      	BREQ __ANEGF10
001e7d 5870      	SUBI R23,0x80
                 __ANEGF10:
001e7e 9508      	RET
                 
                 __ROUND_REPACK:
001e7f 2355      	TST  R21
001e80 f442      	BRPL __REPACK
001e81 3850      	CPI  R21,0x80
001e82 f411      	BRNE __ROUND_REPACK0
001e83 ffe0      	SBRS R30,0
001e84 c004      	RJMP __REPACK
                 __ROUND_REPACK0:
001e85 9631      	ADIW R30,1
001e86 1f69      	ADC  R22,R25
001e87 1f79      	ADC  R23,R25
001e88 f06b      	BRVS __REPACK1
                 
                 __REPACK:
001e89 e850      	LDI  R21,0x80
001e8a 2757      	EOR  R21,R23
001e8b f411      	BRNE __REPACK0
001e8c 935f      	PUSH R21
001e8d c0cf      	RJMP __ZERORES
                 __REPACK0:
001e8e 3f5f      	CPI  R21,0xFF
001e8f f031      	BREQ __REPACK1
001e90 0f66      	LSL  R22
001e91 0c00      	LSL  R0
001e92 9557      	ROR  R21
001e93 9567      	ROR  R22
001e94 2f75      	MOV  R23,R21
001e95 9508      	RET
                 __REPACK1:
001e96 935f      	PUSH R21
001e97 2000      	TST  R0
001e98 f00a      	BRMI __REPACK2
001e99 c0cf      	RJMP __MAXRES
                 __REPACK2:
001e9a c0c8      	RJMP __MINRES
                 
                 __UNPACK:
001e9b e850      	LDI  R21,0x80
001e9c 2e19      	MOV  R1,R25
001e9d 2215      	AND  R1,R21
001e9e 0f88      	LSL  R24
001e9f 1f99      	ROL  R25
001ea0 2795      	EOR  R25,R21
001ea1 0f55      	LSL  R21
001ea2 9587      	ROR  R24
                 
                 __UNPACK1:
001ea3 e850      	LDI  R21,0x80
001ea4 2e07      	MOV  R0,R23
001ea5 2205      	AND  R0,R21
001ea6 0f66      	LSL  R22
001ea7 1f77      	ROL  R23
001ea8 2775      	EOR  R23,R21
001ea9 0f55      	LSL  R21
001eaa 9567      	ROR  R22
001eab 9508      	RET
                 
                 __CFD1U:
001eac 9468      	SET
001ead c001      	RJMP __CFD1U0
                 __CFD1:
001eae 94e8      	CLT
                 __CFD1U0:
001eaf 935f      	PUSH R21
001eb0 dff2      	RCALL __UNPACK1
001eb1 3870      	CPI  R23,0x80
001eb2 f018      	BRLO __CFD10
001eb3 3f7f      	CPI  R23,0xFF
001eb4 f408      	BRCC __CFD10
001eb5 c0a7      	RJMP __ZERORES
                 __CFD10:
001eb6 e156      	LDI  R21,22
001eb7 1b57      	SUB  R21,R23
001eb8 f4aa      	BRPL __CFD11
001eb9 9551      	NEG  R21
001eba 3058      	CPI  R21,8
001ebb f40e      	BRTC __CFD19
001ebc 3059      	CPI  R21,9
                 __CFD19:
001ebd f030      	BRLO __CFD17
001ebe efef      	SER  R30
001ebf efff      	SER  R31
001ec0 ef6f      	SER  R22
001ec1 e77f      	LDI  R23,0x7F
001ec2 f977      	BLD  R23,7
001ec3 c01a      	RJMP __CFD15
                 __CFD17:
001ec4 2777      	CLR  R23
001ec5 2355      	TST  R21
001ec6 f0b9      	BREQ __CFD15
                 __CFD18:
001ec7 0fee      	LSL  R30
001ec8 1fff      	ROL  R31
001ec9 1f66      	ROL  R22
001eca 1f77      	ROL  R23
001ecb 955a      	DEC  R21
001ecc f7d1      	BRNE __CFD18
001ecd c010      	RJMP __CFD15
                 __CFD11:
001ece 2777      	CLR  R23
                 __CFD12:
001ecf 3058      	CPI  R21,8
001ed0 f028      	BRLO __CFD13
001ed1 2fef      	MOV  R30,R31
001ed2 2ff6      	MOV  R31,R22
001ed3 2f67      	MOV  R22,R23
001ed4 5058      	SUBI R21,8
001ed5 cff9      	RJMP __CFD12
                 __CFD13:
001ed6 2355      	TST  R21
001ed7 f031      	BREQ __CFD15
                 __CFD14:
001ed8 9576      	LSR  R23
001ed9 9567      	ROR  R22
001eda 95f7      	ROR  R31
001edb 95e7      	ROR  R30
001edc 955a      	DEC  R21
001edd f7d1      	BRNE __CFD14
                 __CFD15:
001ede 2000      	TST  R0
001edf f40a      	BRPL __CFD16
001ee0 d185      	RCALL __ANEGD1
                 __CFD16:
001ee1 915f      	POP  R21
001ee2 9508      	RET
                 
                 __CDF1U:
001ee3 9468      	SET
001ee4 c001      	RJMP __CDF1U0
                 __CDF1:
001ee5 94e8      	CLT
                 __CDF1U0:
001ee6 9730      	SBIW R30,0
001ee7 4060      	SBCI R22,0
001ee8 4070      	SBCI R23,0
001ee9 f0b1      	BREQ __CDF10
001eea 2400      	CLR  R0
001eeb f026      	BRTS __CDF11
001eec 2377      	TST  R23
001eed f412      	BRPL __CDF11
001eee 9400      	COM  R0
001eef d176      	RCALL __ANEGD1
                 __CDF11:
001ef0 2e17      	MOV  R1,R23
001ef1 e17e      	LDI  R23,30
001ef2 2011      	TST  R1
                 __CDF12:
001ef3 f032      	BRMI __CDF13
001ef4 957a      	DEC  R23
001ef5 0fee      	LSL  R30
001ef6 1fff      	ROL  R31
001ef7 1f66      	ROL  R22
001ef8 1c11      	ROL  R1
001ef9 cff9      	RJMP __CDF12
                 __CDF13:
001efa 2fef      	MOV  R30,R31
001efb 2ff6      	MOV  R31,R22
001efc 2d61      	MOV  R22,R1
001efd 935f      	PUSH R21
001efe df8a      	RCALL __REPACK
001eff 915f      	POP  R21
                 __CDF10:
001f00 9508      	RET
                 
                 __SWAPACC:
001f01 934f      	PUSH R20
001f02 01af      	MOVW R20,R30
001f03 01fd      	MOVW R30,R26
001f04 01da      	MOVW R26,R20
001f05 01ab      	MOVW R20,R22
001f06 01bc      	MOVW R22,R24
001f07 01ca      	MOVW R24,R20
001f08 2d40      	MOV  R20,R0
001f09 2c01      	MOV  R0,R1
001f0a 2e14      	MOV  R1,R20
001f0b 914f      	POP  R20
001f0c 9508      	RET
                 
                 __UADD12:
001f0d 0fea      	ADD  R30,R26
001f0e 1ffb      	ADC  R31,R27
001f0f 1f68      	ADC  R22,R24
001f10 9508      	RET
                 
                 __NEGMAN1:
001f11 95e0      	COM  R30
001f12 95f0      	COM  R31
001f13 9560      	COM  R22
001f14 5fef      	SUBI R30,-1
001f15 4fff      	SBCI R31,-1
001f16 4f6f      	SBCI R22,-1
001f17 9508      	RET
                 
                 __SUBF12:
001f18 935f      	PUSH R21
001f19 df81      	RCALL __UNPACK
001f1a 3890      	CPI  R25,0x80
001f1b f171      	BREQ __ADDF129
001f1c e850      	LDI  R21,0x80
001f1d 2615      	EOR  R1,R21
                 
001f1e c004      	RJMP __ADDF120
                 
                 __ADDF12:
001f1f 935f      	PUSH R21
001f20 df7a      	RCALL __UNPACK
001f21 3890      	CPI  R25,0x80
001f22 f139      	BREQ __ADDF129
                 
                 __ADDF120:
001f23 3870      	CPI  R23,0x80
001f24 f121      	BREQ __ADDF128
                 __ADDF121:
001f25 2f57      	MOV  R21,R23
001f26 1b59      	SUB  R21,R25
001f27 f12b      	BRVS __ADDF1211
001f28 f412      	BRPL __ADDF122
001f29 dfd7      	RCALL __SWAPACC
001f2a cffa      	RJMP __ADDF121
                 __ADDF122:
001f2b 3158      	CPI  R21,24
001f2c f018      	BRLO __ADDF123
001f2d 27aa      	CLR  R26
001f2e 27bb      	CLR  R27
001f2f 2788      	CLR  R24
                 __ADDF123:
001f30 3058      	CPI  R21,8
001f31 f028      	BRLO __ADDF124
001f32 2fab      	MOV  R26,R27
001f33 2fb8      	MOV  R27,R24
001f34 2788      	CLR  R24
001f35 5058      	SUBI R21,8
001f36 cff9      	RJMP __ADDF123
                 __ADDF124:
001f37 2355      	TST  R21
001f38 f029      	BREQ __ADDF126
                 __ADDF125:
001f39 9586      	LSR  R24
001f3a 95b7      	ROR  R27
001f3b 95a7      	ROR  R26
001f3c 955a      	DEC  R21
001f3d f7d9      	BRNE __ADDF125
                 __ADDF126:
001f3e 2d50      	MOV  R21,R0
001f3f 2551      	EOR  R21,R1
001f40 f072      	BRMI __ADDF127
001f41 dfcb      	RCALL __UADD12
001f42 f438      	BRCC __ADDF129
001f43 9567      	ROR  R22
001f44 95f7      	ROR  R31
001f45 95e7      	ROR  R30
001f46 9573      	INC  R23
001f47 f413      	BRVC __ADDF129
001f48 c020      	RJMP __MAXRES
                 __ADDF128:
001f49 dfb7      	RCALL __SWAPACC
                 __ADDF129:
001f4a df3e      	RCALL __REPACK
001f4b 915f      	POP  R21
001f4c 9508      	RET
                 __ADDF1211:
001f4d f7d8      	BRCC __ADDF128
001f4e cffb      	RJMP __ADDF129
                 __ADDF127:
001f4f 1bea      	SUB  R30,R26
001f50 0bfb      	SBC  R31,R27
001f51 0b68      	SBC  R22,R24
001f52 f051      	BREQ __ZERORES
001f53 f410      	BRCC __ADDF1210
001f54 9400      	COM  R0
001f55 dfbb      	RCALL __NEGMAN1
                 __ADDF1210:
001f56 2366      	TST  R22
001f57 f392      	BRMI __ADDF129
001f58 0fee      	LSL  R30
001f59 1fff      	ROL  R31
001f5a 1f66      	ROL  R22
001f5b 957a      	DEC  R23
001f5c f7cb      	BRVC __ADDF1210
                 
                 __ZERORES:
001f5d 27ee      	CLR  R30
001f5e 27ff      	CLR  R31
001f5f 2766      	CLR  R22
001f60 2777      	CLR  R23
001f61 915f      	POP  R21
001f62 9508      	RET
                 
                 __MINRES:
001f63 efef      	SER  R30
001f64 efff      	SER  R31
001f65 e76f      	LDI  R22,0x7F
001f66 ef7f      	SER  R23
001f67 915f      	POP  R21
001f68 9508      	RET
                 
                 __MAXRES:
001f69 efef      	SER  R30
001f6a efff      	SER  R31
001f6b e76f      	LDI  R22,0x7F
001f6c e77f      	LDI  R23,0x7F
001f6d 915f      	POP  R21
001f6e 9508      	RET
                 
                 __MULF12:
001f6f 935f      	PUSH R21
001f70 df2a      	RCALL __UNPACK
001f71 3870      	CPI  R23,0x80
001f72 f351      	BREQ __ZERORES
001f73 3890      	CPI  R25,0x80
001f74 f341      	BREQ __ZERORES
001f75 2401      	EOR  R0,R1
001f76 9408      	SEC
001f77 1f79      	ADC  R23,R25
001f78 f423      	BRVC __MULF124
001f79 f31c      	BRLT __ZERORES
                 __MULF125:
001f7a 2000      	TST  R0
001f7b f33a      	BRMI __MINRES
001f7c cfec      	RJMP __MAXRES
                 __MULF124:
001f7d 920f      	PUSH R0
001f7e 931f      	PUSH R17
001f7f 932f      	PUSH R18
001f80 933f      	PUSH R19
001f81 934f      	PUSH R20
001f82 2711      	CLR  R17
001f83 2722      	CLR  R18
001f84 2799      	CLR  R25
001f85 9f68      	MUL  R22,R24
001f86 01a0      	MOVW R20,R0
001f87 9f8f      	MUL  R24,R31
001f88 2d30      	MOV  R19,R0
001f89 0d41      	ADD  R20,R1
001f8a 1f59      	ADC  R21,R25
001f8b 9f6b      	MUL  R22,R27
001f8c 0d30      	ADD  R19,R0
001f8d 1d41      	ADC  R20,R1
001f8e 1f59      	ADC  R21,R25
001f8f 9f8e      	MUL  R24,R30
001f90 d027      	RCALL __MULF126
001f91 9fbf      	MUL  R27,R31
001f92 d025      	RCALL __MULF126
001f93 9f6a      	MUL  R22,R26
001f94 d023      	RCALL __MULF126
001f95 9fbe      	MUL  R27,R30
001f96 d01d      	RCALL __MULF127
001f97 9faf      	MUL  R26,R31
001f98 d01b      	RCALL __MULF127
001f99 9fae      	MUL  R26,R30
001f9a 0d11      	ADD  R17,R1
001f9b 1f29      	ADC  R18,R25
001f9c 1f39      	ADC  R19,R25
001f9d 1f49      	ADC  R20,R25
001f9e 1f59      	ADC  R21,R25
001f9f 2fe3      	MOV  R30,R19
001fa0 2ff4      	MOV  R31,R20
001fa1 2f65      	MOV  R22,R21
001fa2 2f52      	MOV  R21,R18
001fa3 914f      	POP  R20
001fa4 913f      	POP  R19
001fa5 912f      	POP  R18
001fa6 911f      	POP  R17
001fa7 900f      	POP  R0
001fa8 2366      	TST  R22
001fa9 f02a      	BRMI __MULF122
001faa 0f55      	LSL  R21
001fab 1fee      	ROL  R30
001fac 1fff      	ROL  R31
001fad 1f66      	ROL  R22
001fae c002      	RJMP __MULF123
                 __MULF122:
001faf 9573      	INC  R23
001fb0 f24b      	BRVS __MULF125
                 __MULF123:
001fb1 decd      	RCALL __ROUND_REPACK
001fb2 915f      	POP  R21
001fb3 9508      	RET
                 
                 __MULF127:
001fb4 0d10      	ADD  R17,R0
001fb5 1d21      	ADC  R18,R1
001fb6 1f39      	ADC  R19,R25
001fb7 c002      	RJMP __MULF128
                 __MULF126:
001fb8 0d20      	ADD  R18,R0
001fb9 1d31      	ADC  R19,R1
                 __MULF128:
001fba 1f49      	ADC  R20,R25
001fbb 1f59      	ADC  R21,R25
001fbc 9508      	RET
                 
                 __DIVF21:
001fbd 935f      	PUSH R21
001fbe dedc      	RCALL __UNPACK
001fbf 3870      	CPI  R23,0x80
001fc0 f421      	BRNE __DIVF210
001fc1 2011      	TST  R1
                 __DIVF211:
001fc2 f40a      	BRPL __DIVF219
001fc3 cf9f      	RJMP __MINRES
                 __DIVF219:
001fc4 cfa4      	RJMP __MAXRES
                 __DIVF210:
001fc5 3890      	CPI  R25,0x80
001fc6 f409      	BRNE __DIVF218
                 __DIVF217:
001fc7 cf95      	RJMP __ZERORES
                 __DIVF218:
001fc8 2401      	EOR  R0,R1
001fc9 9408      	SEC
001fca 0b97      	SBC  R25,R23
001fcb f41b      	BRVC __DIVF216
001fcc f3d4      	BRLT __DIVF217
001fcd 2000      	TST  R0
001fce cff3      	RJMP __DIVF211
                 __DIVF216:
001fcf 2f79      	MOV  R23,R25
001fd0 931f      	PUSH R17
001fd1 932f      	PUSH R18
001fd2 933f      	PUSH R19
001fd3 934f      	PUSH R20
001fd4 2411      	CLR  R1
001fd5 2711      	CLR  R17
001fd6 2722      	CLR  R18
001fd7 2733      	CLR  R19
001fd8 2744      	CLR  R20
001fd9 2755      	CLR  R21
001fda e290      	LDI  R25,32
                 __DIVF212:
001fdb 17ae      	CP   R26,R30
001fdc 07bf      	CPC  R27,R31
001fdd 0786      	CPC  R24,R22
001fde 0741      	CPC  R20,R17
001fdf f030      	BRLO __DIVF213
001fe0 1bae      	SUB  R26,R30
001fe1 0bbf      	SBC  R27,R31
001fe2 0b86      	SBC  R24,R22
001fe3 0b41      	SBC  R20,R17
001fe4 9408      	SEC
001fe5 c001      	RJMP __DIVF214
                 __DIVF213:
001fe6 9488      	CLC
                 __DIVF214:
001fe7 1f55      	ROL  R21
001fe8 1f22      	ROL  R18
001fe9 1f33      	ROL  R19
001fea 1c11      	ROL  R1
001feb 1faa      	ROL  R26
001fec 1fbb      	ROL  R27
001fed 1f88      	ROL  R24
001fee 1f44      	ROL  R20
001fef 959a      	DEC  R25
001ff0 f751      	BRNE __DIVF212
001ff1 01f9      	MOVW R30,R18
001ff2 2d61      	MOV  R22,R1
001ff3 914f      	POP  R20
001ff4 913f      	POP  R19
001ff5 912f      	POP  R18
001ff6 911f      	POP  R17
001ff7 2366      	TST  R22
001ff8 f032      	BRMI __DIVF215
001ff9 0f55      	LSL  R21
001ffa 1fee      	ROL  R30
001ffb 1fff      	ROL  R31
001ffc 1f66      	ROL  R22
001ffd 957a      	DEC  R23
001ffe f243      	BRVS __DIVF217
                 __DIVF215:
001fff de7f      	RCALL __ROUND_REPACK
002000 915f      	POP  R21
002001 9508      	RET
                 
                 __CMPF12:
002002 2399      	TST  R25
002003 f09a      	BRMI __CMPF120
002004 2377      	TST  R23
002005 f042      	BRMI __CMPF121
002006 1797      	CP   R25,R23
002007 f048      	BRLO __CMPF122
002008 f429      	BRNE __CMPF121
002009 17ae      	CP   R26,R30
00200a 07bf      	CPC  R27,R31
00200b 0786      	CPC  R24,R22
00200c f020      	BRLO __CMPF122
00200d f031      	BREQ __CMPF123
                 __CMPF121:
00200e 9498      	CLZ
00200f 9488      	CLC
002010 9508      	RET
                 __CMPF122:
002011 9498      	CLZ
002012 9408      	SEC
002013 9508      	RET
                 __CMPF123:
002014 9418      	SEZ
002015 9488      	CLC
002016 9508      	RET
                 __CMPF120:
002017 2377      	TST  R23
002018 f7c2      	BRPL __CMPF122
002019 1797      	CP   R25,R23
00201a f398      	BRLO __CMPF121
00201b f7a9      	BRNE __CMPF122
00201c 17ea      	CP   R30,R26
00201d 07fb      	CPC  R31,R27
00201e 0768      	CPC  R22,R24
00201f f388      	BRLO __CMPF122
002020 f399      	BREQ __CMPF123
002021 cfec      	RJMP __CMPF121
                 
                 _sqrt:
002022 9724      	sbiw r28,4
002023 935f      	push r21
002024 819f      	ldd  r25,y+7
002025 2399      	tst  r25
002026 f411      	brne __sqrt0
002027 9628      	adiw r28,8
002028 cf34      	rjmp __zerores
                 __sqrt0:
002029 f412      	brpl __sqrt1
00202a 9628      	adiw r28,8
00202b cf3d      	rjmp __maxres
                 __sqrt1:
00202c 934f      	push r20
00202d e442      	ldi  r20,66
00202e 818e      	ldd  r24,y+6
00202f 81bd      	ldd  r27,y+5
002030 81ac      	ldd  r26,y+4
                 __sqrt2:
002031 8388      	st   y,r24
002032 8399      	std  y+1,r25
002033 83aa      	std  y+2,r26
002034 83bb      	std  y+3,r27
002035 01fd      	movw r30,r26
002036 01bc      	movw r22,r24
002037 81ac      	ldd  r26,y+4
002038 81bd      	ldd  r27,y+5
002039 818e      	ldd  r24,y+6
00203a 819f      	ldd  r25,y+7
00203b df81      	rcall __divf21
00203c 8188      	ld   r24,y
00203d 8199      	ldd  r25,y+1
00203e 81aa      	ldd  r26,y+2
00203f 81bb      	ldd  r27,y+3
002040 dede      	rcall __addf12
002041 de61      	rcall __unpack1
002042 957a      	dec  r23
002043 de45      	rcall __repack
002044 8188      	ld   r24,y
002045 8199      	ldd  r25,y+1
002046 81aa      	ldd  r26,y+2
002047 81bb      	ldd  r27,y+3
002048 27ae      	eor  r26,r30
002049 7fa8      	andi r26,0xf8
00204a f421      	brne __sqrt4
00204b 17bf      	cp   r27,r31
00204c 0786      	cpc  r24,r22
00204d 0797      	cpc  r25,r23
00204e f029      	breq __sqrt3
                 __sqrt4:
00204f 954a      	dec  r20
002050 f019      	breq __sqrt3
002051 01df      	movw r26,r30
002052 01cb      	movw r24,r22
002053 cfdd      	rjmp __sqrt2
                 __sqrt3:
002054 914f      	pop  r20
002055 915f      	pop  r21
002056 9628      	adiw r28,8
002057 9508      	ret
                 
                 __ADDD12:
002058 0fea      	ADD  R30,R26
002059 1ffb      	ADC  R31,R27
00205a 1f68      	ADC  R22,R24
00205b 1f79      	ADC  R23,R25
00205c 9508      	RET
                 
                 __SUBD12:
00205d 1bea      	SUB  R30,R26
00205e 0bfb      	SBC  R31,R27
00205f 0b68      	SBC  R22,R24
002060 0b79      	SBC  R23,R25
002061 9508      	RET
                 
                 __ANEGW1:
002062 95f1      	NEG  R31
002063 95e1      	NEG  R30
002064 40f0      	SBCI R31,0
002065 9508      	RET
                 
                 __ANEGD1:
002066 95f0      	COM  R31
002067 9560      	COM  R22
002068 9570      	COM  R23
002069 95e1      	NEG  R30
00206a 4fff      	SBCI R31,-1
00206b 4f6f      	SBCI R22,-1
00206c 4f7f      	SBCI R23,-1
00206d 9508      	RET
                 
                 __CWD1:
00206e 2f6f      	MOV  R22,R31
00206f 0f66      	ADD  R22,R22
002070 0b66      	SBC  R22,R22
002071 2f76      	MOV  R23,R22
002072 9508      	RET
                 
                 __CWD2:
002073 2f8b      	MOV  R24,R27
002074 0f88      	ADD  R24,R24
002075 0b88      	SBC  R24,R24
002076 2f98      	MOV  R25,R24
002077 9508      	RET
                 
                 __LTW12U:
002078 17ae      	CP   R26,R30
002079 07bf      	CPC  R27,R31
00207a e0e1      	LDI  R30,1
00207b f008      	BRLO __LTW12UT
00207c 27ee      	CLR  R30
                 __LTW12UT:
00207d 9508      	RET
                 
                 __MULW12U:
00207e 9ffa      	MUL  R31,R26
00207f 2df0      	MOV  R31,R0
002080 9feb      	MUL  R30,R27
002081 0df0      	ADD  R31,R0
002082 9fea      	MUL  R30,R26
002083 2de0      	MOV  R30,R0
002084 0df1      	ADD  R31,R1
002085 9508      	RET
                 
                 __MULD12U:
002086 9f7a      	MUL  R23,R26
002087 2d70      	MOV  R23,R0
002088 9f6b      	MUL  R22,R27
002089 0d70      	ADD  R23,R0
00208a 9ff8      	MUL  R31,R24
00208b 0d70      	ADD  R23,R0
00208c 9fe9      	MUL  R30,R25
00208d 0d70      	ADD  R23,R0
00208e 9f6a      	MUL  R22,R26
00208f 2d60      	MOV  R22,R0
002090 0d71      	ADD  R23,R1
002091 9ffb      	MUL  R31,R27
002092 0d60      	ADD  R22,R0
002093 1d71      	ADC  R23,R1
002094 9fe8      	MUL  R30,R24
002095 0d60      	ADD  R22,R0
002096 1d71      	ADC  R23,R1
002097 2788      	CLR  R24
002098 9ffa      	MUL  R31,R26
002099 2df0      	MOV  R31,R0
00209a 0d61      	ADD  R22,R1
00209b 1f78      	ADC  R23,R24
00209c 9feb      	MUL  R30,R27
00209d 0df0      	ADD  R31,R0
00209e 1d61      	ADC  R22,R1
00209f 1f78      	ADC  R23,R24
0020a0 9fea      	MUL  R30,R26
0020a1 2de0      	MOV  R30,R0
0020a2 0df1      	ADD  R31,R1
0020a3 1f68      	ADC  R22,R24
0020a4 1f78      	ADC  R23,R24
0020a5 9508      	RET
                 
                 __MULW12:
0020a6 d04e      	RCALL __CHKSIGNW
0020a7 dfd6      	RCALL __MULW12U
0020a8 f40e      	BRTC __MULW121
0020a9 dfb8      	RCALL __ANEGW1
                 __MULW121:
0020aa 9508      	RET
                 
                 __MULD12:
0020ab d057      	RCALL __CHKSIGND
0020ac dfd9      	RCALL __MULD12U
0020ad f40e      	BRTC __MULD121
0020ae dfb7      	RCALL __ANEGD1
                 __MULD121:
0020af 9508      	RET
                 
                 __DIVW21U:
0020b0 2400      	CLR  R0
0020b1 2411      	CLR  R1
0020b2 e190      	LDI  R25,16
                 __DIVW21U1:
0020b3 0faa      	LSL  R26
0020b4 1fbb      	ROL  R27
0020b5 1c00      	ROL  R0
0020b6 1c11      	ROL  R1
0020b7 1a0e      	SUB  R0,R30
0020b8 0a1f      	SBC  R1,R31
0020b9 f418      	BRCC __DIVW21U2
0020ba 0e0e      	ADD  R0,R30
0020bb 1e1f      	ADC  R1,R31
0020bc c001      	RJMP __DIVW21U3
                 __DIVW21U2:
0020bd 60a1      	SBR  R26,1
                 __DIVW21U3:
0020be 959a      	DEC  R25
0020bf f799      	BRNE __DIVW21U1
0020c0 01fd      	MOVW R30,R26
0020c1 01d0      	MOVW R26,R0
0020c2 9508      	RET
                 
                 __DIVW21:
0020c3 d031      	RCALL __CHKSIGNW
0020c4 dfeb      	RCALL __DIVW21U
0020c5 f40e      	BRTC __DIVW211
0020c6 df9b      	RCALL __ANEGW1
                 __DIVW211:
0020c7 9508      	RET
                 
                 __DIVD21U:
0020c8 933f      	PUSH R19
0020c9 934f      	PUSH R20
0020ca 935f      	PUSH R21
0020cb 2400      	CLR  R0
0020cc 2411      	CLR  R1
0020cd 2744      	CLR  R20
0020ce 2755      	CLR  R21
0020cf e230      	LDI  R19,32
                 __DIVD21U1:
0020d0 0faa      	LSL  R26
0020d1 1fbb      	ROL  R27
0020d2 1f88      	ROL  R24
0020d3 1f99      	ROL  R25
0020d4 1c00      	ROL  R0
0020d5 1c11      	ROL  R1
0020d6 1f44      	ROL  R20
0020d7 1f55      	ROL  R21
0020d8 1a0e      	SUB  R0,R30
0020d9 0a1f      	SBC  R1,R31
0020da 0b46      	SBC  R20,R22
0020db 0b57      	SBC  R21,R23
0020dc f428      	BRCC __DIVD21U2
0020dd 0e0e      	ADD  R0,R30
0020de 1e1f      	ADC  R1,R31
0020df 1f46      	ADC  R20,R22
0020e0 1f57      	ADC  R21,R23
0020e1 c001      	RJMP __DIVD21U3
                 __DIVD21U2:
0020e2 60a1      	SBR  R26,1
                 __DIVD21U3:
0020e3 953a      	DEC  R19
0020e4 f759      	BRNE __DIVD21U1
0020e5 01fd      	MOVW R30,R26
0020e6 01bc      	MOVW R22,R24
0020e7 01d0      	MOVW R26,R0
0020e8 01ca      	MOVW R24,R20
0020e9 915f      	POP  R21
0020ea 914f      	POP  R20
0020eb 913f      	POP  R19
0020ec 9508      	RET
                 
                 __DIVD21:
0020ed d015      	RCALL __CHKSIGND
0020ee dfd9      	RCALL __DIVD21U
0020ef f40e      	BRTC __DIVD211
0020f0 df75      	RCALL __ANEGD1
                 __DIVD211:
0020f1 9508      	RET
                 
                 __MODW21U:
0020f2 dfbd      	RCALL __DIVW21U
0020f3 01fd      	MOVW R30,R26
0020f4 9508      	RET
                 
                 __CHKSIGNW:
0020f5 94e8      	CLT
0020f6 fff7      	SBRS R31,7
0020f7 c002      	RJMP __CHKSW1
0020f8 df69      	RCALL __ANEGW1
0020f9 9468      	SET
                 __CHKSW1:
0020fa ffb7      	SBRS R27,7
0020fb c006      	RJMP __CHKSW2
0020fc 95a0      	COM  R26
0020fd 95b0      	COM  R27
0020fe 9611      	ADIW R26,1
0020ff f800      	BLD  R0,0
002100 9403      	INC  R0
002101 fa00      	BST  R0,0
                 __CHKSW2:
002102 9508      	RET
                 
                 __CHKSIGND:
002103 94e8      	CLT
002104 ff77      	SBRS R23,7
002105 c002      	RJMP __CHKSD1
002106 df5f      	RCALL __ANEGD1
002107 9468      	SET
                 __CHKSD1:
002108 ff97      	SBRS R25,7
002109 c00b      	RJMP __CHKSD2
00210a 2400      	CLR  R0
00210b 95a0      	COM  R26
00210c 95b0      	COM  R27
00210d 9580      	COM  R24
00210e 9590      	COM  R25
00210f 9611      	ADIW R26,1
002110 1d80      	ADC  R24,R0
002111 1d90      	ADC  R25,R0
002112 f800      	BLD  R0,0
002113 9403      	INC  R0
002114 fa00      	BST  R0,0
                 __CHKSD2:
002115 9508      	RET
                 
                 __GETW1P:
002116 91ed      	LD   R30,X+
002117 91fc      	LD   R31,X
002118 9711      	SBIW R26,1
002119 9508      	RET
                 
                 __PUTDP1:
00211a 93ed      	ST   X+,R30
00211b 93fd      	ST   X+,R31
00211c 936d      	ST   X+,R22
00211d 937c      	ST   X,R23
00211e 9508      	RET
                 
                 __GETD1S0:
00211f 81e8      	LD   R30,Y
002120 81f9      	LDD  R31,Y+1
002121 816a      	LDD  R22,Y+2
002122 817b      	LDD  R23,Y+3
002123 9508      	RET
                 
                 __GETD2S0:
002124 81a8      	LD   R26,Y
002125 81b9      	LDD  R27,Y+1
002126 818a      	LDD  R24,Y+2
002127 819b      	LDD  R25,Y+3
002128 9508      	RET
                 
                 __PUTD1S0:
002129 83e8      	ST   Y,R30
00212a 83f9      	STD  Y+1,R31
00212b 836a      	STD  Y+2,R22
00212c 837b      	STD  Y+3,R23
00212d 9508      	RET
                 
                 __PUTPARD1:
00212e 937a      	ST   -Y,R23
00212f 936a      	ST   -Y,R22
002130 93fa      	ST   -Y,R31
002131 93ea      	ST   -Y,R30
002132 9508      	RET
                 
                 __PUTPARL:
002133 27bb      	CLR  R27
                 __PUTPAR:
002134 0fea      	ADD  R30,R26
002135 1ffb      	ADC  R31,R27
                 __PUTPAR0:
002136 9002      	LD   R0,-Z
002137 920a      	ST   -Y,R0
002138 9711      	SBIW R26,1
002139 f7e1      	BRNE __PUTPAR0
00213a 9508      	RET
                 
                 __CDF2U:
00213b 9468      	SET
00213c c001      	RJMP __CDF2U0
                 __CDF2:
00213d 94e8      	CLT
                 __CDF2U0:
00213e d001      	RCALL __SWAPD12
00213f dda6      	RCALL __CDF1U0
                 
                 __SWAPD12:
002140 2e18      	MOV  R1,R24
002141 2f86      	MOV  R24,R22
002142 2d61      	MOV  R22,R1
002143 2e19      	MOV  R1,R25
002144 2f97      	MOV  R25,R23
002145 2d71      	MOV  R23,R1
                 
                 __SWAPW12:
002146 2e1b      	MOV  R1,R27
002147 2fbf      	MOV  R27,R31
002148 2df1      	MOV  R31,R1
                 
                 __SWAPB12:
002149 2e1a      	MOV  R1,R26
00214a 2fae      	MOV  R26,R30
00214b 2de1      	MOV  R30,R1
00214c 9508      	RET
                 
                 __COPYMML:
00214d 2799      	CLR  R25
                 __COPYMM:
00214e 93ef      	PUSH R30
00214f 93ff      	PUSH R31
                 __COPYMM0:
002150 9161      	LD   R22,Z+
002151 936d      	ST   X+,R22
002152 9701      	SBIW R24,1
002153 f7e1      	BRNE __COPYMM0
002154 91ff      	POP  R31
002155 91ef      	POP  R30
002156 9508      	RET
                 
                 __CPD01:
002157 2400      	CLR  R0
002158 160e      	CP   R0,R30
002159 060f      	CPC  R0,R31
00215a 0606      	CPC  R0,R22
00215b 0607      	CPC  R0,R23
00215c 9508      	RET
                 
                 __CPD10:
00215d 9730      	SBIW R30,0
00215e 4060      	SBCI R22,0
00215f 4070      	SBCI R23,0
002160 9508      	RET
                 
                 __CPW02:
002161 2400      	CLR  R0
002162 160a      	CP   R0,R26
002163 060b      	CPC  R0,R27
002164 9508      	RET
                 
                 __CPD02:
002165 2400      	CLR  R0
002166 160a      	CP   R0,R26
002167 060b      	CPC  R0,R27
002168 0608      	CPC  R0,R24
002169 0609      	CPC  R0,R25
00216a 9508      	RET
                 
                 __SAVELOCR6:
00216b 935a      	ST   -Y,R21
                 __SAVELOCR5:
00216c 934a      	ST   -Y,R20
                 __SAVELOCR4:
00216d 933a      	ST   -Y,R19
                 __SAVELOCR3:
00216e 932a      	ST   -Y,R18
                 __SAVELOCR2:
00216f 931a      	ST   -Y,R17
002170 930a      	ST   -Y,R16
002171 9508      	RET
                 
                 __LOADLOCR6:
002172 815d      	LDD  R21,Y+5
                 __LOADLOCR5:
002173 814c      	LDD  R20,Y+4
                 __LOADLOCR4:
002174 813b      	LDD  R19,Y+3
                 __LOADLOCR3:
002175 812a      	LDD  R18,Y+2
                 __LOADLOCR2:
002176 8119      	LDD  R17,Y+1
002177 8108      	LD   R16,Y
002178 9508      	RET
                 
                 __INITLOCB:
                 __INITLOCW:
002179 0fac      	ADD  R26,R28
00217a 1fbd      	ADC  R27,R29
                 __INITLOC0:
00217b 9005      	LPM  R0,Z+
00217c 920d      	ST   X+,R0
00217d 958a      	DEC  R24
00217e f7e1      	BRNE __INITLOC0
00217f 9508      	RET
                 
                 ;END OF CODE MARKER
                 __END_OF_CODE:


RESOURCE USE INFORMATION
------------------------

Notice:
The register and instruction counts are symbol table hit counts,
and hence implicitly used resources are not counted, eg, the
'lpm' instruction without operands implicitly uses r0 and z,
none of which are counted.

x,y,z are separate entities in the symbol table and are
counted separately from r26..r31 here.

.dseg memory usage only counts static data declared with .byte

ATmega32A register use summary:
r0 :  82 r1 :  50 r2 :   1 r3 :   0 r4 :   3 r5 :   2 r6 :   7 r7 :   4 
r8 :   1 r9 :   0 r10:  12 r11:  11 r12:   4 r13:   2 r14:   0 r15:   2 
r16:  99 r17: 145 r18:  33 r19:  35 r20:  55 r21:  86 r22: 255 r23: 241 
r24: 149 r25: 128 r26: 471 r27: 274 r28:  48 r29:   2 r30:1425 r31: 679 
x  :  46 y  : 871 z  :  16 
Registers used: 32 out of 35 (91.4%)

ATmega32A instruction use summary:
.lds  :   0 .lds.l:   0 .sts  :   0 .sts.l:   0 adc   :  58 add   :  47 
adiw  :  42 and   :   6 andi  :   2 asr   :   0 bclr  :   0 bld   :   5 
brbc  :   0 brbs  :   0 brcc  :  21 brcs  :  11 break :   0 breq  :  72 
brge  :  28 brhc  :   0 brhs  :   0 brid  :   0 brie  :   0 brlo  :  55 
brlt  :  16 brmi  :  11 brne  : 129 brpl  :  14 brsh  :  47 brtc  :   6 
brts  :   2 brvc  :   4 brvs  :   4 bset  :   0 bst   :   4 call  :1094 
cbi   :  41 cbr   :   1 clc   :   3 clh   :   0 cli   :   4 cln   :   0 
clr   :  54 cls   :   0 clt   :   6 clv   :   0 clz   :   2 com   :  14 
cp    :  36 cpc   : 139 cpi   : 150 cpse  :   0 dec   :  16 des   :   0 
eor   :   8 fmul  :   0 fmuls :   0 fmulsu:   0 icall :   0 ijmp  :   0 
in    :  12 inc   :   4 jmp   : 104 ld    :  82 ldd   : 323 ldi   :1092 
lds   : 253 lpm   :  10 lsl   :  16 lsr   :   5 mov   :  71 movw  :  73 
mul   :  22 muls  :   0 mulsu :   0 neg   :   4 nop   :   0 or    :   0 
ori   :   5 out   :  71 pop   :  59 push  :  59 rcall : 144 ret   : 245 
reti  :   3 rjmp  : 296 rol   :  36 ror   :  17 sbc   :  25 sbci  :  40 
sbi   :  68 sbic  :   7 sbis  :  20 sbiw  :  61 sbr   :   4 sbrc  :   1 
sbrs  :   6 sec   :   5 seh   :   0 sei   :   3 sen   :   0 ser   :   8 
ses   :   0 set   :   6 sev   :   0 sez   :   1 sleep :   0 spm   :   0 
st    : 296 std   : 223 sts   : 249 sub   :  17 subi  :  53 swap  :   0 
tst   :  26 wdr   :   1 
Instructions used: 80 out of 116 (69.0%)

ATmega32A memory use summary [bytes]:
Segment   Begin    End      Code   Data   Used    Size   Use%
---------------------------------------------------------------
[.cseg] 0x000000 0x004300  15954   1198  17152   32768  52.3%
[.dseg] 0x000060 0x00051c      0    700    700    2143  32.7%
[.eseg] 0x000000 0x000000      0      0      0    1024   0.0%

Assembly complete, 0 errors, 18 warnings
