
AVRASM ver. 2.1.30  C:\Users\AtM5\Documents\GitHub\Soccerbot\List\AK.asm Fri Sep 04 14:18:51 2015

C:\Users\AtM5\Documents\GitHub\Soccerbot\List\AK.asm(1058): warning: Register r4 already defined by the .DEF directive
C:\Users\AtM5\Documents\GitHub\Soccerbot\List\AK.asm(1059): warning: Register r6 already defined by the .DEF directive
C:\Users\AtM5\Documents\GitHub\Soccerbot\List\AK.asm(1060): warning: Register r8 already defined by the .DEF directive
C:\Users\AtM5\Documents\GitHub\Soccerbot\List\AK.asm(1061): warning: Register r10 already defined by the .DEF directive
C:\Users\AtM5\Documents\GitHub\Soccerbot\List\AK.asm(1062): warning: Register r12 already defined by the .DEF directive
                 
                 
                 ;CodeVisionAVR C Compiler V2.05.0 Professional
                 ;(C) Copyright 1998-2010 Pavel Haiduc, HP InfoTech s.r.l.
                 ;http://www.hpinfotech.com
                 
                 ;Chip type                : ATmega32A
                 ;Program type             : Application
                 ;Clock frequency          : 8.000000 MHz
                 ;Memory model             : Small
                 ;Optimize for             : Size
                 ;(s)printf features       : float, width, precision
                 ;(s)scanf features        : int, width
                 ;External RAM size        : 0
                 ;Data Stack size          : 512 byte(s)
                 ;Heap size                : 0 byte(s)
                 ;Promote 'char' to 'int'  : Yes
                 ;'char' is unsigned       : Yes
                 ;8 bit enums              : Yes
                 ;global 'const' stored in FLASH: No
                 ;Enhanced core instructions    : On
                 ;Smart register allocation     : On
                 ;Automatic register allocation : On
                 
                 	#pragma AVRPART ADMIN PART_NAME ATmega32A
                 	#pragma AVRPART MEMORY PROG_FLASH 32768
                 	#pragma AVRPART MEMORY EEPROM 1024
                 	#pragma AVRPART MEMORY INT_SRAM SIZE 2143
                 	#pragma AVRPART MEMORY INT_SRAM START_ADDR 0x60
                 
                 	#define CALL_SUPPORTED 1
                 
                 	.LISTMAC
                 	.EQU UDRE=0x5
                 	.EQU RXC=0x7
                 	.EQU USR=0xB
                 	.EQU UDR=0xC
                 	.EQU SPSR=0xE
                 	.EQU SPDR=0xF
                 	.EQU EERE=0x0
                 	.EQU EEWE=0x1
                 	.EQU EEMWE=0x2
                 	.EQU EECR=0x1C
                 	.EQU EEDR=0x1D
                 	.EQU EEARL=0x1E
                 	.EQU EEARH=0x1F
                 	.EQU WDTCR=0x21
                 	.EQU MCUCR=0x35
                 	.EQU SPL=0x3D
                 	.EQU SPH=0x3E
                 	.EQU SREG=0x3F
                 
                 	.DEF R0X0=R0
                 	.DEF R0X1=R1
                 	.DEF R0X2=R2
                 	.DEF R0X3=R3
                 	.DEF R0X4=R4
                 	.DEF R0X5=R5
                 	.DEF R0X6=R6
                 	.DEF R0X7=R7
                 	.DEF R0X8=R8
                 	.DEF R0X9=R9
                 	.DEF R0XA=R10
                 	.DEF R0XB=R11
                 	.DEF R0XC=R12
                 	.DEF R0XD=R13
                 	.DEF R0XE=R14
                 	.DEF R0XF=R15
                 	.DEF R0X10=R16
                 	.DEF R0X11=R17
                 	.DEF R0X12=R18
                 	.DEF R0X13=R19
                 	.DEF R0X14=R20
                 	.DEF R0X15=R21
                 	.DEF R0X16=R22
                 	.DEF R0X17=R23
                 	.DEF R0X18=R24
                 	.DEF R0X19=R25
                 	.DEF R0X1A=R26
                 	.DEF R0X1B=R27
                 	.DEF R0X1C=R28
                 	.DEF R0X1D=R29
                 	.DEF R0X1E=R30
                 	.DEF R0X1F=R31
                 
                 	.EQU __SRAM_START=0x0060
                 	.EQU __SRAM_END=0x085F
                 	.EQU __DSTACK_SIZE=0x0200
                 	.EQU __HEAP_SIZE=0x0000
                 	.EQU __CLEAR_SRAM_SIZE=__SRAM_END-__SRAM_START+1
                 
                 	.MACRO __CPD1N
                 	CPI  R30,LOW(@0)
                 	LDI  R26,HIGH(@0)
                 	CPC  R31,R26
                 	LDI  R26,BYTE3(@0)
                 	CPC  R22,R26
                 	LDI  R26,BYTE4(@0)
                 	CPC  R23,R26
                 	.ENDM
                 
                 	.MACRO __CPD2N
                 	CPI  R26,LOW(@0)
                 	LDI  R30,HIGH(@0)
                 	CPC  R27,R30
                 	LDI  R30,BYTE3(@0)
                 	CPC  R24,R30
                 	LDI  R30,BYTE4(@0)
                 	CPC  R25,R30
                 	.ENDM
                 
                 	.MACRO __CPWRR
                 	CP   R@0,R@2
                 	CPC  R@1,R@3
                 	.ENDM
                 
                 	.MACRO __CPWRN
                 	CPI  R@0,LOW(@2)
                 	LDI  R30,HIGH(@2)
                 	CPC  R@1,R30
                 	.ENDM
                 
                 	.MACRO __ADDB1MN
                 	SUBI R30,LOW(-@0-(@1))
                 	.ENDM
                 
                 	.MACRO __ADDB2MN
                 	SUBI R26,LOW(-@0-(@1))
                 	.ENDM
                 
                 	.MACRO __ADDW1MN
                 	SUBI R30,LOW(-@0-(@1))
                 	SBCI R31,HIGH(-@0-(@1))
                 	.ENDM
                 
                 	.MACRO __ADDW2MN
                 	SUBI R26,LOW(-@0-(@1))
                 	SBCI R27,HIGH(-@0-(@1))
                 	.ENDM
                 
                 	.MACRO __ADDW1FN
                 	SUBI R30,LOW(-2*@0-(@1))
                 	SBCI R31,HIGH(-2*@0-(@1))
                 	.ENDM
                 
                 	.MACRO __ADDD1FN
                 	SUBI R30,LOW(-2*@0-(@1))
                 	SBCI R31,HIGH(-2*@0-(@1))
                 	SBCI R22,BYTE3(-2*@0-(@1))
                 	.ENDM
                 
                 	.MACRO __ADDD1N
                 	SUBI R30,LOW(-@0)
                 	SBCI R31,HIGH(-@0)
                 	SBCI R22,BYTE3(-@0)
                 	SBCI R23,BYTE4(-@0)
                 	.ENDM
                 
                 	.MACRO __ADDD2N
                 	SUBI R26,LOW(-@0)
                 	SBCI R27,HIGH(-@0)
                 	SBCI R24,BYTE3(-@0)
                 	SBCI R25,BYTE4(-@0)
                 	.ENDM
                 
                 	.MACRO __SUBD1N
                 	SUBI R30,LOW(@0)
                 	SBCI R31,HIGH(@0)
                 	SBCI R22,BYTE3(@0)
                 	SBCI R23,BYTE4(@0)
                 	.ENDM
                 
                 	.MACRO __SUBD2N
                 	SUBI R26,LOW(@0)
                 	SBCI R27,HIGH(@0)
                 	SBCI R24,BYTE3(@0)
                 	SBCI R25,BYTE4(@0)
                 	.ENDM
                 
                 	.MACRO __ANDBMNN
                 	LDS  R30,@0+(@1)
                 	ANDI R30,LOW(@2)
                 	STS  @0+(@1),R30
                 	.ENDM
                 
                 	.MACRO __ANDWMNN
                 	LDS  R30,@0+(@1)
                 	ANDI R30,LOW(@2)
                 	STS  @0+(@1),R30
                 	LDS  R30,@0+(@1)+1
                 	ANDI R30,HIGH(@2)
                 	STS  @0+(@1)+1,R30
                 	.ENDM
                 
                 	.MACRO __ANDD1N
                 	ANDI R30,LOW(@0)
                 	ANDI R31,HIGH(@0)
                 	ANDI R22,BYTE3(@0)
                 	ANDI R23,BYTE4(@0)
                 	.ENDM
                 
                 	.MACRO __ANDD2N
                 	ANDI R26,LOW(@0)
                 	ANDI R27,HIGH(@0)
                 	ANDI R24,BYTE3(@0)
                 	ANDI R25,BYTE4(@0)
                 	.ENDM
                 
                 	.MACRO __ORBMNN
                 	LDS  R30,@0+(@1)
                 	ORI  R30,LOW(@2)
                 	STS  @0+(@1),R30
                 	.ENDM
                 
                 	.MACRO __ORWMNN
                 	LDS  R30,@0+(@1)
                 	ORI  R30,LOW(@2)
                 	STS  @0+(@1),R30
                 	LDS  R30,@0+(@1)+1
                 	ORI  R30,HIGH(@2)
                 	STS  @0+(@1)+1,R30
                 	.ENDM
                 
                 	.MACRO __ORD1N
                 	ORI  R30,LOW(@0)
                 	ORI  R31,HIGH(@0)
                 	ORI  R22,BYTE3(@0)
                 	ORI  R23,BYTE4(@0)
                 	.ENDM
                 
                 	.MACRO __ORD2N
                 	ORI  R26,LOW(@0)
                 	ORI  R27,HIGH(@0)
                 	ORI  R24,BYTE3(@0)
                 	ORI  R25,BYTE4(@0)
                 	.ENDM
                 
                 	.MACRO __DELAY_USB
                 	LDI  R24,LOW(@0)
                 __DELAY_USB_LOOP:
                 	DEC  R24
                 	BRNE __DELAY_USB_LOOP
                 	.ENDM
                 
                 	.MACRO __DELAY_USW
                 	LDI  R24,LOW(@0)
                 	LDI  R25,HIGH(@0)
                 __DELAY_USW_LOOP:
                 	SBIW R24,1
                 	BRNE __DELAY_USW_LOOP
                 	.ENDM
                 
                 	.MACRO __GETD1S
                 	LDD  R30,Y+@0
                 	LDD  R31,Y+@0+1
                 	LDD  R22,Y+@0+2
                 	LDD  R23,Y+@0+3
                 	.ENDM
                 
                 	.MACRO __GETD2S
                 	LDD  R26,Y+@0
                 	LDD  R27,Y+@0+1
                 	LDD  R24,Y+@0+2
                 	LDD  R25,Y+@0+3
                 	.ENDM
                 
                 	.MACRO __PUTD1S
                 	STD  Y+@0,R30
                 	STD  Y+@0+1,R31
                 	STD  Y+@0+2,R22
                 	STD  Y+@0+3,R23
                 	.ENDM
                 
                 	.MACRO __PUTD2S
                 	STD  Y+@0,R26
                 	STD  Y+@0+1,R27
                 	STD  Y+@0+2,R24
                 	STD  Y+@0+3,R25
                 	.ENDM
                 
                 	.MACRO __PUTDZ2
                 	STD  Z+@0,R26
                 	STD  Z+@0+1,R27
                 	STD  Z+@0+2,R24
                 	STD  Z+@0+3,R25
                 	.ENDM
                 
                 	.MACRO __CLRD1S
                 	STD  Y+@0,R30
                 	STD  Y+@0+1,R30
                 	STD  Y+@0+2,R30
                 	STD  Y+@0+3,R30
                 	.ENDM
                 
                 	.MACRO __POINTB1MN
                 	LDI  R30,LOW(@0+(@1))
                 	.ENDM
                 
                 	.MACRO __POINTW1MN
                 	LDI  R30,LOW(@0+(@1))
                 	LDI  R31,HIGH(@0+(@1))
                 	.ENDM
                 
                 	.MACRO __POINTD1M
                 	LDI  R30,LOW(@0)
                 	LDI  R31,HIGH(@0)
                 	LDI  R22,BYTE3(@0)
                 	LDI  R23,BYTE4(@0)
                 	.ENDM
                 
                 	.MACRO __POINTW1FN
                 	LDI  R30,LOW(2*@0+(@1))
                 	LDI  R31,HIGH(2*@0+(@1))
                 	.ENDM
                 
                 	.MACRO __POINTD1FN
                 	LDI  R30,LOW(2*@0+(@1))
                 	LDI  R31,HIGH(2*@0+(@1))
                 	LDI  R22,BYTE3(2*@0+(@1))
                 	LDI  R23,BYTE4(2*@0+(@1))
                 	.ENDM
                 
                 	.MACRO __POINTB2MN
                 	LDI  R26,LOW(@0+(@1))
                 	.ENDM
                 
                 	.MACRO __POINTW2MN
                 	LDI  R26,LOW(@0+(@1))
                 	LDI  R27,HIGH(@0+(@1))
                 	.ENDM
                 
                 	.MACRO __POINTBRM
                 	LDI  R@0,LOW(@1)
                 	.ENDM
                 
                 	.MACRO __POINTWRM
                 	LDI  R@0,LOW(@2)
                 	LDI  R@1,HIGH(@2)
                 	.ENDM
                 
                 	.MACRO __POINTBRMN
                 	LDI  R@0,LOW(@1+(@2))
                 	.ENDM
                 
                 	.MACRO __POINTWRMN
                 	LDI  R@0,LOW(@2+(@3))
                 	LDI  R@1,HIGH(@2+(@3))
                 	.ENDM
                 
                 	.MACRO __POINTWRFN
                 	LDI  R@0,LOW(@2*2+(@3))
                 	LDI  R@1,HIGH(@2*2+(@3))
                 	.ENDM
                 
                 	.MACRO __GETD1N
                 	LDI  R30,LOW(@0)
                 	LDI  R31,HIGH(@0)
                 	LDI  R22,BYTE3(@0)
                 	LDI  R23,BYTE4(@0)
                 	.ENDM
                 
                 	.MACRO __GETD2N
                 	LDI  R26,LOW(@0)
                 	LDI  R27,HIGH(@0)
                 	LDI  R24,BYTE3(@0)
                 	LDI  R25,BYTE4(@0)
                 	.ENDM
                 
                 	.MACRO __GETB1MN
                 	LDS  R30,@0+(@1)
                 	.ENDM
                 
                 	.MACRO __GETB1HMN
                 	LDS  R31,@0+(@1)
                 	.ENDM
                 
                 	.MACRO __GETW1MN
                 	LDS  R30,@0+(@1)
                 	LDS  R31,@0+(@1)+1
                 	.ENDM
                 
                 	.MACRO __GETD1MN
                 	LDS  R30,@0+(@1)
                 	LDS  R31,@0+(@1)+1
                 	LDS  R22,@0+(@1)+2
                 	LDS  R23,@0+(@1)+3
                 	.ENDM
                 
                 	.MACRO __GETBRMN
                 	LDS  R@0,@1+(@2)
                 	.ENDM
                 
                 	.MACRO __GETWRMN
                 	LDS  R@0,@2+(@3)
                 	LDS  R@1,@2+(@3)+1
                 	.ENDM
                 
                 	.MACRO __GETWRZ
                 	LDD  R@0,Z+@2
                 	LDD  R@1,Z+@2+1
                 	.ENDM
                 
                 	.MACRO __GETD2Z
                 	LDD  R26,Z+@0
                 	LDD  R27,Z+@0+1
                 	LDD  R24,Z+@0+2
                 	LDD  R25,Z+@0+3
                 	.ENDM
                 
                 	.MACRO __GETB2MN
                 	LDS  R26,@0+(@1)
                 	.ENDM
                 
                 	.MACRO __GETW2MN
                 	LDS  R26,@0+(@1)
                 	LDS  R27,@0+(@1)+1
                 	.ENDM
                 
                 	.MACRO __GETD2MN
                 	LDS  R26,@0+(@1)
                 	LDS  R27,@0+(@1)+1
                 	LDS  R24,@0+(@1)+2
                 	LDS  R25,@0+(@1)+3
                 	.ENDM
                 
                 	.MACRO __PUTB1MN
                 	STS  @0+(@1),R30
                 	.ENDM
                 
                 	.MACRO __PUTW1MN
                 	STS  @0+(@1),R30
                 	STS  @0+(@1)+1,R31
                 	.ENDM
                 
                 	.MACRO __PUTD1MN
                 	STS  @0+(@1),R30
                 	STS  @0+(@1)+1,R31
                 	STS  @0+(@1)+2,R22
                 	STS  @0+(@1)+3,R23
                 	.ENDM
                 
                 	.MACRO __PUTB1EN
                 	LDI  R26,LOW(@0+(@1))
                 	LDI  R27,HIGH(@0+(@1))
                 	CALL __EEPROMWRB
                 	.ENDM
                 
                 	.MACRO __PUTW1EN
                 	LDI  R26,LOW(@0+(@1))
                 	LDI  R27,HIGH(@0+(@1))
                 	CALL __EEPROMWRW
                 	.ENDM
                 
                 	.MACRO __PUTD1EN
                 	LDI  R26,LOW(@0+(@1))
                 	LDI  R27,HIGH(@0+(@1))
                 	CALL __EEPROMWRD
                 	.ENDM
                 
                 	.MACRO __PUTBR0MN
                 	STS  @0+(@1),R0
                 	.ENDM
                 
                 	.MACRO __PUTBMRN
                 	STS  @0+(@1),R@2
                 	.ENDM
                 
                 	.MACRO __PUTWMRN
                 	STS  @0+(@1),R@2
                 	STS  @0+(@1)+1,R@3
                 	.ENDM
                 
                 	.MACRO __PUTBZR
                 	STD  Z+@1,R@0
                 	.ENDM
                 
                 	.MACRO __PUTWZR
                 	STD  Z+@2,R@0
                 	STD  Z+@2+1,R@1
                 	.ENDM
                 
                 	.MACRO __GETW1R
                 	MOV  R30,R@0
                 	MOV  R31,R@1
                 	.ENDM
                 
                 	.MACRO __GETW2R
                 	MOV  R26,R@0
                 	MOV  R27,R@1
                 	.ENDM
                 
                 	.MACRO __GETWRN
                 	LDI  R@0,LOW(@2)
                 	LDI  R@1,HIGH(@2)
                 	.ENDM
                 
                 	.MACRO __PUTW1R
                 	MOV  R@0,R30
                 	MOV  R@1,R31
                 	.ENDM
                 
                 	.MACRO __PUTW2R
                 	MOV  R@0,R26
                 	MOV  R@1,R27
                 	.ENDM
                 
                 	.MACRO __ADDWRN
                 	SUBI R@0,LOW(-@2)
                 	SBCI R@1,HIGH(-@2)
                 	.ENDM
                 
                 	.MACRO __ADDWRR
                 	ADD  R@0,R@2
                 	ADC  R@1,R@3
                 	.ENDM
                 
                 	.MACRO __SUBWRN
                 	SUBI R@0,LOW(@2)
                 	SBCI R@1,HIGH(@2)
                 	.ENDM
                 
                 	.MACRO __SUBWRR
                 	SUB  R@0,R@2
                 	SBC  R@1,R@3
                 	.ENDM
                 
                 	.MACRO __ANDWRN
                 	ANDI R@0,LOW(@2)
                 	ANDI R@1,HIGH(@2)
                 	.ENDM
                 
                 	.MACRO __ANDWRR
                 	AND  R@0,R@2
                 	AND  R@1,R@3
                 	.ENDM
                 
                 	.MACRO __ORWRN
                 	ORI  R@0,LOW(@2)
                 	ORI  R@1,HIGH(@2)
                 	.ENDM
                 
                 	.MACRO __ORWRR
                 	OR   R@0,R@2
                 	OR   R@1,R@3
                 	.ENDM
                 
                 	.MACRO __EORWRR
                 	EOR  R@0,R@2
                 	EOR  R@1,R@3
                 	.ENDM
                 
                 	.MACRO __GETWRS
                 	LDD  R@0,Y+@2
                 	LDD  R@1,Y+@2+1
                 	.ENDM
                 
                 	.MACRO __PUTBSR
                 	STD  Y+@1,R@0
                 	.ENDM
                 
                 	.MACRO __PUTWSR
                 	STD  Y+@2,R@0
                 	STD  Y+@2+1,R@1
                 	.ENDM
                 
                 	.MACRO __MOVEWRR
                 	MOV  R@0,R@2
                 	MOV  R@1,R@3
                 	.ENDM
                 
                 	.MACRO __INWR
                 	IN   R@0,@2
                 	IN   R@1,@2+1
                 	.ENDM
                 
                 	.MACRO __OUTWR
                 	OUT  @2+1,R@1
                 	OUT  @2,R@0
                 	.ENDM
                 
                 	.MACRO __CALL1MN
                 	LDS  R30,@0+(@1)
                 	LDS  R31,@0+(@1)+1
                 	ICALL
                 	.ENDM
                 
                 	.MACRO __CALL1FN
                 	LDI  R30,LOW(2*@0+(@1))
                 	LDI  R31,HIGH(2*@0+(@1))
                 	CALL __GETW1PF
                 	ICALL
                 	.ENDM
                 
                 	.MACRO __CALL2EN
                 	LDI  R26,LOW(@0+(@1))
                 	LDI  R27,HIGH(@0+(@1))
                 	CALL __EEPROMRDW
                 	ICALL
                 	.ENDM
                 
                 	.MACRO __GETW1STACK
                 	IN   R26,SPL
                 	IN   R27,SPH
                 	ADIW R26,@0+1
                 	LD   R30,X+
                 	LD   R31,X
                 	.ENDM
                 
                 	.MACRO __GETD1STACK
                 	IN   R26,SPL
                 	IN   R27,SPH
                 	ADIW R26,@0+1
                 	LD   R30,X+
                 	LD   R31,X+
                 	LD   R22,X
                 	.ENDM
                 
                 	.MACRO __NBST
                 	BST  R@0,@1
                 	IN   R30,SREG
                 	LDI  R31,0x40
                 	EOR  R30,R31
                 	OUT  SREG,R30
                 	.ENDM
                 
                 
                 	.MACRO __PUTB1SN
                 	LDD  R26,Y+@0
                 	LDD  R27,Y+@0+1
                 	SUBI R26,LOW(-@1)
                 	SBCI R27,HIGH(-@1)
                 	ST   X,R30
                 	.ENDM
                 
                 	.MACRO __PUTW1SN
                 	LDD  R26,Y+@0
                 	LDD  R27,Y+@0+1
                 	SUBI R26,LOW(-@1)
                 	SBCI R27,HIGH(-@1)
                 	ST   X+,R30
                 	ST   X,R31
                 	.ENDM
                 
                 	.MACRO __PUTD1SN
                 	LDD  R26,Y+@0
                 	LDD  R27,Y+@0+1
                 	SUBI R26,LOW(-@1)
                 	SBCI R27,HIGH(-@1)
                 	CALL __PUTDP1
                 	.ENDM
                 
                 	.MACRO __PUTB1SNS
                 	LDD  R26,Y+@0
                 	LDD  R27,Y+@0+1
                 	ADIW R26,@1
                 	ST   X,R30
                 	.ENDM
                 
                 	.MACRO __PUTW1SNS
                 	LDD  R26,Y+@0
                 	LDD  R27,Y+@0+1
                 	ADIW R26,@1
                 	ST   X+,R30
                 	ST   X,R31
                 	.ENDM
                 
                 	.MACRO __PUTD1SNS
                 	LDD  R26,Y+@0
                 	LDD  R27,Y+@0+1
                 	ADIW R26,@1
                 	CALL __PUTDP1
                 	.ENDM
                 
                 	.MACRO __PUTB1PMN
                 	LDS  R26,@0
                 	LDS  R27,@0+1
                 	SUBI R26,LOW(-@1)
                 	SBCI R27,HIGH(-@1)
                 	ST   X,R30
                 	.ENDM
                 
                 	.MACRO __PUTW1PMN
                 	LDS  R26,@0
                 	LDS  R27,@0+1
                 	SUBI R26,LOW(-@1)
                 	SBCI R27,HIGH(-@1)
                 	ST   X+,R30
                 	ST   X,R31
                 	.ENDM
                 
                 	.MACRO __PUTD1PMN
                 	LDS  R26,@0
                 	LDS  R27,@0+1
                 	SUBI R26,LOW(-@1)
                 	SBCI R27,HIGH(-@1)
                 	CALL __PUTDP1
                 	.ENDM
                 
                 	.MACRO __PUTB1PMNS
                 	LDS  R26,@0
                 	LDS  R27,@0+1
                 	ADIW R26,@1
                 	ST   X,R30
                 	.ENDM
                 
                 	.MACRO __PUTW1PMNS
                 	LDS  R26,@0
                 	LDS  R27,@0+1
                 	ADIW R26,@1
                 	ST   X+,R30
                 	ST   X,R31
                 	.ENDM
                 
                 	.MACRO __PUTD1PMNS
                 	LDS  R26,@0
                 	LDS  R27,@0+1
                 	ADIW R26,@1
                 	CALL __PUTDP1
                 	.ENDM
                 
                 	.MACRO __PUTB1RN
                 	MOVW R26,R@0
                 	SUBI R26,LOW(-@1)
                 	SBCI R27,HIGH(-@1)
                 	ST   X,R30
                 	.ENDM
                 
                 	.MACRO __PUTW1RN
                 	MOVW R26,R@0
                 	SUBI R26,LOW(-@1)
                 	SBCI R27,HIGH(-@1)
                 	ST   X+,R30
                 	ST   X,R31
                 	.ENDM
                 
                 	.MACRO __PUTD1RN
                 	MOVW R26,R@0
                 	SUBI R26,LOW(-@1)
                 	SBCI R27,HIGH(-@1)
                 	CALL __PUTDP1
                 	.ENDM
                 
                 	.MACRO __PUTB1RNS
                 	MOVW R26,R@0
                 	ADIW R26,@1
                 	ST   X,R30
                 	.ENDM
                 
                 	.MACRO __PUTW1RNS
                 	MOVW R26,R@0
                 	ADIW R26,@1
                 	ST   X+,R30
                 	ST   X,R31
                 	.ENDM
                 
                 	.MACRO __PUTD1RNS
                 	MOVW R26,R@0
                 	ADIW R26,@1
                 	CALL __PUTDP1
                 	.ENDM
                 
                 	.MACRO __PUTB1RON
                 	MOV  R26,R@0
                 	MOV  R27,R@1
                 	SUBI R26,LOW(-@2)
                 	SBCI R27,HIGH(-@2)
                 	ST   X,R30
                 	.ENDM
                 
                 	.MACRO __PUTW1RON
                 	MOV  R26,R@0
                 	MOV  R27,R@1
                 	SUBI R26,LOW(-@2)
                 	SBCI R27,HIGH(-@2)
                 	ST   X+,R30
                 	ST   X,R31
                 	.ENDM
                 
                 	.MACRO __PUTD1RON
                 	MOV  R26,R@0
                 	MOV  R27,R@1
                 	SUBI R26,LOW(-@2)
                 	SBCI R27,HIGH(-@2)
                 	CALL __PUTDP1
                 	.ENDM
                 
                 	.MACRO __PUTB1RONS
                 	MOV  R26,R@0
                 	MOV  R27,R@1
                 	ADIW R26,@2
                 	ST   X,R30
                 	.ENDM
                 
                 	.MACRO __PUTW1RONS
                 	MOV  R26,R@0
                 	MOV  R27,R@1
                 	ADIW R26,@2
                 	ST   X+,R30
                 	ST   X,R31
                 	.ENDM
                 
                 	.MACRO __PUTD1RONS
                 	MOV  R26,R@0
                 	MOV  R27,R@1
                 	ADIW R26,@2
                 	CALL __PUTDP1
                 	.ENDM
                 
                 
                 	.MACRO __GETB1SX
                 	MOVW R30,R28
                 	SUBI R30,LOW(-@0)
                 	SBCI R31,HIGH(-@0)
                 	LD   R30,Z
                 	.ENDM
                 
                 	.MACRO __GETB1HSX
                 	MOVW R30,R28
                 	SUBI R30,LOW(-@0)
                 	SBCI R31,HIGH(-@0)
                 	LD   R31,Z
                 	.ENDM
                 
                 	.MACRO __GETW1SX
                 	MOVW R30,R28
                 	SUBI R30,LOW(-@0)
                 	SBCI R31,HIGH(-@0)
                 	LD   R0,Z+
                 	LD   R31,Z
                 	MOV  R30,R0
                 	.ENDM
                 
                 	.MACRO __GETD1SX
                 	MOVW R30,R28
                 	SUBI R30,LOW(-@0)
                 	SBCI R31,HIGH(-@0)
                 	LD   R0,Z+
                 	LD   R1,Z+
                 	LD   R22,Z+
                 	LD   R23,Z
                 	MOVW R30,R0
                 	.ENDM
                 
                 	.MACRO __GETB2SX
                 	MOVW R26,R28
                 	SUBI R26,LOW(-@0)
                 	SBCI R27,HIGH(-@0)
                 	LD   R26,X
                 	.ENDM
                 
                 	.MACRO __GETW2SX
                 	MOVW R26,R28
                 	SUBI R26,LOW(-@0)
                 	SBCI R27,HIGH(-@0)
                 	LD   R0,X+
                 	LD   R27,X
                 	MOV  R26,R0
                 	.ENDM
                 
                 	.MACRO __GETD2SX
                 	MOVW R26,R28
                 	SUBI R26,LOW(-@0)
                 	SBCI R27,HIGH(-@0)
                 	LD   R0,X+
                 	LD   R1,X+
                 	LD   R24,X+
                 	LD   R25,X
                 	MOVW R26,R0
                 	.ENDM
                 
                 	.MACRO __GETBRSX
                 	MOVW R30,R28
                 	SUBI R30,LOW(-@1)
                 	SBCI R31,HIGH(-@1)
                 	LD   R@0,Z
                 	.ENDM
                 
                 	.MACRO __GETWRSX
                 	MOVW R30,R28
                 	SUBI R30,LOW(-@2)
                 	SBCI R31,HIGH(-@2)
                 	LD   R@0,Z+
                 	LD   R@1,Z
                 	.ENDM
                 
                 	.MACRO __GETBRSX2
                 	MOVW R26,R28
                 	SUBI R26,LOW(-@1)
                 	SBCI R27,HIGH(-@1)
                 	LD   R@0,X
                 	.ENDM
                 
                 	.MACRO __GETWRSX2
                 	MOVW R26,R28
                 	SUBI R26,LOW(-@2)
                 	SBCI R27,HIGH(-@2)
                 	LD   R@0,X+
                 	LD   R@1,X
                 	.ENDM
                 
                 	.MACRO __LSLW8SX
                 	MOVW R30,R28
                 	SUBI R30,LOW(-@0)
                 	SBCI R31,HIGH(-@0)
                 	LD   R31,Z
                 	CLR  R30
                 	.ENDM
                 
                 	.MACRO __PUTB1SX
                 	MOVW R26,R28
                 	SUBI R26,LOW(-@0)
                 	SBCI R27,HIGH(-@0)
                 	ST   X,R30
                 	.ENDM
                 
                 	.MACRO __PUTW1SX
                 	MOVW R26,R28
                 	SUBI R26,LOW(-@0)
                 	SBCI R27,HIGH(-@0)
                 	ST   X+,R30
                 	ST   X,R31
                 	.ENDM
                 
                 	.MACRO __PUTD1SX
                 	MOVW R26,R28
                 	SUBI R26,LOW(-@0)
                 	SBCI R27,HIGH(-@0)
                 	ST   X+,R30
                 	ST   X+,R31
                 	ST   X+,R22
                 	ST   X,R23
                 	.ENDM
                 
                 	.MACRO __CLRW1SX
                 	MOVW R26,R28
                 	SUBI R26,LOW(-@0)
                 	SBCI R27,HIGH(-@0)
                 	ST   X+,R30
                 	ST   X,R30
                 	.ENDM
                 
                 	.MACRO __CLRD1SX
                 	MOVW R26,R28
                 	SUBI R26,LOW(-@0)
                 	SBCI R27,HIGH(-@0)
                 	ST   X+,R30
                 	ST   X+,R30
                 	ST   X+,R30
                 	ST   X,R30
                 	.ENDM
                 
                 	.MACRO __PUTB2SX
                 	MOVW R30,R28
                 	SUBI R30,LOW(-@0)
                 	SBCI R31,HIGH(-@0)
                 	ST   Z,R26
                 	.ENDM
                 
                 	.MACRO __PUTW2SX
                 	MOVW R30,R28
                 	SUBI R30,LOW(-@0)
                 	SBCI R31,HIGH(-@0)
                 	ST   Z+,R26
                 	ST   Z,R27
                 	.ENDM
                 
                 	.MACRO __PUTD2SX
                 	MOVW R30,R28
                 	SUBI R30,LOW(-@0)
                 	SBCI R31,HIGH(-@0)
                 	ST   Z+,R26
                 	ST   Z+,R27
                 	ST   Z+,R24
                 	ST   Z,R25
                 	.ENDM
                 
                 	.MACRO __PUTBSRX
                 	MOVW R30,R28
                 	SUBI R30,LOW(-@1)
                 	SBCI R31,HIGH(-@1)
                 	ST   Z,R@0
                 	.ENDM
                 
                 	.MACRO __PUTWSRX
                 	MOVW R30,R28
                 	SUBI R30,LOW(-@2)
                 	SBCI R31,HIGH(-@2)
                 	ST   Z+,R@0
                 	ST   Z,R@1
                 	.ENDM
                 
                 	.MACRO __PUTB1SNX
                 	MOVW R26,R28
                 	SUBI R26,LOW(-@0)
                 	SBCI R27,HIGH(-@0)
                 	LD   R0,X+
                 	LD   R27,X
                 	MOV  R26,R0
                 	SUBI R26,LOW(-@1)
                 	SBCI R27,HIGH(-@1)
                 	ST   X,R30
                 	.ENDM
                 
                 	.MACRO __PUTW1SNX
                 	MOVW R26,R28
                 	SUBI R26,LOW(-@0)
                 	SBCI R27,HIGH(-@0)
                 	LD   R0,X+
                 	LD   R27,X
                 	MOV  R26,R0
                 	SUBI R26,LOW(-@1)
                 	SBCI R27,HIGH(-@1)
                 	ST   X+,R30
                 	ST   X,R31
                 	.ENDM
                 
                 	.MACRO __PUTD1SNX
                 	MOVW R26,R28
                 	SUBI R26,LOW(-@0)
                 	SBCI R27,HIGH(-@0)
                 	LD   R0,X+
                 	LD   R27,X
                 	MOV  R26,R0
                 	SUBI R26,LOW(-@1)
                 	SBCI R27,HIGH(-@1)
                 	ST   X+,R30
                 	ST   X+,R31
                 	ST   X+,R22
                 	ST   X,R23
                 	.ENDM
                 
                 	.MACRO __MULBRR
                 	MULS R@0,R@1
                 	MOVW R30,R0
                 	.ENDM
                 
                 	.MACRO __MULBRRU
                 	MUL  R@0,R@1
                 	MOVW R30,R0
                 	.ENDM
                 
                 	.MACRO __MULBRR0
                 	MULS R@0,R@1
                 	.ENDM
                 
                 	.MACRO __MULBRRU0
                 	MUL  R@0,R@1
                 	.ENDM
                 
                 	.MACRO __MULBNWRU
                 	LDI  R26,@2
                 	MUL  R26,R@0
                 	MOVW R30,R0
                 	MUL  R26,R@1
                 	ADD  R31,R0
                 	.ENDM
                 
                 ;NAME DEFINITIONS FOR GLOBAL VARIABLES ALLOCATED TO REGISTERS
                 	.DEF _flagtancong=R4
                 	.DEF _offsetphongthu=R6
                 	.DEF _goctancong=R8
                 	.DEF _cmdCtrlRobot=R10
                 	.DEF _idRobot=R12
                 
                 	.CSEG
                 	.ORG 0x00
                 
                 ;START OF CODE MARKER
                 __START_OF_CODE:
                 
                 ;INTERRUPT VECTORS
000000 940c 0281 	JMP  __RESET
000002 940c 069f 	JMP  _ext_int0_isr
000004 940c 06a4 	JMP  _ext_int1_isr
000006 940c 0000 	JMP  0x00
000008 940c 1112 	JMP  _timer2_comp_isr
00000a 940c 0000 	JMP  0x00
00000c 940c 0000 	JMP  0x00
00000e 940c 0000 	JMP  0x00
000010 940c 0000 	JMP  0x00
000012 940c 07c1 	JMP  _timer1_ovf_isr
000014 940c 0000 	JMP  0x00
000016 940c 0000 	JMP  0x00
000018 940c 0000 	JMP  0x00
00001a 940c 0605 	JMP  _usart_rx_isr
00001c 940c 0000 	JMP  0x00
00001e 940c 064d 	JMP  _usart_tx_isr
000020 940c 0000 	JMP  0x00
000022 940c 0000 	JMP  0x00
000024 940c 0000 	JMP  0x00
000026 940c 0000 	JMP  0x00
000028 940c 0000 	JMP  0x00
                 
                 _ASCII:
00002a 0000
00002b 0000
00002c 0000
00002d 5f00      	.DB  0x0,0x0,0x0,0x0,0x0,0x0,0x0,0x5F
00002e 0000
00002f 0700
000030 0700
000031 1400      	.DB  0x0,0x0,0x0,0x7,0x0,0x7,0x0,0x14
000032 147f
000033 147f
000034 2a24
000035 2a7f      	.DB  0x7F,0x14,0x7F,0x14,0x24,0x2A,0x7F,0x2A
000036 2312
000037 0813
000038 6264
000039 4936      	.DB  0x12,0x23,0x13,0x8,0x64,0x62,0x36,0x49
00003a 2255
00003b 0050
00003c 0305
00003d 0000      	.DB  0x55,0x22,0x50,0x0,0x5,0x3,0x0,0x0
00003e 1c00
00003f 4122
000040 0000
000041 2241      	.DB  0x0,0x1C,0x22,0x41,0x0,0x0,0x41,0x22
000042 001c
000043 0814
000044 083e
000045 0814      	.DB  0x1C,0x0,0x14,0x8,0x3E,0x8,0x14,0x8
000046 3e08
000047 0808
000048 5000
000049 0030      	.DB  0x8,0x3E,0x8,0x8,0x0,0x50,0x30,0x0
00004a 0800
00004b 0808
00004c 0808
00004d 6000      	.DB  0x0,0x8,0x8,0x8,0x8,0x8,0x0,0x60
00004e 0060
00004f 2000
000050 0810
000051 0204      	.DB  0x60,0x0,0x0,0x20,0x10,0x8,0x4,0x2
000052 513e
000053 4549
000054 003e
000055 7f42      	.DB  0x3E,0x51,0x49,0x45,0x3E,0x0,0x42,0x7F
000056 0040
000057 6142
000058 4951
000059 2146      	.DB  0x40,0x0,0x42,0x61,0x51,0x49,0x46,0x21
00005a 4541
00005b 314b
00005c 1418
00005d 7f12      	.DB  0x41,0x45,0x4B,0x31,0x18,0x14,0x12,0x7F
00005e 2710
00005f 4545
000060 3945
000061 4a3c      	.DB  0x10,0x27,0x45,0x45,0x45,0x39,0x3C,0x4A
000062 4949
000063 0130
000064 0971
000065 0305      	.DB  0x49,0x49,0x30,0x1,0x71,0x9,0x5,0x3
000066 4936
000067 4949
000068 0636
000069 4949      	.DB  0x36,0x49,0x49,0x49,0x36,0x6,0x49,0x49
00006a 1e29
00006b 3600
00006c 0036
00006d 0000      	.DB  0x29,0x1E,0x0,0x36,0x36,0x0,0x0,0x0
00006e 3656
00006f 0000
000070 1408
000071 4122      	.DB  0x56,0x36,0x0,0x0,0x8,0x14,0x22,0x41
000072 1400
000073 1414
000074 1414
000075 4100      	.DB  0x0,0x14,0x14,0x14,0x14,0x14,0x0,0x41
000076 1422
000077 0208
000078 5101
000079 0609      	.DB  0x22,0x14,0x8,0x2,0x1,0x51,0x9,0x6
00007a 4932
00007b 4179
00007c 7e3e
00007d 1111      	.DB  0x32,0x49,0x79,0x41,0x3E,0x7E,0x11,0x11
00007e 7e11
00007f 497f
000080 4949
000081 3e36      	.DB  0x11,0x7E,0x7F,0x49,0x49,0x49,0x36,0x3E
000082 4141
000083 2241
000084 417f
000085 2241      	.DB  0x41,0x41,0x41,0x22,0x7F,0x41,0x41,0x22
000086 7f1c
000087 4949
000088 4149
000089 097f      	.DB  0x1C,0x7F,0x49,0x49,0x49,0x41,0x7F,0x9
00008a 0909
00008b 3e01
00008c 4941
00008d 7a49      	.DB  0x9,0x9,0x1,0x3E,0x41,0x49,0x49,0x7A
00008e 087f
00008f 0808
000090 007f
000091 7f41      	.DB  0x7F,0x8,0x8,0x8,0x7F,0x0,0x41,0x7F
000092 0041
000093 4020
000094 3f41
000095 7f01      	.DB  0x41,0x0,0x20,0x40,0x41,0x3F,0x1,0x7F
000096 1408
000097 4122
000098 407f
000099 4040      	.DB  0x8,0x14,0x22,0x41,0x7F,0x40,0x40,0x40
00009a 7f40
00009b 0c02
00009c 7f02
00009d 047f      	.DB  0x40,0x7F,0x2,0xC,0x2,0x7F,0x7F,0x4
00009e 1008
00009f 3e7f
0000a0 4141
0000a1 3e41      	.DB  0x8,0x10,0x7F,0x3E,0x41,0x41,0x41,0x3E
0000a2 097f
0000a3 0909
0000a4 3e06
0000a5 5141      	.DB  0x7F,0x9,0x9,0x9,0x6,0x3E,0x41,0x51
0000a6 5e21
0000a7 097f
0000a8 2919
0000a9 4646      	.DB  0x21,0x5E,0x7F,0x9,0x19,0x29,0x46,0x46
0000aa 4949
0000ab 3149
0000ac 0101
0000ad 017f      	.DB  0x49,0x49,0x49,0x31,0x1,0x1,0x7F,0x1
0000ae 3f01
0000af 4040
0000b0 3f40
0000b1 201f      	.DB  0x1,0x3F,0x40,0x40,0x40,0x3F,0x1F,0x20
0000b2 2040
0000b3 3f1f
0000b4 3840
0000b5 3f40      	.DB  0x40,0x20,0x1F,0x3F,0x40,0x38,0x40,0x3F
0000b6 1463
0000b7 1408
0000b8 0763
0000b9 7008      	.DB  0x63,0x14,0x8,0x14,0x63,0x7,0x8,0x70
0000ba 0708
0000bb 5161
0000bc 4549
0000bd 0043      	.DB  0x8,0x7,0x61,0x51,0x49,0x45,0x43,0x0
0000be 417f
0000bf 0041
0000c0 0402
0000c1 1008      	.DB  0x7F,0x41,0x41,0x0,0x2,0x4,0x8,0x10
0000c2 0020
0000c3 4141
0000c4 007f
0000c5 0204      	.DB  0x20,0x0,0x41,0x41,0x7F,0x0,0x4,0x2
0000c6 0201
0000c7 4004
0000c8 4040
0000c9 4040      	.DB  0x1,0x2,0x4,0x40,0x40,0x40,0x40,0x40
0000ca 0100
0000cb 0402
0000cc 2000
0000cd 5454      	.DB  0x0,0x1,0x2,0x4,0x0,0x20,0x54,0x54
0000ce 7854
0000cf 487f
0000d0 4444
0000d1 3838      	.DB  0x54,0x78,0x7F,0x48,0x44,0x44,0x38,0x38
0000d2 4444
0000d3 2044
0000d4 4438
0000d5 4844      	.DB  0x44,0x44,0x44,0x20,0x38,0x44,0x44,0x48
0000d6 387f
0000d7 5454
0000d8 1854
0000d9 7e08      	.DB  0x7F,0x38,0x54,0x54,0x54,0x18,0x8,0x7E
0000da 0109
0000db 0c02
0000dc 5252
0000dd 3e52      	.DB  0x9,0x1,0x2,0xC,0x52,0x52,0x52,0x3E
0000de 087f
0000df 0404
0000e0 0078
0000e1 7d44      	.DB  0x7F,0x8,0x4,0x4,0x78,0x0,0x44,0x7D
0000e2 0040
0000e3 4020
0000e4 3d44
0000e5 7f00      	.DB  0x40,0x0,0x20,0x40,0x44,0x3D,0x0,0x7F
0000e6 2810
0000e7 0044
0000e8 4100
0000e9 407f      	.DB  0x10,0x28,0x44,0x0,0x0,0x41,0x7F,0x40
0000ea 7c00
0000eb 1804
0000ec 7804
0000ed 087c      	.DB  0x0,0x7C,0x4,0x18,0x4,0x78,0x7C,0x8
0000ee 0404
0000ef 3878
0000f0 4444
0000f1 3844      	.DB  0x4,0x4,0x78,0x38,0x44,0x44,0x44,0x38
0000f2 147c
0000f3 1414
0000f4 0808
0000f5 1414      	.DB  0x7C,0x14,0x14,0x14,0x8,0x8,0x14,0x14
0000f6 7c18
0000f7 087c
0000f8 0404
0000f9 4808      	.DB  0x18,0x7C,0x7C,0x8,0x4,0x4,0x8,0x48
0000fa 5454
0000fb 2054
0000fc 3f04
0000fd 4044      	.DB  0x54,0x54,0x54,0x20,0x4,0x3F,0x44,0x40
0000fe 3c20
0000ff 4040
000100 7c20
000101 201c      	.DB  0x20,0x3C,0x40,0x40,0x20,0x7C,0x1C,0x20
000102 2040
000103 3c1c
000104 3040
000105 3c40      	.DB  0x40,0x20,0x1C,0x3C,0x40,0x30,0x40,0x3C
000106 2844
000107 2810
000108 0c44
000109 5050      	.DB  0x44,0x28,0x10,0x28,0x44,0xC,0x50,0x50
00010a 3c50
00010b 6444
00010c 4c54
00010d 0044      	.DB  0x50,0x3C,0x44,0x64,0x54,0x4C,0x44,0x0
00010e 3608
00010f 0041
000110 0000
000111 007f      	.DB  0x8,0x36,0x41,0x0,0x0,0x0,0x7F,0x0
000112 0000
000113 3641
000114 0008
000115 0810      	.DB  0x0,0x0,0x41,0x36,0x8,0x0,0x10,0x8
000116 1008
000117 7808
000118 4146
000119 7846      	.DB  0x8,0x10,0x8,0x78,0x46,0x41,0x46,0x78
                 
                 ;REGISTER BIT VARIABLES INITIALIZATION
                 __REG_BIT_VARS:
00011a 0000      	.DW  0x0000
                 
                 _0x3:
00011b e7e7
00011c e7e7
C:\Users\AtM5\Documents\GitHub\Soccerbot\List\AK.asm(1160): warning: .cseg .db misalignment - padding zero byte
00011d 00e7      	.DB  0xE7,0xE7,0xE7,0xE7,0xE7
                 _0x4:
00011e e7e7
00011f e7e7
C:\Users\AtM5\Documents\GitHub\Soccerbot\List\AK.asm(1162): warning: .cseg .db misalignment - padding zero byte
000120 00e7      	.DB  0xE7,0xE7,0xE7,0xE7,0xE7
                 _0x20003:
C:\Users\AtM5\Documents\GitHub\Soccerbot\List\AK.asm(1164): warning: .cseg .db misalignment - padding zero byte
000121 0001      	.DB  0x1
                 _0x20004:
C:\Users\AtM5\Documents\GitHub\Soccerbot\List\AK.asm(1166): warning: .cseg .db misalignment - padding zero byte
000122 000a      	.DB  0xA
                 _0x20005:
C:\Users\AtM5\Documents\GitHub\Soccerbot\List\AK.asm(1168): warning: .cseg .db misalignment - padding zero byte
000123 0001      	.DB  0x1
                 _0x20006:
C:\Users\AtM5\Documents\GitHub\Soccerbot\List\AK.asm(1170): warning: .cseg .db misalignment - padding zero byte
000124 000a      	.DB  0xA
                 _0x20007:
C:\Users\AtM5\Documents\GitHub\Soccerbot\List\AK.asm(1172): warning: .cseg .db misalignment - padding zero byte
000125 0001      	.DB  0x1
                 _0x20047:
C:\Users\AtM5\Documents\GitHub\Soccerbot\List\AK.asm(1174): warning: .cseg .db misalignment - padding zero byte
000126 0001      	.DB  0x1
                 _0x201DA:
000127 0000
000128 0000
000129 0000
00012a 0000      	.DB  0x0,0x0,0x0,0x0,0x0,0x0,0x0,0x0
00012b 0000
00012c 0000
00012d 0000
00012e 0000      	.DB  0x0,0x0,0x0,0x0,0x0,0x0,0x0,0x0
00012f 0000
000130 0000
000131 0000
000132 0000      	.DB  0x0,0x0,0x0,0x0,0x0,0x0,0x0,0x0
000133 0000
000134 0000
000135 0000
000136 0000      	.DB  0x0,0x0,0x0,0x0,0x0,0x0,0x0,0x0
000137 0000
000138 0000
000139 0000
00013a 0000      	.DB  0x0,0x0,0x0,0x0,0x0,0x0,0x0,0x0
00013b 0000
00013c 0000
00013d 0000
00013e 0000      	.DB  0x0,0x0,0x0,0x0,0x0,0x0,0x0,0x0
00013f 0000
000140 0000
000141 0000
C:\Users\AtM5\Documents\GitHub\Soccerbot\List\AK.asm(1182): warning: .cseg .db misalignment - padding zero byte
000142 0000      	.DB  0x0,0x0,0x0,0x0,0x0,0x0,0x0
                 _0x20327:
000143 0001
000144 0000
000145 0000      	.DB  0x1,0x0,0x0,0x0,0x0,0x0
                 _0x20000:
000146 6425
000147 2500
000148 2e30
000149 6632      	.DB  0x25,0x64,0x0,0x25,0x30,0x2E,0x32,0x66
00014a 2000
00014b 413c
00014c 424b
00014d 544f      	.DB  0x0,0x20,0x3C,0x41,0x4B,0x42,0x4F,0x54
00014e 494b
00014f 3e54
000150 5200
000151 424f      	.DB  0x4B,0x49,0x54,0x3E,0x0,0x52,0x4F,0x42
000152 544f
000153 5720
000154 4c41
000155 004c      	.DB  0x4F,0x54,0x20,0x57,0x41,0x4C,0x4C,0x0
000156 4857
000157 5449
000158 2045
000159 494c      	.DB  0x57,0x48,0x49,0x54,0x45,0x20,0x4C,0x49
00015a 454e
00015b 4600
00015c 4c4f
00015d 574f      	.DB  0x4E,0x45,0x0,0x46,0x4F,0x4C,0x4F,0x57
00015e 5245
00015f 4200
000160 414c
000161 4b43      	.DB  0x45,0x52,0x0,0x42,0x4C,0x41,0x43,0x4B
000162 4c20
000163 4e49
000164 0045
000165 4c42      	.DB  0x20,0x4C,0x49,0x4E,0x45,0x0,0x42,0x4C
000166 4555
000167 4f54
000168 544f
000169 0048      	.DB  0x55,0x45,0x54,0x4F,0x4F,0x54,0x48,0x0
00016a 5244
00016b 5649
00016c 0045
00016d 4554      	.DB  0x44,0x52,0x49,0x56,0x45,0x0,0x54,0x45
00016e 5453
00016f 4d20
000170 544f
000171 524f      	.DB  0x53,0x54,0x20,0x4D,0x4F,0x54,0x4F,0x52
000172 4d00
000173 746f
000174 726f
000175 004c      	.DB  0x0,0x4D,0x6F,0x74,0x6F,0x72,0x4C,0x0
000176 6f4d
000177 6f74
000178 5272
000179 5400      	.DB  0x4D,0x6F,0x74,0x6F,0x72,0x52,0x0,0x54
00017a 5345
00017b 2054
00017c 4155
00017d 5452      	.DB  0x45,0x53,0x54,0x20,0x55,0x41,0x52,0x54
00017e 5400
00017f 5345
000180 2054
000181 5249      	.DB  0x0,0x54,0x45,0x53,0x54,0x20,0x49,0x52
000182 3000
000183 002e
000184 2e31
000185 3200      	.DB  0x0,0x30,0x2E,0x0,0x31,0x2E,0x0,0x32
000186 002e
000187 2e33
000188 3400
000189 002e      	.DB  0x2E,0x0,0x33,0x2E,0x0,0x34,0x2E,0x0
00018a 2e35
00018b 3600
00018c 002e
00018d 2e37      	.DB  0x35,0x2E,0x0,0x36,0x2E,0x0,0x37,0x2E
00018e 3c00
00018f 4553
000190 464c
000191 5420      	.DB  0x0,0x3C,0x53,0x45,0x4C,0x46,0x20,0x54
000192 5345
000193 3e54
000194 2a00
000195 2a2a      	.DB  0x45,0x53,0x54,0x3E,0x0,0x2A,0x2A,0x2A
000196 2a2a
000197 2a2a
000198 2a2a
000199 2a2a      	.DB  0x2A,0x2A,0x2A,0x2A,0x2A,0x2A,0x2A,0x2A
00019a 002a
00019b 4352
00019c 5320
00019d 5245      	.DB  0x2A,0x0,0x52,0x43,0x20,0x53,0x45,0x52
00019e 4f56
00019f 3100
0001a0 522e
0001a1 424f      	.DB  0x56,0x4F,0x0,0x31,0x2E,0x52,0x4F,0x42
0001a2 544f
0001a3 5720
0001a4 4c41
0001a5 004c      	.DB  0x4F,0x54,0x20,0x57,0x41,0x4C,0x4C,0x0
0001a6 2e32
0001a7 4c42
0001a8 4555
0001a9 4f54      	.DB  0x32,0x2E,0x42,0x4C,0x55,0x45,0x54,0x4F
0001aa 544f
0001ab 2048
0001ac 3300
0001ad 572e      	.DB  0x4F,0x54,0x48,0x20,0x0,0x33,0x2E,0x57
0001ae 4948
0001af 4554
0001b0 4c20
0001b1 4e49      	.DB  0x48,0x49,0x54,0x45,0x20,0x4C,0x49,0x4E
0001b2 0045
0001b3 2e34
0001b4 4c42
0001b5 4341      	.DB  0x45,0x0,0x34,0x2E,0x42,0x4C,0x41,0x43
0001b6 204b
0001b7 494c
0001b8 454e
0001b9 3500      	.DB  0x4B,0x20,0x4C,0x49,0x4E,0x45,0x0,0x35
0001ba 542e
0001bb 5345
0001bc 2054
0001bd 4f4d      	.DB  0x2E,0x54,0x45,0x53,0x54,0x20,0x4D,0x4F
0001be 4f54
0001bf 0052
0001c0 2e36
0001c1 4554      	.DB  0x54,0x4F,0x52,0x0,0x36,0x2E,0x54,0x45
0001c2 5453
0001c3 4920
0001c4 2052
0001c5 2020      	.DB  0x53,0x54,0x20,0x49,0x52,0x20,0x20,0x20
0001c6 3700
0001c7 542e
0001c8 5345
0001c9 2054      	.DB  0x0,0x37,0x2E,0x54,0x45,0x53,0x54,0x20
0001ca 4652
0001cb 2020
0001cc 0020
0001cd 2e38      	.DB  0x52,0x46,0x20,0x20,0x20,0x0,0x38,0x2E
0001ce 4554
0001cf 5453
0001d0 5520
0001d1 5241      	.DB  0x54,0x45,0x53,0x54,0x20,0x55,0x41,0x52
0001d2 2054
0001d3 3900
0001d4 522e
0001d5 2043      	.DB  0x54,0x20,0x0,0x39,0x2E,0x52,0x43,0x20
0001d6 4553
0001d7 5652
0001d8 204f
0001d9 3100      	.DB  0x53,0x45,0x52,0x56,0x4F,0x20,0x0,0x31
0001da 2e30
0001db 5055
0001dc 4144
0001dd 4554      	.DB  0x30,0x2E,0x55,0x50,0x44,0x41,0x54,0x45
0001de 5220
0001df 0042
0001e0 414d
0001e1 4e49      	.DB  0x20,0x52,0x42,0x0,0x4D,0x41,0x49,0x4E
0001e2 5020
0001e3 4f52
0001e4 5247
0001e5 4d41      	.DB  0x20,0x50,0x52,0x4F,0x47,0x52,0x41,0x4D
C:\Users\AtM5\Documents\GitHub\Soccerbot\List\AK.asm(1226): warning: .cseg .db misalignment - padding zero byte
0001e6 0000      	.DB  0x0
                 _0x2040000:
0001e7 4e2d
0001e8 4e41
C:\Users\AtM5\Documents\GitHub\Soccerbot\List\AK.asm(1228): warning: .cseg .db misalignment - padding zero byte
0001e9 0000      	.DB  0x2D,0x4E,0x41,0x4E,0x0
                 _0x20A0060:
C:\Users\AtM5\Documents\GitHub\Soccerbot\List\AK.asm(1230): warning: .cseg .db misalignment - padding zero byte
0001ea 0001      	.DB  0x1
                 _0x20A0000:
0001eb 4e2d
0001ec 4e41
0001ed 4900
0001ee 464e      	.DB  0x2D,0x4E,0x41,0x4E,0x0,0x49,0x4E,0x46
C:\Users\AtM5\Documents\GitHub\Soccerbot\List\AK.asm(1233): warning: .cseg .db misalignment - padding zero byte
0001ef 0000      	.DB  0x0
                 
                 __GLOBAL_INI_TBL:
0001f0 0001      	.DW  0x01
0001f1 0002      	.DW  0x02
0001f2 0234      	.DW  __REG_BIT_VARS*2
                 
0001f3 0005      	.DW  0x05
0001f4 03c5      	.DW  _TX_ADDRESS
0001f5 0236      	.DW  _0x3*2
                 
0001f6 0005      	.DW  0x05
0001f7 03ca      	.DW  _RX_ADDRESS
0001f8 023c      	.DW  _0x4*2
                 
0001f9 0001      	.DW  0x01
0001fa 04bd      	.DW  _id
0001fb 0242      	.DW  _0x20003*2
                 
0001fc 0001      	.DW  0x01
0001fd 04e8      	.DW  _KpR
0001fe 0244      	.DW  _0x20004*2
                 
0001ff 0001      	.DW  0x01
000200 04ea      	.DW  _KiR
000201 0246      	.DW  _0x20005*2
                 
000202 0001      	.DW  0x01
000203 04ec      	.DW  _KpL
000204 0248      	.DW  _0x20006*2
                 
000205 0001      	.DW  0x01
000206 04ee      	.DW  _KiL
000207 024a      	.DW  _0x20007*2
                 
000208 000c      	.DW  0x0C
000209 0260      	.DW  _0x20083
00020a 0295      	.DW  _0x20000*2+9
                 
00020b 000b      	.DW  0x0B
00020c 026c      	.DW  _0x20193
00020d 02a1      	.DW  _0x20000*2+21
                 
00020e 000b      	.DW  0x0B
00020f 0277      	.DW  _0x201A8
000210 02ac      	.DW  _0x20000*2+32
                 
000211 0008      	.DW  0x08
000212 0282      	.DW  _0x201A8+11
000213 02b7      	.DW  _0x20000*2+43
                 
000214 000b      	.DW  0x0B
000215 028a      	.DW  _0x201DB
000216 02bf      	.DW  _0x20000*2+51
                 
000217 0008      	.DW  0x08
000218 0295      	.DW  _0x201DB+11
000219 02b7      	.DW  _0x20000*2+43
                 
00021a 000a      	.DW  0x0A
00021b 029d      	.DW  _0x20229
00021c 02ca      	.DW  _0x20000*2+62
                 
00021d 0006      	.DW  0x06
00021e 02a7      	.DW  _0x20229+10
00021f 02d4      	.DW  _0x20000*2+72
                 
000220 000b      	.DW  0x0B
000221 02ad      	.DW  _0x20240
000222 02da      	.DW  _0x20000*2+78
                 
000223 0007      	.DW  0x07
000224 02b8      	.DW  _0x20240+11
000225 02e5      	.DW  _0x20000*2+89
                 
000226 0007      	.DW  0x07
000227 02bf      	.DW  _0x20240+18
000228 02ec      	.DW  _0x20000*2+96
                 
000229 000a      	.DW  0x0A
00022a 02c6      	.DW  _0x20245
00022b 02f3      	.DW  _0x20000*2+103
                 
00022c 0008      	.DW  0x08
00022d 02d0      	.DW  _0x20246
00022e 02fd      	.DW  _0x20000*2+113
                 
00022f 0003      	.DW  0x03
000230 02d8      	.DW  _0x20246+8
000231 0305      	.DW  _0x20000*2+121
                 
000232 0003      	.DW  0x03
000233 02db      	.DW  _0x20246+11
000234 0308      	.DW  _0x20000*2+124
                 
000235 0003      	.DW  0x03
000236 02de      	.DW  _0x20246+14
000237 030b      	.DW  _0x20000*2+127
                 
000238 0003      	.DW  0x03
000239 02e1      	.DW  _0x20246+17
00023a 030e      	.DW  _0x20000*2+130
                 
00023b 0003      	.DW  0x03
00023c 02e4      	.DW  _0x20246+20
00023d 0311      	.DW  _0x20000*2+133
                 
00023e 0003      	.DW  0x03
00023f 02e7      	.DW  _0x20246+23
000240 0314      	.DW  _0x20000*2+136
                 
000241 0003      	.DW  0x03
000242 02ea      	.DW  _0x20246+26
000243 0317      	.DW  _0x20000*2+139
                 
000244 0003      	.DW  0x03
000245 02ed      	.DW  _0x20246+29
000246 031a      	.DW  _0x20000*2+142
                 
000247 000c      	.DW  0x0C
000248 02f0      	.DW  _0x2024A
000249 031d      	.DW  _0x20000*2+145
                 
00024a 000d      	.DW  0x0D
00024b 02fc      	.DW  _0x2024A+12
00024c 0329      	.DW  _0x20000*2+157
                 
00024d 0009      	.DW  0x09
00024e 0309      	.DW  _0x202B3
00024f 0336      	.DW  _0x20000*2+170
                 
000250 000d      	.DW  0x0D
000251 0312      	.DW  _0x202BF
000252 033f      	.DW  _0x20000*2+179
                 
000253 000d      	.DW  0x0D
000254 031f      	.DW  _0x202BF+13
000255 033f      	.DW  _0x20000*2+179
                 
000256 000d      	.DW  0x0D
000257 032c      	.DW  _0x202BF+26
000258 034c      	.DW  _0x20000*2+192
                 
000259 000d      	.DW  0x0D
00025a 0339      	.DW  _0x202BF+39
00025b 0359      	.DW  _0x20000*2+205
                 
00025c 000d      	.DW  0x0D
00025d 0346      	.DW  _0x202BF+52
00025e 0366      	.DW  _0x20000*2+218
                 
00025f 000d      	.DW  0x0D
000260 0353      	.DW  _0x202BF+65
000261 0373      	.DW  _0x20000*2+231
                 
000262 000d      	.DW  0x0D
000263 0360      	.DW  _0x202BF+78
000264 0380      	.DW  _0x20000*2+244
                 
000265 000d      	.DW  0x0D
000266 036d      	.DW  _0x202BF+91
000267 038d      	.DW  _0x20000*2+257
                 
000268 000d      	.DW  0x0D
000269 037a      	.DW  _0x202BF+104
00026a 039a      	.DW  _0x20000*2+270
                 
00026b 000c      	.DW  0x0C
00026c 0387      	.DW  _0x202BF+117
00026d 03a7      	.DW  _0x20000*2+283
                 
00026e 000d      	.DW  0x0D
00026f 0393      	.DW  _0x202BF+129
000270 03b3      	.DW  _0x20000*2+295
                 
000271 000b      	.DW  0x0B
000272 03a0      	.DW  _0x20300
000273 0296      	.DW  _0x20000*2+10
                 
000274 000d      	.DW  0x0D
000275 03ab      	.DW  _0x20300+11
000276 0329      	.DW  _0x20000*2+157
                 
000277 000d      	.DW  0x0D
000278 03b8      	.DW  _0x20300+24
000279 03c0      	.DW  _0x20000*2+308
                 
00027a 0006      	.DW  0x06
00027b 0004      	.DW  0x04
00027c 0286      	.DW  _0x20327*2
                 
00027d 0001      	.DW  0x01
00027e 0522      	.DW  __seed_G105
00027f 03d4      	.DW  _0x20A0060*2
                 
                 _0xFFFFFFFF:
000280 0000      	.DW  0
                 
                 __RESET:
000281 94f8      	CLI
000282 27ee      	CLR  R30
000283 bbec      	OUT  EECR,R30
                 
                 ;INTERRUPT VECTORS ARE PLACED
                 ;AT THE START OF FLASH
000284 e0f1      	LDI  R31,1
000285 bff5      	OUT  MCUCR,R31
000286 bfe5      	OUT  MCUCR,R30
                 
                 ;DISABLE WATCHDOG
000287 e1f8      	LDI  R31,0x18
000288 bdf1      	OUT  WDTCR,R31
000289 bde1      	OUT  WDTCR,R30
                 
                 ;CLEAR R2-R14
00028a e08d      	LDI  R24,(14-2)+1
00028b e0a2      	LDI  R26,2
00028c 27bb      	CLR  R27
                 __CLEAR_REG:
00028d 93ed      	ST   X+,R30
00028e 958a      	DEC  R24
00028f f7e9      	BRNE __CLEAR_REG
                 
                 ;CLEAR SRAM
000290 e080      	LDI  R24,LOW(__CLEAR_SRAM_SIZE)
000291 e098      	LDI  R25,HIGH(__CLEAR_SRAM_SIZE)
000292 e6a0      	LDI  R26,__SRAM_START
                 __CLEAR_SRAM:
000293 93ed      	ST   X+,R30
000294 9701      	SBIW R24,1
000295 f7e9      	BRNE __CLEAR_SRAM
                 
                 ;GLOBAL VARIABLES INITIALIZATION
000296 eee0      	LDI  R30,LOW(__GLOBAL_INI_TBL*2)
000297 e0f3      	LDI  R31,HIGH(__GLOBAL_INI_TBL*2)
                 __GLOBAL_INI_NEXT:
000298 9185      	LPM  R24,Z+
000299 9195      	LPM  R25,Z+
00029a 9700      	SBIW R24,0
00029b f061      	BREQ __GLOBAL_INI_END
00029c 91a5      	LPM  R26,Z+
00029d 91b5      	LPM  R27,Z+
00029e 9005      	LPM  R0,Z+
00029f 9015      	LPM  R1,Z+
0002a0 01bf      	MOVW R22,R30
0002a1 01f0      	MOVW R30,R0
                 __GLOBAL_INI_LOOP:
0002a2 9005      	LPM  R0,Z+
0002a3 920d      	ST   X+,R0
0002a4 9701      	SBIW R24,1
0002a5 f7e1      	BRNE __GLOBAL_INI_LOOP
0002a6 01fb      	MOVW R30,R22
0002a7 cff0      	RJMP __GLOBAL_INI_NEXT
                 __GLOBAL_INI_END:
                 
                 ;HARDWARE STACK POINTER INITIALIZATION
0002a8 e5ef      	LDI  R30,LOW(__SRAM_END-__HEAP_SIZE)
0002a9 bfed      	OUT  SPL,R30
0002aa e0e8      	LDI  R30,HIGH(__SRAM_END-__HEAP_SIZE)
0002ab bfee      	OUT  SPH,R30
                 
                 ;DATA STACK POINTER INITIALIZATION
0002ac e6c0      	LDI  R28,LOW(__SRAM_START+__DSTACK_SIZE)
0002ad e0d2      	LDI  R29,HIGH(__SRAM_START+__DSTACK_SIZE)
                 
0002ae 940c 11f1 	JMP  _main
                 
                 	.ESEG
                 	.ORG 0
                 
                 	.DSEG
                 	.ORG 0x260
                 
                 	.CSEG
                 ;#include <mega32a.h>
                 	#ifndef __SLEEP_DEFINED__
                 	#define __SLEEP_DEFINED__
                 	.EQU __se_bit=0x80
                 	.EQU __sm_mask=0x70
                 	.EQU __sm_powerdown=0x20
                 	.EQU __sm_powersave=0x30
                 	.EQU __sm_standby=0x60
                 	.EQU __sm_ext_standby=0x70
                 	.EQU __sm_adc_noise_red=0x10
                 	.SET power_ctrl_reg=mcucr
                 	#endif
                 ;#include <string.h>
                 ;#include <nRF24L01/nRF24L01.h>
                 ;#include <delay.h>
                 ;#include <spi.h>
                 ;
                 ;#define CSN    PORTC.2
                 ;#define CE     PORTC.3
                 ;#define SCK    PORTB.7
                 ;#define MISO   PINB.6
                 ;#define MOSI   PORTB.5
                 ;//********************************************************************************
                 ;//unsigned char const TX_ADDRESS[TX_ADR_WIDTH]= {0x34,0x43,0x10,0x10,0x01};	//
                 ;//unsigned char const RX_ADDRESS[RX_ADR_WIDTH]= {0x34,0x43,0x10,0x10,0x01};	//
                 ;unsigned char const TX_ADDRESS[TX_ADR_WIDTH]= {0xE7,0xE7,0xE7,0xE7,0xE7};	// dia chi phat du lieu
                 
                 	.DSEG
                 ;unsigned char const RX_ADDRESS[RX_ADR_WIDTH]= {0xE7,0xE7,0xE7,0xE7,0xE7};	// dia chi nhan du lieu
                 ;//****************************************************************************************
                 ;//*NRF24L01
                 ;//***************************************************************************************/
                 ;void init_NRF24L01(void)
                 ; 0000 0015 {
                 
                 	.CSEG
                 _init_NRF24L01:
                 ; 0000 0016     //init SPI
                 ; 0000 0017     SPCR=0x51; //set this to 0x50 for 1 mbits
0002b0 e5e1      	LDI  R30,LOW(81)
0002b1 b9ed      	OUT  0xD,R30
                 ; 0000 0018     SPSR=0x00;
0002b2 e0e0      	LDI  R30,LOW(0)
0002b3 b9ee      	OUT  0xE,R30
                 ; 0000 0019 
                 ; 0000 001A     //inerDelay_us(100);
                 ; 0000 001B     delay_us(100);
                +
0002b4 ec88     +LDI R24 , LOW ( 200 )
0002b5 e090     +LDI R25 , HIGH ( 200 )
                +__DELAY_USW_LOOP :
0002b6 9701     +SBIW R24 , 1
0002b7 f7f1     +BRNE __DELAY_USW_LOOP
                 	__DELAY_USW 200
                 ; 0000 001C  	CE=0;    // chip enable
0002b8 98ab      	CBI  0x15,3
                 ; 0000 001D  	CSN=1;   // Spi disable
0002b9 9aaa      	SBI  0x15,2
                 ; 0000 001E  	//SCK=0;   // Spi clock line init high
                 ; 0000 001F 	SPI_Write_Buf(WRITE_REG + TX_ADDR, TX_ADDRESS, TX_ADR_WIDTH);    //
0002ba e3e0      	LDI  R30,LOW(48)
0002bb 93ea      	ST   -Y,R30
0002bc ece5      	LDI  R30,LOW(_TX_ADDRESS)
0002bd e0f3      	LDI  R31,HIGH(_TX_ADDRESS)
0002be 940e 147e 	CALL SUBOPT_0x0
                 ; 0000 0020 	SPI_Write_Buf(WRITE_REG + RX_ADDR_P0, RX_ADDRESS, RX_ADR_WIDTH); //
0002c0 e2ea      	LDI  R30,LOW(42)
0002c1 93ea      	ST   -Y,R30
0002c2 ecea      	LDI  R30,LOW(_RX_ADDRESS)
0002c3 e0f3      	LDI  R31,HIGH(_RX_ADDRESS)
0002c4 940e 147e 	CALL SUBOPT_0x0
                 ; 0000 0021 	SPI_RW_Reg(WRITE_REG + EN_AA, 0x00);      // EN P0, 2-->P1
0002c6 e2e1      	LDI  R30,LOW(33)
0002c7 93ea      	ST   -Y,R30
0002c8 e0e0      	LDI  R30,LOW(0)
0002c9 93ea      	ST   -Y,R30
0002ca d02c      	RCALL _SPI_RW_Reg
                 ; 0000 0022 	SPI_RW_Reg(WRITE_REG + EN_RXADDR, 0x01);  //Enable data P0
0002cb e2e2      	LDI  R30,LOW(34)
0002cc 93ea      	ST   -Y,R30
0002cd e0e1      	LDI  R30,LOW(1)
0002ce 93ea      	ST   -Y,R30
0002cf d027      	RCALL _SPI_RW_Reg
                 ; 0000 0023 	SPI_RW_Reg(WRITE_REG + RF_CH, 2);        // Chanel 0 RF = 2400 + RF_CH* (1or 2 M)
0002d0 e2e5      	LDI  R30,LOW(37)
0002d1 93ea      	ST   -Y,R30
0002d2 e0e2      	LDI  R30,LOW(2)
0002d3 93ea      	ST   -Y,R30
0002d4 d022      	RCALL _SPI_RW_Reg
                 ; 0000 0024 	SPI_RW_Reg(WRITE_REG + RX_PW_P0, RX_PLOAD_WIDTH); // Do rong data truyen 32 byte
0002d5 e3e1      	LDI  R30,LOW(49)
0002d6 93ea      	ST   -Y,R30
0002d7 e2e0      	LDI  R30,LOW(32)
0002d8 93ea      	ST   -Y,R30
0002d9 d01d      	RCALL _SPI_RW_Reg
                 ; 0000 0025 	SPI_RW_Reg(WRITE_REG + RF_SETUP, 0x07);   		// 1M, 0dbm
0002da e2e6      	LDI  R30,LOW(38)
0002db 93ea      	ST   -Y,R30
0002dc e0e7      	LDI  R30,LOW(7)
0002dd 93ea      	ST   -Y,R30
0002de d018      	RCALL _SPI_RW_Reg
                 ; 0000 0026 	SPI_RW_Reg(WRITE_REG + CONFIG, 0x0e);   		 // Enable CRC, 2 byte CRC, Send
0002df e2e0      	LDI  R30,LOW(32)
0002e0 93ea      	ST   -Y,R30
0002e1 e0ee      	LDI  R30,LOW(14)
0002e2 93ea      	ST   -Y,R30
0002e3 d013      	RCALL _SPI_RW_Reg
                 ; 0000 0027 
                 ; 0000 0028 }
0002e4 9508      	RET
                 ;/****************************************************************************************************/
                 ;//unsigned char SPI_RW(unsigned char Buff)
                 ;//NRF24L01
                 ;/****************************************************************************************************/
                 ;unsigned char SPI_RW(unsigned char Buff)
                 ; 0000 002E {
                 _SPI_RW:
                 ; 0000 002F    return spi(Buff);
                 ;	Buff -> Y+0
0002e5 81e8      	LD   R30,Y
0002e6 93ea      	ST   -Y,R30
0002e7 940e 1290 	CALL _spi
0002e9 940c 06e3 	JMP  _0x20C0008
                 ; 0000 0030 }
                 ;/****************************************************************************************************/
                 ;//unsigned char SPI_Read(unsigned char reg)
                 ;//NRF24L01
                 ;/****************************************************************************************************/
                 ;unsigned char SPI_Read(unsigned char reg)
                 ; 0000 0036 {
                 _SPI_Read:
                 ; 0000 0037 	unsigned char reg_val;
                 ; 0000 0038 
                 ; 0000 0039 	CSN = 0;                // CSN low, initialize SPI communication...
0002eb 931a      	ST   -Y,R17
                 ;	reg -> Y+1
                 ;	reg_val -> R17
0002ec 98aa      	CBI  0x15,2
                 ; 0000 003A 	SPI_RW(reg);            // Select register to read from..
0002ed 81e9      	LDD  R30,Y+1
0002ee 93ea      	ST   -Y,R30
0002ef dff5      	RCALL _SPI_RW
                 ; 0000 003B 	reg_val = SPI_RW(0);    // ..then read registervalue
0002f0 e0e0      	LDI  R30,LOW(0)
0002f1 940e 1486 	CALL SUBOPT_0x1
                 ; 0000 003C 	CSN = 1;                // CSN high, terminate SPI communication
0002f3 9aaa      	SBI  0x15,2
                 ; 0000 003D 
                 ; 0000 003E 	return(reg_val);        // return register value
0002f4 2fe1      	MOV  R30,R17
0002f5 8118      	LDD  R17,Y+0
0002f6 c2f3      	RJMP _0x20C0009
                 ; 0000 003F }
                 ;/****************************************************************************************************/
                 ;//unsigned char SPI_RW_Reg(unsigned char reg, unsigned char value)
                 ;/****************************************************************************************************/
                 ;unsigned char SPI_RW_Reg(unsigned char reg, unsigned char value)
                 ; 0000 0044 {
                 _SPI_RW_Reg:
                 ; 0000 0045 	unsigned char status;
                 ; 0000 0046 
                 ; 0000 0047 	CSN = 0;                   // CSN low, init SPI transaction
0002f7 931a      	ST   -Y,R17
                 ;	reg -> Y+2
                 ;	value -> Y+1
                 ;	status -> R17
0002f8 98aa      	CBI  0x15,2
                 ; 0000 0048 	status = SPI_RW(reg);      // select register
0002f9 81ea      	LDD  R30,Y+2
0002fa 940e 1486 	CALL SUBOPT_0x1
                 ; 0000 0049 	SPI_RW(value);             // ..and write value to it..
0002fc 81e9      	LDD  R30,Y+1
0002fd 93ea      	ST   -Y,R30
0002fe dfe6      	RCALL _SPI_RW
                 ; 0000 004A 	CSN = 1;                   // CSN high again
0002ff 9aaa      	SBI  0x15,2
                 ; 0000 004B 
                 ; 0000 004C 	return(status);            // return nRF24L01 status uchar
000300 2fe1      	MOV  R30,R17
000301 8118      	LDD  R17,Y+0
000302 c25d      	RJMP _0x20C000D
                 ; 0000 004D }
                 ;/****************************************************************************************************/
                 ;//unsigned char SPI_Read_Buf(unsigned char reg, unsigned char *pBuf, unsigned char uchars)
                 ;//
                 ;/****************************************************************************************************/
                 ;unsigned char SPI_Read_Buf(unsigned char reg, unsigned char *pBuf, unsigned char uchars)
                 ; 0000 0053 {
                 _SPI_Read_Buf:
                 ; 0000 0054 	unsigned char status,uchar_ctr;
                 ; 0000 0055 
                 ; 0000 0056 	CSN = 0;                    		// Set CSN low, init SPI tranaction
000303 931a      	ST   -Y,R17
000304 930a      	ST   -Y,R16
                 ;	reg -> Y+5
                 ;	*pBuf -> Y+3
                 ;	uchars -> Y+2
                 ;	status -> R17
                 ;	uchar_ctr -> R16
000305 98aa      	CBI  0x15,2
                 ; 0000 0057 	status = SPI_RW(reg);       		// Select register to write to and read status uchar
000306 81ed      	LDD  R30,Y+5
000307 940e 1486 	CALL SUBOPT_0x1
                 ; 0000 0058 
                 ; 0000 0059 	for(uchar_ctr=0;uchar_ctr<uchars;uchar_ctr++)
000309 e000      	LDI  R16,LOW(0)
                 _0x14:
00030a 81ea      	LDD  R30,Y+2
00030b 170e      	CP   R16,R30
00030c f480      	BRSH _0x15
                 ; 0000 005A 		pBuf[uchar_ctr] = SPI_RW(0);    //
00030d 2fe0      	MOV  R30,R16
00030e 81ab      	LDD  R26,Y+3
00030f 81bc      	LDD  R27,Y+3+1
000310 e0f0      	LDI  R31,0
000311 0fea      	ADD  R30,R26
000312 1ffb      	ADC  R31,R27
000313 93ff      	PUSH R31
000314 93ef      	PUSH R30
000315 e0e0      	LDI  R30,LOW(0)
000316 93ea      	ST   -Y,R30
000317 dfcd      	RCALL _SPI_RW
000318 91af      	POP  R26
000319 91bf      	POP  R27
00031a 93ec      	ST   X,R30
00031b 5f0f      	SUBI R16,-1
00031c cfed      	RJMP _0x14
                 _0x15:
                 ; 0000 005C PORTC.2 = 1;
00031d 9aaa      	SBI  0x15,2
                 ; 0000 005D 
                 ; 0000 005E 	return(status);                    // return nRF24L01 status uchar
00031e 2fe1      	MOV  R30,R17
00031f 8119      	LDD  R17,Y+1
000320 8108      	LDD  R16,Y+0
000321 9626      	ADIW R28,6
000322 9508      	RET
                 ; 0000 005F }
                 ;/*********************************************************************************************************/
                 ;//uint SPI_Write_Buf(uchar reg, uchar *pBuf, uchar uchars)
                 ;/*****************************************************************************************************/
                 ;unsigned char SPI_Write_Buf(unsigned char reg, unsigned char *pBuf, unsigned uchars)
                 ; 0000 0064 {
                 _SPI_Write_Buf:
                 ; 0000 0065 	unsigned char status,uchar_ctr;
                 ; 0000 0066 	CSN = 0;            //SPI
000323 931a      	ST   -Y,R17
000324 930a      	ST   -Y,R16
                 ;	reg -> Y+6
                 ;	*pBuf -> Y+4
                 ;	uchars -> Y+2
                 ;	status -> R17
                 ;	uchar_ctr -> R16
000325 98aa      	CBI  0x15,2
                 ; 0000 0067 	status = SPI_RW(reg);
000326 81ee      	LDD  R30,Y+6
000327 940e 1486 	CALL SUBOPT_0x1
                 ; 0000 0068 	for(uchar_ctr=0; uchar_ctr<uchars; uchar_ctr++) //
000329 e000      	LDI  R16,LOW(0)
                 _0x1B:
00032a 81ea      	LDD  R30,Y+2
00032b 81fb      	LDD  R31,Y+2+1
00032c 2fa0      	MOV  R26,R16
00032d e0b0      	LDI  R27,0
00032e 17ae      	CP   R26,R30
00032f 07bf      	CPC  R27,R31
000330 f448      	BRSH _0x1C
                 ; 0000 0069 	SPI_RW(*pBuf++);
000331 81ac      	LDD  R26,Y+4
000332 81bd      	LDD  R27,Y+4+1
000333 91ed      	LD   R30,X+
000334 83ac      	STD  Y+4,R26
000335 83bd      	STD  Y+4+1,R27
000336 93ea      	ST   -Y,R30
000337 dfad      	RCALL _SPI_RW
000338 5f0f      	SUBI R16,-1
000339 cff0      	RJMP _0x1B
                 _0x1C:
                 ; 0000 006A PORTC.2 = 1;
00033a 9aaa      	SBI  0x15,2
                 ; 0000 006B 	return(status);    //
00033b 2fe1      	MOV  R30,R17
00033c 8119      	LDD  R17,Y+1
00033d 8108      	LDD  R16,Y+0
00033e 9627      	ADIW R28,7
00033f 9508      	RET
                 ; 0000 006C }
                 ;/****************************************************************************************************/
                 ;//void SetRX_Mode(void)
                 ;//
                 ;/****************************************************************************************************/
                 ;void SetRX_Mode(void)
                 ; 0000 0072 {
                 _SetRX_Mode:
                 ; 0000 0073 	CE=0;
000340 98ab      	CBI  0x15,3
                 ; 0000 0074 	SPI_RW_Reg(WRITE_REG + CONFIG, 0x07);   		// enable power up and prx
000341 e2e0      	LDI  R30,LOW(32)
000342 93ea      	ST   -Y,R30
000343 e0e7      	LDI  R30,LOW(7)
000344 93ea      	ST   -Y,R30
000345 dfb1      	RCALL _SPI_RW_Reg
                 ; 0000 0075 	CE = 1;
000346 9aab      	SBI  0x15,3
                 ; 0000 0076 	delay_us(130);    //
                +
000347 e084     +LDI R24 , LOW ( 260 )
000348 e091     +LDI R25 , HIGH ( 260 )
                +__DELAY_USW_LOOP :
000349 9701     +SBIW R24 , 1
00034a f7f1     +BRNE __DELAY_USW_LOOP
                 	__DELAY_USW 260
                 ; 0000 0077 }
00034b 9508      	RET
                 ;/****************************************************************************************************/
                 ;//void SetTX_Mode(void)
                 ;//
                 ;/****************************************************************************************************/
                 ;void SetTX_Mode(void)
                 ; 0000 007D {
                 ; 0000 007E 	CE=0;
                 ; 0000 007F 	SPI_RW_Reg(WRITE_REG + CONFIG, 0x0e);   		// Enable CRC, 2 byte CRC, Send
                 ; 0000 0080 	CE = 1;
                 ; 0000 0081 	delay_us(130);    //
                 ; 0000 0082 }
                 ;
                 ;/******************************************************************************************************/
                 ;//unsigned char nRF24L01_RxPacket(unsigned char* rx_buf)
                 ;/******************************************************************************************************/
                 ;unsigned char nRF24L01_RxPacket(unsigned char* rx_buf)
                 ; 0000 0088 {
                 _nRF24L01_RxPacket:
                 ; 0000 0089     unsigned char revale=0;
                 ; 0000 008A     unsigned char sta;
                 ; 0000 008B 	sta=SPI_Read(STATUS);	// Read Status
00034c 931a      	ST   -Y,R17
00034d 930a      	ST   -Y,R16
                 ;	*rx_buf -> Y+2
                 ;	revale -> R17
                 ;	sta -> R16
00034e e010      	LDI  R17,0
00034f e0e7      	LDI  R30,LOW(7)
000350 93ea      	ST   -Y,R30
000351 df99      	RCALL _SPI_Read
000352 2f0e      	MOV  R16,R30
                 ; 0000 008C 	//if(RX_DR)				// Data in RX FIFO
                 ; 0000 008D     if((sta&0x40)!=0)		// Data in RX FIFO
000353 ff06      	SBRS R16,6
000354 c00b      	RJMP _0x27
                 ; 0000 008E 	{
                 ; 0000 008F 	    CE = 0; 			//SPI
000355 98ab      	CBI  0x15,3
                 ; 0000 0090 		SPI_Read_Buf(RD_RX_PLOAD,rx_buf,TX_PLOAD_WIDTH);// read receive payload from RX_FIFO buffer
000356 e6e1      	LDI  R30,LOW(97)
000357 93ea      	ST   -Y,R30
000358 81eb      	LDD  R30,Y+3
000359 81fc      	LDD  R31,Y+3+1
00035a 93fa      	ST   -Y,R31
00035b 93ea      	ST   -Y,R30
00035c e2e0      	LDI  R30,LOW(32)
00035d 93ea      	ST   -Y,R30
00035e dfa4      	RCALL _SPI_Read_Buf
                 ; 0000 0091 		revale =1;
00035f e011      	LDI  R17,LOW(1)
                 ; 0000 0092 	}
                 ; 0000 0093 	SPI_RW_Reg(WRITE_REG+STATUS,sta);
                 _0x27:
000360 e2e7      	LDI  R30,LOW(39)
000361 93ea      	ST   -Y,R30
000362 930a      	ST   -Y,R16
000363 df93      	RCALL _SPI_RW_Reg
                 ; 0000 0094     CE = 1; 			//SPI
000364 9aab      	SBI  0x15,3
                 ; 0000 0095 	return revale;
000365 2fe1      	MOV  R30,R17
000366 8119      	LDD  R17,Y+1
000367 8108      	LDD  R16,Y+0
000368 c1d9      	RJMP _0x20C000E
                 ; 0000 0096 }
                 ;/***********************************************************************************************************/
                 ;//void nRF24L01_TxPacket(unsigned char * tx_buf)
                 ;//
                 ;/**********************************************************************************************************/
                 ;void nRF24L01_TxPacket(unsigned char * tx_buf)
                 ; 0000 009C {
                 ; 0000 009D 	CE=0;
                 ;	*tx_buf -> Y+0
                 ; 0000 009E 	SPI_Write_Buf(WRITE_REG + RX_ADDR_P0, TX_ADDRESS, TX_ADR_WIDTH); // Send Address
                 ; 0000 009F 	SPI_Write_Buf(WR_TX_PLOAD, tx_buf, TX_PLOAD_WIDTH); 			 //send data
                 ; 0000 00A0 	SPI_RW_Reg(WRITE_REG + CONFIG, 0x0e);   		 // Send Out
                 ; 0000 00A1 	CE=1;
                 ; 0000 00A2 }
                 ;
                 ;// --------------------END OF FILE------------------------
                 ;// -------------------------------------------------------
                 ;/*****************************************************
                 ;This program was produced by the
                 ;CodeWizardAVR V2.05.0 Evaluation
                 ;Automatic Program Generator
                 ; Copyright 1998-2010 Pavel Haiduc, HP InfoTech s.r.l.
                 ;http://www.hpinfotech.com
                 ;
                 ;Project :
                 ;Version :
                 ;Date    : 6/4/2015
                 ;Author  : Freeware, for evaluation and non-commercial use only
                 ;Company :
                 ;Comments:
                 ;
                 ;
                 ;Chip type               : ATmega32A
                 ;Program type            : Application
                 ;AVR Core Clock frequency: 8.000000 MHz
                 ;Memory model            : Small
                 ;External RAM size       : 0
                 ;Data Stack size         : 512
                 ;*****************************************************/
                 ;
                 ;#include <stdio.h>
                 ;#include <string.h>
                 ;#include <stdarg.h>
                 ;#include <mega32a.h>
                 	#ifndef __SLEEP_DEFINED__
                 	#endif
                 ;#include <delay.h>
                 ;#include <spi.h>
                 ;#include <nRF24L01/nRF24L01.h>
                 ;#include <math.h>
                 ;
                 ;/* Debug mode definition */
                 ;#define DEBUG_MODE 1    // USE OUR CODE, ask Phat for more details
                 ;//#define DEBUG_EN 1      // Blue tooth mode
                 ;
                 ;/* For Dat */
                 ;#define VBASE 15
                 ;#define KMOVE 25
                 ;
                 ;/* PIN DEFINITION */
                 ;// PIN LED ROBO KIT
                 ;
                 ;#define LEDL	PORTC.4
                 ;#define LEDR	PORTC.5
                 ;#define LEDFL   PORTA.4
                 ;#define LEDFR   PORTA.5
                 ;#define LEDBL   PORTA.6
                 ;#define LEDBR   PORTA.7
                 ;#define keyKT   PINC.0 // Nut ben trai
                 ;#define keyKP   PINC.1 // Nut ben phai
                 ;#define S0  PINA.0
                 ;#define S1  PINA.1
                 ;#define S2  PINA.2
                 ;#define S3  PINA.3
                 ;#define S4  PINA.7
                 ;#define MLdir   PORTC.6
                 ;#define MRdir   PORTC.7
                 ;// PIN NOKIA 5110
                 ;#define RST    PORTB.0
                 ;#define SCE    PORTB.1
                 ;#define DC     PORTB.2
                 ;#define DIN    PORTB.5
                 ;#define SCK    PORTB.7
                 ;#define LCD_C     0
                 ;#define LCD_D     1
                 ;#define LCD_X     84
                 ;#define LCD_Y     48
                 ;#define Black 1
                 ;#define White 0
                 ;#define Filled 1
                 ;#define NotFilled 0
                 ;// VARIABLES FOR ROBOT CONTROL
                 ;#define CtrVelocity    //uncomment de chon chay pid dieu khien van toc, va su dung cac ham vMLtoi,vMLlui,....
                 ;#define ROBOT_ID 4
                 ;#define SAN_ID 1  //CHON HUONG TAN CONG LA X >0;
                 ;#define M_PI    3.14159265358979323846    /* pi */
                 ;
                 ;typedef   signed          char int8_t;
                 ;typedef   signed           int int16_t;
                 ;typedef   signed  long    int int32_t;
                 ;typedef   unsigned         char uint8_t;
                 ;typedef   unsigned        int  uint16_t;
                 ;typedef   unsigned long    int  uint32_t;
                 ;typedef   float            float32_t;
                 ;typedef struct   {
                 ;        float x;
                 ;        float y;
                 ;} Ball ;
                 ;typedef struct {
                 ;    int x;
                 ;    int y;
                 ;} IntBall;
                 ;typedef struct   {
                 ;        float id;
                 ;        float x;
                 ;        float y;
                 ;        float ox;
                 ;        float oy;
                 ;        Ball ball;
                 ;} Robot;
                 ;typedef struct {
                 ;    int id;
                 ;    int x;
                 ;    int y;
                 ;    int ox;
                 ;    int oy;
                 ;    IntBall ball;
                 ;} IntRobot;
                 ;
                 ;// FUNCTION DECLARATION
                 ;IntRobot convertRobot2IntRobot(Robot robot);
                 ;unsigned char readposition();
                 ;void runEscBlindSpot();
                 ;void ctrrobot();// can phai luon luon chay de dieu khien robot
                 ;void rb_move(float x,float y);
                 ;int rb_wait(unsigned long int time );
                 ;void rb_rotate(int angle);     // goc xoay so voi truc x cua toa do
                 ;void calcvitri(float x,float y);
                 ;int calcVangle(int angle);
                 ;
                 ;// VARIABLES DECLARATION
                 ;Robot rb;
                 ;IntRobot robot11, robot12, robot13, robot21, robot22, robot23, robotctrl;
                 ;float errangle=0, distance=0,orentation=0;
                 ;int flagtancong=1;
                 ;int offsetphongthu=0;
                 ;int goctancong=0;
                 ;unsigned char RxBuf[32];
                 ;float setRobotX=0;
                 ;float setRobotY=0;
                 ;float setRobotXmin=0;
                 ;float setRobotXmax=0;
                 ;float setRobotAngleX=0;
                 ;float setRobotAngleY=0;
                 ;float offestsanco=0;
                 ;float rbctrlHomeX=0;
                 ;float rbctrlHomeY=0;
                 ;float rbctrlPenaltyX=0;
                 ;float rbctrlPenaltyY=0;
                 ;float rbctrlPenaltyAngle=0;
                 ;float rbctrlHomeAngle=0;
                 ;unsigned int cmdCtrlRobot,idRobot;
                 ;unsigned int cntsethomeRB  =0;
                 ;unsigned int cntstuckRB=0;
                 ;unsigned int cntunlookRB=0;
                 ;unsigned int flagunlookRB=0;
                 ;unsigned int cntunsignalRF=0;
                 ;unsigned int flagunsignalRF=0;
                 ;unsigned int flagsethome=0;
                 ;unsigned int flagselftest = 0;
                 ;unsigned int cntselftest = 0;
                 ;int leftSpeed = 0;
                 ;int rightSpeed = 0;
                 ;
                 ;//======USER VARIABLES=========
                 ;unsigned char id = 1;
                 
                 	.DSEG
                 ;//======IR READER VARIABLES====
                 ;unsigned int IRFL=0;
                 ;unsigned int IRFR=0;
                 ;unsigned int IRBL=0;
                 ;unsigned int IRLINE[5];
                 ;//======MOTOR CONTROL========
                 ;//------VELOCITY CONTROL=====
                 ;unsigned int timerstick=0,timerstickdis =0,timerstickang=0,timerstickctr=0;
                 ;unsigned int vQEL=0;  //do (xung/250ms)
                 ;unsigned int vQER=0;  //do (xung/250ms)
                 ;unsigned int oldQEL=0;
                 ;unsigned int oldQER=0;
                 ;unsigned int svQEL=0;  //dat (xung/250ms) (range: 0-22)
                 ;unsigned int svQER=0;  //dat (xung/250ms) (range: 0-22)
                 ;static int seRki=0,seLki=0;
                 ;int uL = 0 ;
                 ;int uR = 0;
                 ;int KpR = 10;
                 ;int KiR = 1;
                 ;int KpL = 10;
                 ;int KiL = 1;
                 ;#define LDIVR 1
                 ;
                 ;// Robot Control Algorithm
                 ;// The idea is simple. There are two vectors: robot direction (vrb) and robot to target (vdes).
                 ;// The vector vrb will rotate at an  angle of 'delta' which is equal to the  angle between 2 vectors.
                 ;// So that two vectors will be on a same line and the robot can reach its destination.
                 ;// However, in order to achieve robot's arrival with desired orientation, a new vector (vgoal), which
                 ;// shows the desired orientation, is introduced and added to vrb before the rotation.
                 ;
                 ;// Return the absolute value
                 ;int absolute(int a) {
                 ; 0001 00BD int absolute(int a) {
                 
                 	.CSEG
                 _absolute:
                 ; 0001 00BE     if (a > 0) return a;
                 ;	a -> Y+0
000369 81a8      	LD   R26,Y
00036a 81b9      	LDD  R27,Y+1
00036b 940e 1ac1 	CALL __CPW02
00036d f41c      	BRGE _0x20008
00036e 81e8      	LD   R30,Y
00036f 81f9      	LDD  R31,Y+1
000370 c279      	RJMP _0x20C0009
                 ; 0001 00BF     return (-a);
                 _0x20008:
000371 81e8      	LD   R30,Y
000372 81f9      	LDD  R31,Y+1
000373 940e 19cd 	CALL __ANEGW1
000375 c274      	RJMP _0x20C0009
                 ; 0001 00C0 }
                 ;float min3(float a, float b, float c){
                 ; 0001 00C1 float min3(float a, float b, float c){
                 _min3:
                 ; 0001 00C2    	float m = a;
                 ; 0001 00C3     if (m > b) m = b;
000376 940e 148b 	CALL SUBOPT_0x2
                 ;	a -> Y+12
                 ;	b -> Y+8
                 ;	c -> Y+4
                 ;	m -> Y+0
000378 f009      	BREQ PC+2
000379 f410      	BRCC PC+3
00037a 940c 037e 	JMP  _0x20009
00037c 940e 149b 	CALL SUBOPT_0x3
                 ; 0001 00C4     if (m > c) m = c;
                 _0x20009:
00037e 940e 14a2 	CALL SUBOPT_0x4
000380 940e 14a7 	CALL SUBOPT_0x5
000382 f009      	BREQ PC+2
000383 f410      	BRCC PC+3
000384 940c 0388 	JMP  _0x2000A
000386 940e 14ac 	CALL SUBOPT_0x6
                 ; 0001 00C5     return m;
                 _0x2000A:
000388 c00c      	RJMP _0x20C000F
                 ; 0001 00C6 }
                 ;float max3(float a, float b, float c){
                 ; 0001 00C7 float max3(float a, float b, float c){
                 _max3:
                 ; 0001 00C8    	float m = a;
                 ; 0001 00C9     if (m < b) m = b;
000389 940e 148b 	CALL SUBOPT_0x2
                 ;	a -> Y+12
                 ;	b -> Y+8
                 ;	c -> Y+4
                 ;	m -> Y+0
00038b f410      	BRSH _0x2000B
00038c 940e 149b 	CALL SUBOPT_0x3
                 ; 0001 00CA     if (m < c) m = c;
                 _0x2000B:
00038e 940e 14a2 	CALL SUBOPT_0x4
000390 940e 14a7 	CALL SUBOPT_0x5
000392 f410      	BRSH _0x2000C
000393 940e 14ac 	CALL SUBOPT_0x6
                 ; 0001 00CB     return m;
                 _0x2000C:
                 _0x20C000F:
000395 940e 1a85 	CALL __GETD1S0
000397 9660      	ADIW R28,16
000398 9508      	RET
                 ; 0001 00CC }
                 ;
                 ;void setSpeed(int leftSpeed, int rightSpeed) {
                 ; 0001 00CE void setSpeed(int leftSpeed, int rightSpeed) {
                 _setSpeed:
                 ; 0001 00CF     // Reset I of both wheel
                 ; 0001 00D0     seRki=0;//reset thanh phan I
                 ;	leftSpeed -> Y+2
                 ;	rightSpeed -> Y+0
000399 940e 14b0 	CALL SUBOPT_0x7
                 ; 0001 00D1     seLki=0;//reset thanh phan I
                 ; 0001 00D2 
                 ; 0001 00D3     // Left speed control
                 ; 0001 00D4     if (leftSpeed > 0) { // forward
00039b 81aa      	LDD  R26,Y+2
00039c 81bb      	LDD  R27,Y+2+1
00039d 940e 1ac1 	CALL __CPW02
00039f f414      	BRGE _0x2000D
                 ; 0001 00D5         MLdir = 1;
0003a0 9aae      	SBI  0x15,6
                 ; 0001 00D6     } else {
0003a1 c007      	RJMP _0x20010
                 _0x2000D:
                 ; 0001 00D7         MLdir = 0;
0003a2 98ae      	CBI  0x15,6
                 ; 0001 00D8         leftSpeed = -leftSpeed;
0003a3 81ea      	LDD  R30,Y+2
0003a4 81fb      	LDD  R31,Y+2+1
0003a5 940e 19cd 	CALL __ANEGW1
0003a7 83ea      	STD  Y+2,R30
0003a8 83fb      	STD  Y+2+1,R31
                 ; 0001 00D9     }
                 _0x20010:
                 ; 0001 00DA     svQEL = leftSpeed; // Don't know this
0003a9 81ea      	LDD  R30,Y+2
0003aa 81fb      	LDD  R31,Y+2+1
0003ab 940e 14ba 	CALL SUBOPT_0x8
                 ; 0001 00DB 
                 ; 0001 00DC     // Right speed control
                 ; 0001 00DD     if (rightSpeed > 0) { // forward
0003ad 81a8      	LD   R26,Y
0003ae 81b9      	LDD  R27,Y+1
0003af 940e 1ac1 	CALL __CPW02
0003b1 f414      	BRGE _0x20013
                 ; 0001 00DE         MRdir = 1;
0003b2 9aaf      	SBI  0x15,7
                 ; 0001 00DF     } else {
0003b3 c007      	RJMP _0x20016
                 _0x20013:
                 ; 0001 00E0         MRdir = 0;
0003b4 98af      	CBI  0x15,7
                 ; 0001 00E1         rightSpeed = -rightSpeed;
0003b5 81e8      	LD   R30,Y
0003b6 81f9      	LDD  R31,Y+1
0003b7 940e 19cd 	CALL __ANEGW1
0003b9 83e8      	ST   Y,R30
0003ba 83f9      	STD  Y+1,R31
                 ; 0001 00E2     }
                 _0x20016:
                 ; 0001 00E3     svQER = rightSpeed;
0003bb 81e8      	LD   R30,Y
0003bc 81f9      	LDD  R31,Y+1
0003bd 93e0 04de 	STS  _svQER,R30
0003bf 93f0 04df 	STS  _svQER+1,R31
                 ; 0001 00E4 }
0003c1 c180      	RJMP _0x20C000E
                 ;
                 ;void kick(int x_des, int y_des, int x_goal, int y_goal, char mode){
                 ; 0001 00E6 void kick(int x_des, int y_des, int x_goal, int y_goal, char mode){
                 ; 0001 00E7 
                 ; 0001 00E8     int vx_des, vy_des, vx_goal, vy_goal;                    // vdes & vgoal coordinates
                 ; 0001 00E9     int rb_angle, des_angle, goal_angle, new_angle;       // angles of vrb, vdes, vgoal & (vdes + vgoal) to x-axis
                 ; 0001 00EA     int rotation_angle;                           // this is needed to calculate motor velocity
                 ; 0001 00EB     int minimum, maximum;                       //  this is needed to check whether vector a is between vector b and c
                 ; 0001 00EC     int wl, wr;
                 ; 0001 00ED     int vx_rb, vy_rb;
                 ; 0001 00EE 
                 ; 0001 00EF     vx_des = x_des - robotctrl.x;            // vdes calculation
                 ;	x_des -> Y+37
                 ;	y_des -> Y+35
                 ;	x_goal -> Y+33
                 ;	y_goal -> Y+31
                 ;	mode -> Y+30
                 ;	vx_des -> R16,R17
                 ;	vy_des -> R18,R19
                 ;	vx_goal -> R20,R21
                 ;	vy_goal -> Y+28
                 ;	rb_angle -> Y+26
                 ;	des_angle -> Y+24
                 ;	goal_angle -> Y+22
                 ;	new_angle -> Y+20
                 ;	rotation_angle -> Y+18
                 ;	minimum -> Y+16
                 ;	maximum -> Y+14
                 ;	wl -> Y+12
                 ;	wr -> Y+10
                 ;	vx_rb -> Y+8
                 ;	vy_rb -> Y+6
                 ; 0001 00F0     vy_des = y_des - robotctrl.y;
                 ; 0001 00F1 
                 ; 0001 00F2     vx_goal = x_goal - x_des;            //vgoal calculation
                 ; 0001 00F3 	vy_goal = y_goal - y_des;
                 ; 0001 00F4 
                 ; 0001 00F5     // Conversion to unit vector
                 ; 0001 00F6 	if (x_goal== 0)
                 ; 0001 00F7         y_goal = y_goal/absolute(y_goal);
                 ; 0001 00F8     else if (y_goal == 0)
                 ; 0001 00F9         x_goal = x_goal/absolute(x_goal);
                 ; 0001 00FA     else {
                 ; 0001 00FB         y_goal = y_goal/absolute(x_goal);
                 ; 0001 00FC         x_goal = x_goal/absolute(x_goal);
                 ; 0001 00FD     }
                 ; 0001 00FE 
                 ; 0001 00FF 	// Angle calculation
                 ; 0001 0100     goal_angle = atan2(vy_goal,vx_goal);
                 ; 0001 0101     rb_angle = atan2(robotctrl.ox, robotctrl.oy);			// done
                 ; 0001 0102     des_angle = atan2(vy_des,vx_des);
                 ; 0001 0103 
                 ; 0001 0104 	// Adding vgoal to vrb
                 ; 0001 0105     // NEED TESTING
                 ; 0001 0106 	vx_rb = robotctrl.ox + vx_goal;
                 ; 0001 0107     vy_rb = robotctrl.oy + vy_goal;
                 ; 0001 0108 
                 ; 0001 0109     new_angle = atan2(vx_rb, vy_rb);
                 ; 0001 010A     rotation_angle = new_angle - des_angle;
                 ; 0001 010B 
                 ; 0001 010C 	//  *rotation_angle > 180* counter-measure
                 ; 0001 010D     if (rotation_angle < -PI) {
                 ; 0001 010E         rotation_angle = 2*PI + rotation_angle;
                 ; 0001 010F         if (new_angle > des_angle)
                 ; 0001 0110             rotation_angle = -rotation_angle;
                 ; 0001 0111     }
                 ; 0001 0112 
                 ; 0001 0113     if (rotation_angle > PI) {
                 ; 0001 0114         rotation_angle = 2*PI - rotation_angle;
                 ; 0001 0115         if (new_angle > des_angle)
                 ; 0001 0116             rotation_angle = -rotation_angle;
                 ; 0001 0117 	}
                 ; 0001 0118 
                 ; 0001 0119 	// *Spiral* counter-measure: Spiral happens when vdes is between the new vector and vrb
                 ; 0001 011A     minimum = min3(rb_angle, des_angle, new_angle);
                 ; 0001 011B     maximum = max3(rb_angle, des_angle, new_angle);
                 ; 0001 011C 
                 ; 0001 011D 	if (absolute(rb_angle - new_angle)>PI) {
                 ; 0001 011E         if (des_angle == maximum || des_angle == minimum)
                 ; 0001 011F             rotation_angle = rotation_angle / 15;
                 ; 0001 0120         else if (minimum < des_angle && des_angle < maximum)
                 ; 0001 0121             rotation_angle = rotation_angle / 15;
                 ; 0001 0122 	}
                 ; 0001 0123 
                 ; 0001 0124 	// Motor speed calculation
                 ; 0001 0125     switch ( mode ) {
                 ; 0001 0126         case 'f': // Going forward
                 ; 0001 0127             wl = 30 + rotation_angle * 50;
                 ; 0001 0128             wr = 30 - rotation_angle * 50;
                 ; 0001 0129             break;
                 ; 0001 012A         case 'b': // Going backward
                 ; 0001 012B             rotation_angle = -rotation_angle;
                 ; 0001 012C             wl = 30 - rotation_angle * 50;
                 ; 0001 012D             wr = 30 +  rotation_angle * 50;
                 ; 0001 012E             break;
                 ; 0001 012F     }
                 ; 0001 0130 
                 ; 0001 0131     // Set the speed immediately
                 ; 0001 0132     leftSpeed = wl;
                 ; 0001 0133     rightSpeed = wr;
                 ; 0001 0134 }
                 ;
                 ;void movePoint(IntRobot rbctrl, int x_des, int y_des, int angle, char mode){
                 ; 0001 0136 void movePoint(IntRobot rbctrl, int x_des, int y_des, int angle, char mode){
                 _movePoint:
                 ; 0001 0137 
                 ; 0001 0138 	int vx_des, vy_des, vx_goal, vy_goal;	                // vdes & vgoal coordinates
                 ; 0001 0139 	int rb_angle, des_angle, goal_angle, new_angle;       // angles of vrb, vdes, vgoal & (vdes + vgoal) to x-axis
                 ; 0001 013A 	int rotation_angle;
                 ; 0001 013B 	int minimum, maximum;
                 ; 0001 013C     int wl, wr;
                 ; 0001 013D     int vx_rb, vy_rb;
                 ; 0001 013E     int dirx, diry;
                 ; 0001 013F 
                 ; 0001 0140 	vx_des = x_des - rbctrl.x;			// vdes calculation
0003c2 976c      	SBIW R28,28
0003c3 940e 1acb 	CALL __SAVELOCR6
                 ;	rbctrl -> Y+41
                 ;	x_des -> Y+39
                 ;	y_des -> Y+37
                 ;	angle -> Y+35
                 ;	mode -> Y+34
                 ;	vx_des -> R16,R17
                 ;	vy_des -> R18,R19
                 ;	vx_goal -> R20,R21
                 ;	vy_goal -> Y+32
                 ;	rb_angle -> Y+30
                 ;	des_angle -> Y+28
                 ;	goal_angle -> Y+26
                 ;	new_angle -> Y+24
                 ;	rotation_angle -> Y+22
                 ;	minimum -> Y+20
                 ;	maximum -> Y+18
                 ;	wl -> Y+16
                 ;	wr -> Y+14
                 ;	vx_rb -> Y+12
                 ;	vy_rb -> Y+10
                 ;	dirx -> Y+8
                 ;	diry -> Y+6
0003c5 a5ab      	LDD  R26,Y+43
0003c6 a5bc      	LDD  R27,Y+43+1
0003c7 a1ef      	LDD  R30,Y+39
0003c8 a5f8      	LDD  R31,Y+39+1
0003c9 1bea      	SUB  R30,R26
0003ca 0bfb      	SBC  R31,R27
0003cb 018f      	MOVW R16,R30
                 ; 0001 0141 	vy_des = y_des - rbctrl.y;
0003cc a5ad      	LDD  R26,Y+45
0003cd a5be      	LDD  R27,Y+45+1
0003ce a1ed      	LDD  R30,Y+37
0003cf a1fe      	LDD  R31,Y+37+1
0003d0 1bea      	SUB  R30,R26
0003d1 0bfb      	SBC  R31,R27
0003d2 019f      	MOVW R18,R30
                 ; 0001 0142 
                 ; 0001 0143     dirx = rbctrl.ox - rbctrl.x;
0003d3 a5ab      	LDD  R26,Y+43
0003d4 a5bc      	LDD  R27,Y+43+1
0003d5 a5ef      	LDD  R30,Y+47
0003d6 a9f8      	LDD  R31,Y+47+1
0003d7 1bea      	SUB  R30,R26
0003d8 0bfb      	SBC  R31,R27
0003d9 87e8      	STD  Y+8,R30
0003da 87f9      	STD  Y+8+1,R31
                 ; 0001 0144     diry = rbctrl.oy - rbctrl.y;
0003db a5ad      	LDD  R26,Y+45
0003dc a5be      	LDD  R27,Y+45+1
0003dd a9e9      	LDD  R30,Y+49
0003de a9fa      	LDD  R31,Y+49+1
0003df 1bea      	SUB  R30,R26
0003e0 0bfb      	SBC  R31,R27
0003e1 83ee      	STD  Y+6,R30
0003e2 83ff      	STD  Y+6+1,R31
                 ; 0001 0145 
                 ; 0001 0146 	switch ( angle ) { // vgoal calculation
0003e3 a1eb      	LDD  R30,Y+35
0003e4 a1fc      	LDD  R31,Y+35+1
                 ; 0001 0147 		case 0: 	vx_goal = 1 ; vy_goal = 0;break;
0003e5 9730      	SBIW R30,0
0003e6 f431      	BRNE _0x20031
                +
0003e7 e041     +LDI R20 , LOW ( 1 )
0003e8 e050     +LDI R21 , HIGH ( 1 )
                 	__GETWRN 20,21,1
0003e9 e0e0      	LDI  R30,LOW(0)
0003ea a3e8      	STD  Y+32,R30
0003eb a3e9      	STD  Y+32+1,R30
0003ec c033      	RJMP _0x20030
                 ; 0001 0148 		case 90: 	vx_goal = 0 ; vy_goal = 1;break;
                 _0x20031:
0003ed 35ea      	CPI  R30,LOW(0x5A)
0003ee e0a0      	LDI  R26,HIGH(0x5A)
0003ef 07fa      	CPC  R31,R26
0003f0 f439      	BRNE _0x20032
                +
0003f1 e040     +LDI R20 , LOW ( 0 )
0003f2 e050     +LDI R21 , HIGH ( 0 )
                 	__GETWRN 20,21,0
0003f3 e0e1      	LDI  R30,LOW(1)
0003f4 e0f0      	LDI  R31,HIGH(1)
0003f5 a3e8      	STD  Y+32,R30
0003f6 a3f9      	STD  Y+32+1,R31
0003f7 c028      	RJMP _0x20030
                 ; 0001 0149 		case 180: vx_goal = -1 ; vy_goal = 0;break;
                 _0x20032:
0003f8 3be4      	CPI  R30,LOW(0xB4)
0003f9 e0a0      	LDI  R26,HIGH(0xB4)
0003fa 07fa      	CPC  R31,R26
0003fb f431      	BRNE _0x20033
                +
0003fc ef4f     +LDI R20 , LOW ( - 1 )
0003fd ef5f     +LDI R21 , HIGH ( - 1 )
                 	__GETWRN 20,21,-1
0003fe e0e0      	LDI  R30,LOW(0)
0003ff a3e8      	STD  Y+32,R30
000400 a3e9      	STD  Y+32+1,R30
000401 c01e      	RJMP _0x20030
                 ; 0001 014A 		case -90: vx_goal = 0; vy_goal = -1;break;
                 _0x20033:
000402 3ae6      	CPI  R30,LOW(0xFFFFFFA6)
000403 efaf      	LDI  R26,HIGH(0xFFFFFFA6)
000404 07fa      	CPC  R31,R26
000405 f439      	BRNE _0x20035
                +
000406 e040     +LDI R20 , LOW ( 0 )
000407 e050     +LDI R21 , HIGH ( 0 )
                 	__GETWRN 20,21,0
000408 efef      	LDI  R30,LOW(65535)
000409 efff      	LDI  R31,HIGH(65535)
00040a a3e8      	STD  Y+32,R30
00040b a3f9      	STD  Y+32+1,R31
00040c c013      	RJMP _0x20030
                 ; 0001 014B 		default:	vx_goal = 1; vy_goal = vx_goal * tan(angle);break;
                 _0x20035:
                +
00040d e041     +LDI R20 , LOW ( 1 )
00040e e050     +LDI R21 , HIGH ( 1 )
                 	__GETWRN 20,21,1
00040f a1eb      	LDD  R30,Y+35
000410 a1fc      	LDD  R31,Y+35+1
000411 940e 14bf 	CALL SUBOPT_0x9
000413 940e 13a4 	CALL _tan
000415 01da      	MOVW R26,R20
000416 940e 19de 	CALL __CWD2
000418 940e 1aa3 	CALL __CDF2
00041a 940e 1910 	CALL __MULF12
00041c 01de      	MOVW R26,R28
00041d 9690      	ADIW R26,32
00041e 940e 14c6 	CALL SUBOPT_0xA
                 ; 0001 014C     }
                 _0x20030:
                 ; 0001 014D 
                 ; 0001 014E 	// Angle calculation
                 ; 0001 014F     rb_angle = atan2(diry, dirx);
000420 81ee      	LDD  R30,Y+6
000421 81ff      	LDD  R31,Y+6+1
000422 940e 14bf 	CALL SUBOPT_0x9
000424 85ec      	LDD  R30,Y+12
000425 85fd      	LDD  R31,Y+12+1
000426 940e 14bf 	CALL SUBOPT_0x9
000428 940e 1433 	CALL _atan2
00042a 01de      	MOVW R26,R28
00042b 965e      	ADIW R26,30
00042c 940e 14c6 	CALL SUBOPT_0xA
                 ; 0001 0150     des_angle = atan2(vy_des,vx_des);
00042e 01f9      	MOVW R30,R18
00042f 940e 14bf 	CALL SUBOPT_0x9
000431 01f8      	MOVW R30,R16
000432 940e 14bf 	CALL SUBOPT_0x9
000434 940e 1433 	CALL _atan2
000436 01de      	MOVW R26,R28
000437 965c      	ADIW R26,28
000438 940e 14c6 	CALL SUBOPT_0xA
                 ; 0001 0151 
                 ; 0001 0152 	// Adding vgoal to vrb
                 ; 0001 0153 	vx_rb = dirx + vx_goal;
00043a 01fa      	MOVW R30,R20
00043b 85a8      	LDD  R26,Y+8
00043c 85b9      	LDD  R27,Y+8+1
00043d 0fea      	ADD  R30,R26
00043e 1ffb      	ADC  R31,R27
00043f 87ec      	STD  Y+12,R30
000440 87fd      	STD  Y+12+1,R31
                 ; 0001 0154     vy_rb = diry + vy_goal;
000441 a1e8      	LDD  R30,Y+32
000442 a1f9      	LDD  R31,Y+32+1
000443 81ae      	LDD  R26,Y+6
000444 81bf      	LDD  R27,Y+6+1
000445 0fea      	ADD  R30,R26
000446 1ffb      	ADC  R31,R27
000447 87ea      	STD  Y+10,R30
000448 87fb      	STD  Y+10+1,R31
                 ; 0001 0155 
                 ; 0001 0156     new_angle = atan2(vy_rb,vx_rb);
000449 940e 14bf 	CALL SUBOPT_0x9
00044b 89e8      	LDD  R30,Y+16
00044c 89f9      	LDD  R31,Y+16+1
00044d 940e 14bf 	CALL SUBOPT_0x9
00044f 940e 1433 	CALL _atan2
000451 01de      	MOVW R26,R28
000452 9658      	ADIW R26,24
000453 940e 14c6 	CALL SUBOPT_0xA
                 ; 0001 0157     rotation_angle = new_angle - des_angle;
000455 8dac      	LDD  R26,Y+28
000456 8dbd      	LDD  R27,Y+28+1
000457 8de8      	LDD  R30,Y+24
000458 8df9      	LDD  R31,Y+24+1
000459 1bea      	SUB  R30,R26
00045a 0bfb      	SBC  R31,R27
00045b 8bee      	STD  Y+22,R30
00045c 8bff      	STD  Y+22+1,R31
                 ; 0001 0158 
                 ; 0001 0159 	//  *rotation_angle > 180* counter-measure
                 ; 0001 015A         	if (rotation_angle < -PI) {
00045d 940e 14cb 	CALL SUBOPT_0xB
00045f 01df      	MOVW R26,R30
000460 01cb      	MOVW R24,R22
                +
000461 edeb     +LDI R30 , LOW ( 0xC0490FDB )
000462 e0ff     +LDI R31 , HIGH ( 0xC0490FDB )
000463 e469     +LDI R22 , BYTE3 ( 0xC0490FDB )
000464 ec70     +LDI R23 , BYTE4 ( 0xC0490FDB )
                 	__GETD1N 0xC0490FDB
000465 940e 19a3 	CALL __CMPF12
000467 f488      	BRSH _0x20036
                 ; 0001 015B             		rotation_angle = 2*PI + rotation_angle;
000468 940e 14cb 	CALL SUBOPT_0xB
                +
00046a edab     +LDI R26 , LOW ( 0x40C90FDB )
00046b e0bf     +LDI R27 , HIGH ( 0x40C90FDB )
00046c ec89     +LDI R24 , BYTE3 ( 0x40C90FDB )
00046d e490     +LDI R25 , BYTE4 ( 0x40C90FDB )
                 	__GETD2N 0x40C90FDB
00046e 940e 18c0 	CALL __ADDF12
000470 01de      	MOVW R26,R28
000471 9656      	ADIW R26,22
000472 940e 14c6 	CALL SUBOPT_0xA
                 ; 0001 015C             		if (new_angle > des_angle)               rotation_angle = -rotation_angle;
000474 940e 14d2 	CALL SUBOPT_0xC
000476 f414      	BRGE _0x20037
000477 940e 14d9 	CALL SUBOPT_0xD
                 ; 0001 015D 	}
                 _0x20037:
                 ; 0001 015E                 if (rotation_angle > PI) {
                 _0x20036:
000479 940e 14cb 	CALL SUBOPT_0xB
00047b 940e 14e0 	CALL SUBOPT_0xE
00047d f009      	BREQ PC+2
00047e f410      	BRCC PC+3
00047f 940c 0492 	JMP  _0x20038
                 ; 0001 015F             		rotation_angle = 2*PI - rotation_angle;
000481 940e 14cb 	CALL SUBOPT_0xB
                +
000483 edab     +LDI R26 , LOW ( 0x40C90FDB )
000484 e0bf     +LDI R27 , HIGH ( 0x40C90FDB )
000485 ec89     +LDI R24 , BYTE3 ( 0x40C90FDB )
000486 e490     +LDI R25 , BYTE4 ( 0x40C90FDB )
                 	__GETD2N 0x40C90FDB
000487 940e 14e9 	CALL SUBOPT_0xF
000489 01de      	MOVW R26,R28
00048a 9656      	ADIW R26,22
00048b 940e 14c6 	CALL SUBOPT_0xA
                 ; 0001 0160             		if (new_angle > des_angle)                rotation_angle = -rotation_angle;
00048d 940e 14d2 	CALL SUBOPT_0xC
00048f f414      	BRGE _0x20039
000490 940e 14d9 	CALL SUBOPT_0xD
                 ; 0001 0161 	}
                 _0x20039:
                 ; 0001 0162 
                 ; 0001 0163 	// *SPIral* counter-measure: SPIral happens when vdes is between the new vector and vrb
                 ; 0001 0164         	minimum = min3(rb_angle,des_angle,new_angle);
                 _0x20038:
000492 8dee      	LDD  R30,Y+30
000493 8dff      	LDD  R31,Y+30+1
000494 940e 14bf 	CALL SUBOPT_0x9
000496 940e 14ee 	CALL SUBOPT_0x10
000498 940e 14ee 	CALL SUBOPT_0x10
00049a dedb      	RCALL _min3
00049b 01de      	MOVW R26,R28
00049c 9654      	ADIW R26,20
00049d 940e 14c6 	CALL SUBOPT_0xA
                 ; 0001 0165         	maximum = max3(rb_angle,des_angle,new_angle);
00049f 8dee      	LDD  R30,Y+30
0004a0 8dff      	LDD  R31,Y+30+1
0004a1 940e 14bf 	CALL SUBOPT_0x9
0004a3 940e 14ee 	CALL SUBOPT_0x10
0004a5 940e 14ee 	CALL SUBOPT_0x10
0004a7 dee1      	RCALL _max3
0004a8 01de      	MOVW R26,R28
0004a9 9652      	ADIW R26,18
0004aa 940e 14c6 	CALL SUBOPT_0xA
                 ; 0001 0166 
                 ; 0001 0167 	if (absolute(rb_angle - new_angle)> PI) {
0004ac 8da8      	LDD  R26,Y+24
0004ad 8db9      	LDD  R27,Y+24+1
0004ae 8dee      	LDD  R30,Y+30
0004af 8dff      	LDD  R31,Y+30+1
0004b0 1bea      	SUB  R30,R26
0004b1 0bfb      	SBC  R31,R27
0004b2 93fa      	ST   -Y,R31
0004b3 93ea      	ST   -Y,R30
0004b4 deb4      	RCALL _absolute
0004b5 940e 19d9 	CALL __CWD1
0004b7 940e 1886 	CALL __CDF1
0004b9 940e 14e0 	CALL SUBOPT_0xE
0004bb f009      	BREQ PC+2
0004bc f410      	BRCC PC+3
0004bd 940c 04e3 	JMP  _0x2003A
                 ; 0001 0168             		if (des_angle == maximum || des_angle == minimum)                rotation_angle = rotation_angle/15;
0004bf 89ea      	LDD  R30,Y+18
0004c0 89fb      	LDD  R31,Y+18+1
0004c1 8dac      	LDD  R26,Y+28
0004c2 8dbd      	LDD  R27,Y+28+1
0004c3 17ea      	CP   R30,R26
0004c4 07fb      	CPC  R31,R27
0004c5 f029      	BREQ _0x2003C
0004c6 89ec      	LDD  R30,Y+20
0004c7 89fd      	LDD  R31,Y+20+1
0004c8 17ea      	CP   R30,R26
0004c9 07fb      	CPC  R31,R27
0004ca f409      	BRNE _0x2003B
                 _0x2003C:
0004cb c00f      	RJMP _0x2030E
                 ; 0001 0169           	else
                 _0x2003B:
                 ; 0001 016A             		if (minimum < des_angle && des_angle < maximum)               rotation_angle = rotation_angle/15;
0004cc 8dec      	LDD  R30,Y+28
0004cd 8dfd      	LDD  R31,Y+28+1
0004ce 89ac      	LDD  R26,Y+20
0004cf 89bd      	LDD  R27,Y+20+1
0004d0 17ae      	CP   R26,R30
0004d1 07bf      	CPC  R27,R31
0004d2 f43c      	BRGE _0x20040
0004d3 89ea      	LDD  R30,Y+18
0004d4 89fb      	LDD  R31,Y+18+1
0004d5 8dac      	LDD  R26,Y+28
0004d6 8dbd      	LDD  R27,Y+28+1
0004d7 17ae      	CP   R26,R30
0004d8 07bf      	CPC  R27,R31
0004d9 f00c      	BRLT _0x20041
                 _0x20040:
0004da c008      	RJMP _0x2003F
                 _0x20041:
                 _0x2030E:
0004db 89ae      	LDD  R26,Y+22
0004dc 89bf      	LDD  R27,Y+22+1
0004dd e0ef      	LDI  R30,LOW(15)
0004de e0f0      	LDI  R31,HIGH(15)
0004df 940e 1a2e 	CALL __DIVW21
0004e1 8bee      	STD  Y+22,R30
0004e2 8bff      	STD  Y+22+1,R31
                 ; 0001 016B 	}
                 _0x2003F:
                 ; 0001 016C 
                 ; 0001 016D 	// Motor speed calculation
                 ; 0001 016E 	switch ( mode ) {
                 _0x2003A:
0004e3 a1ea      	LDD  R30,Y+34
0004e4 e0f0      	LDI  R31,0
                 ; 0001 016F 		case 'f': // Going forward
0004e5 36e6      	CPI  R30,LOW(0x66)
0004e6 e0a0      	LDI  R26,HIGH(0x66)
0004e7 07fa      	CPC  R31,R26
0004e8 f471      	BRNE _0x20045
                 ; 0001 0170     			wl = VBASE + rotation_angle * KMOVE;
0004e9 940e 14f1 	CALL SUBOPT_0x11
0004eb 963f      	ADIW R30,15
0004ec 8be8      	STD  Y+16,R30
0004ed 8bf9      	STD  Y+16+1,R31
                 ; 0001 0171    	 		wr = VBASE -  rotation_angle * KMOVE;
0004ee 940e 14f1 	CALL SUBOPT_0x11
0004f0 e0af      	LDI  R26,LOW(15)
0004f1 e0b0      	LDI  R27,HIGH(15)
0004f2 1bae      	SUB  R26,R30
0004f3 0bbf      	SBC  R27,R31
0004f4 87ae      	STD  Y+14,R26
0004f5 87bf      	STD  Y+14+1,R27
                 ; 0001 0172 			break;
0004f6 c013      	RJMP _0x20044
                 ; 0001 0173     	case 'b': // Going backward
                 _0x20045:
0004f7 36e2      	CPI  R30,LOW(0x62)
0004f8 e0a0      	LDI  R26,HIGH(0x62)
0004f9 07fa      	CPC  R31,R26
0004fa f479      	BRNE _0x20044
                 ; 0001 0174 			rotation_angle = -rotation_angle;
0004fb 940e 14d9 	CALL SUBOPT_0xD
                 ; 0001 0175 			wl = VBASE - rotation_angle * KMOVE;
0004fd 940e 14f1 	CALL SUBOPT_0x11
0004ff e0af      	LDI  R26,LOW(15)
000500 e0b0      	LDI  R27,HIGH(15)
000501 1bae      	SUB  R26,R30
000502 0bbf      	SBC  R27,R31
000503 8ba8      	STD  Y+16,R26
000504 8bb9      	STD  Y+16+1,R27
                 ; 0001 0176    	 		wr = VBASE +  rotation_angle * KMOVE;
000505 940e 14f1 	CALL SUBOPT_0x11
000507 963f      	ADIW R30,15
000508 87ee      	STD  Y+14,R30
000509 87ff      	STD  Y+14+1,R31
                 ; 0001 0177             break;
                 ; 0001 0178     }
                 _0x20044:
                 ; 0001 0179 	// Set speed for motor
                 ; 0001 017A     leftSpeed = wl;
00050a 89e8      	LDD  R30,Y+16
00050b 89f9      	LDD  R31,Y+16+1
00050c 93e0 04b9 	STS  _leftSpeed,R30
00050e 93f0 04ba 	STS  _leftSpeed+1,R31
                 ; 0001 017B     rightSpeed = wr;
000510 85ee      	LDD  R30,Y+14
000511 85ff      	LDD  R31,Y+14+1
000512 93e0 04bb 	STS  _rightSpeed,R30
000514 93f0 04bc 	STS  _rightSpeed+1,R31
                 ; 0001 017C 	// need some function here
                 ; 0001 017D }
000516 940e 1ad2 	CALL __LOADLOCR6
000518 96e7      	ADIW R28,55
000519 9508      	RET
                 ;
                 ;// some function to set speed = 0
                 ;void stop() {
                 ; 0001 0180 void stop() {
                 ; 0001 0181 
                 ; 0001 0182 }
                 ;
                 ;void rotate(int angle){
                 ; 0001 0184 void rotate(int angle){
                 ; 0001 0185 	angle = angle * LDIVR * 0.5;
                 ;	angle -> Y+0
                 ; 0001 0186 	setSpeed(angle, -angle);
                 ; 0001 0187 }
                 ;
                 ;
                 ;//------POSITION CONTROL-----
                 ;unsigned int sd=0;// dat khoang cach  di chuyen (xung)
                 ;unsigned int oldd=0;// bien luu gia tri vi tri cu
                 ;unsigned char flagwaitctrRobot = 0;
                 ;//-----ANGLES CONTROL----
                 ;unsigned int sa=0;// dat goc quay (xung) ( 54 xung/vong quay)
                 ;unsigned int olda=0;// bien luu gia tri goc cu
                 ;unsigned char  flagwaitctrAngle = 0;
                 ;//-----ROBOT BEHAVIOR CONTROL-----
                 ;unsigned int flagtask=0;
                 ;unsigned int flagtaskold=0;
                 ;unsigned int flaghuongtrue=0;
                 ;int verranglekisum = 0;
                 ;//=====ENCODER======
                 ; unsigned int QEL=0;
                 ; unsigned int QER=0;
                 ;//=====LCD=========
                 ; unsigned char menu=0,test=0,ok=0,runing_test=0,run_robot=0,ft=1,timer=0;
                 
                 	.DSEG
                 ;flash unsigned char ASCII[][5] = {
                 ; {0x00, 0x00, 0x00, 0x00, 0x00} // 20
                 ;,{0x00, 0x00, 0x5f, 0x00, 0x00} // 21 !
                 ;,{0x00, 0x07, 0x00, 0x07, 0x00} // 22 "
                 ;,{0x14, 0x7f, 0x14, 0x7f, 0x14} // 23 #
                 ;,{0x24, 0x2a, 0x7f, 0x2a, 0x12} // 24 $
                 ;,{0x23, 0x13, 0x08, 0x64, 0x62} // 25 %
                 ;,{0x36, 0x49, 0x55, 0x22, 0x50} // 26 &
                 ;,{0x00, 0x05, 0x03, 0x00, 0x00} // 27 '
                 ;,{0x00, 0x1c, 0x22, 0x41, 0x00} // 28 (
                 ;,{0x00, 0x41, 0x22, 0x1c, 0x00} // 29 )
                 ;,{0x14, 0x08, 0x3e, 0x08, 0x14} // 2a *
                 ;,{0x08, 0x08, 0x3e, 0x08, 0x08} // 2b +
                 ;,{0x00, 0x50, 0x30, 0x00, 0x00} // 2c ,
                 ;,{0x08, 0x08, 0x08, 0x08, 0x08} // 2d -
                 ;,{0x00, 0x60, 0x60, 0x00, 0x00} // 2e .
                 ;,{0x20, 0x10, 0x08, 0x04, 0x02} // 2f /
                 ;,{0x3e, 0x51, 0x49, 0x45, 0x3e} // 30 0
                 ;,{0x00, 0x42, 0x7f, 0x40, 0x00} // 31 1
                 ;,{0x42, 0x61, 0x51, 0x49, 0x46} // 32 2
                 ;,{0x21, 0x41, 0x45, 0x4b, 0x31} // 33 3
                 ;,{0x18, 0x14, 0x12, 0x7f, 0x10} // 34 4
                 ;,{0x27, 0x45, 0x45, 0x45, 0x39} // 35 5
                 ;,{0x3c, 0x4a, 0x49, 0x49, 0x30} // 36 6
                 ;,{0x01, 0x71, 0x09, 0x05, 0x03} // 37 7
                 ;,{0x36, 0x49, 0x49, 0x49, 0x36} // 38 8
                 ;,{0x06, 0x49, 0x49, 0x29, 0x1e} // 39 9
                 ;,{0x00, 0x36, 0x36, 0x00, 0x00} // 3a :
                 ;,{0x00, 0x56, 0x36, 0x00, 0x00} // 3b ;
                 ;,{0x08, 0x14, 0x22, 0x41, 0x00} // 3c <
                 ;,{0x14, 0x14, 0x14, 0x14, 0x14} // 3d =
                 ;,{0x00, 0x41, 0x22, 0x14, 0x08} // 3e >
                 ;,{0x02, 0x01, 0x51, 0x09, 0x06} // 3f ?
                 ;,{0x32, 0x49, 0x79, 0x41, 0x3e} // 40 @
                 ;,{0x7e, 0x11, 0x11, 0x11, 0x7e} // 41 A
                 ;,{0x7f, 0x49, 0x49, 0x49, 0x36} // 42 B
                 ;,{0x3e, 0x41, 0x41, 0x41, 0x22} // 43 C
                 ;,{0x7f, 0x41, 0x41, 0x22, 0x1c} // 44 D
                 ;,{0x7f, 0x49, 0x49, 0x49, 0x41} // 45 E
                 ;,{0x7f, 0x09, 0x09, 0x09, 0x01} // 46 F
                 ;,{0x3e, 0x41, 0x49, 0x49, 0x7a} // 47 G
                 ;,{0x7f, 0x08, 0x08, 0x08, 0x7f} // 48 H
                 ;,{0x00, 0x41, 0x7f, 0x41, 0x00} // 49 I
                 ;,{0x20, 0x40, 0x41, 0x3f, 0x01} // 4a J
                 ;,{0x7f, 0x08, 0x14, 0x22, 0x41} // 4b K
                 ;,{0x7f, 0x40, 0x40, 0x40, 0x40} // 4c L
                 ;,{0x7f, 0x02, 0x0c, 0x02, 0x7f} // 4d M
                 ;,{0x7f, 0x04, 0x08, 0x10, 0x7f} // 4e N
                 ;,{0x3e, 0x41, 0x41, 0x41, 0x3e} // 4f O
                 ;,{0x7f, 0x09, 0x09, 0x09, 0x06} // 50 P
                 ;,{0x3e, 0x41, 0x51, 0x21, 0x5e} // 51 Q
                 ;,{0x7f, 0x09, 0x19, 0x29, 0x46} // 52 R
                 ;,{0x46, 0x49, 0x49, 0x49, 0x31} // 53 S
                 ;,{0x01, 0x01, 0x7f, 0x01, 0x01} // 54 T
                 ;,{0x3f, 0x40, 0x40, 0x40, 0x3f} // 55 U
                 ;,{0x1f, 0x20, 0x40, 0x20, 0x1f} // 56 V
                 ;,{0x3f, 0x40, 0x38, 0x40, 0x3f} // 57 W
                 ;,{0x63, 0x14, 0x08, 0x14, 0x63} // 58 X
                 ;,{0x07, 0x08, 0x70, 0x08, 0x07} // 59 Y
                 ;,{0x61, 0x51, 0x49, 0x45, 0x43} // 5a Z
                 ;,{0x00, 0x7f, 0x41, 0x41, 0x00} // 5b [
                 ;,{0x02, 0x04, 0x08, 0x10, 0x20} // 5c 
                 ;,{0x00, 0x41, 0x41, 0x7f, 0x00} // 5d ]
                 ;,{0x04, 0x02, 0x01, 0x02, 0x04} // 5e ^
                 ;,{0x40, 0x40, 0x40, 0x40, 0x40} // 5f _
                 ;,{0x00, 0x01, 0x02, 0x04, 0x00} // 60 `
                 ;,{0x20, 0x54, 0x54, 0x54, 0x78} // 61 a
                 ;,{0x7f, 0x48, 0x44, 0x44, 0x38} // 62 b
                 ;,{0x38, 0x44, 0x44, 0x44, 0x20} // 63 c
                 ;,{0x38, 0x44, 0x44, 0x48, 0x7f} // 64 d
                 ;,{0x38, 0x54, 0x54, 0x54, 0x18} // 65 e
                 ;,{0x08, 0x7e, 0x09, 0x01, 0x02} // 66 f
                 ;,{0x0c, 0x52, 0x52, 0x52, 0x3e} // 67 g
                 ;,{0x7f, 0x08, 0x04, 0x04, 0x78} // 68 h
                 ;,{0x00, 0x44, 0x7d, 0x40, 0x00} // 69 i
                 ;,{0x20, 0x40, 0x44, 0x3d, 0x00} // 6a j
                 ;,{0x7f, 0x10, 0x28, 0x44, 0x00} // 6b k
                 ;,{0x00, 0x41, 0x7f, 0x40, 0x00} // 6c l
                 ;,{0x7c, 0x04, 0x18, 0x04, 0x78} // 6d m
                 ;,{0x7c, 0x08, 0x04, 0x04, 0x78} // 6e n
                 ;,{0x38, 0x44, 0x44, 0x44, 0x38} // 6f o
                 ;,{0x7c, 0x14, 0x14, 0x14, 0x08} // 70 p
                 ;,{0x08, 0x14, 0x14, 0x18, 0x7c} // 71 q
                 ;,{0x7c, 0x08, 0x04, 0x04, 0x08} // 72 r
                 ;,{0x48, 0x54, 0x54, 0x54, 0x20} // 73 s
                 ;,{0x04, 0x3f, 0x44, 0x40, 0x20} // 74 t
                 ;,{0x3c, 0x40, 0x40, 0x20, 0x7c} // 75 u
                 ;,{0x1c, 0x20, 0x40, 0x20, 0x1c} // 76 v
                 ;,{0x3c, 0x40, 0x30, 0x40, 0x3c} // 77 w
                 ;,{0x44, 0x28, 0x10, 0x28, 0x44} // 78 x
                 ;,{0x0c, 0x50, 0x50, 0x50, 0x3c} // 79 y
                 ;,{0x44, 0x64, 0x54, 0x4c, 0x44} // 7a z
                 ;,{0x00, 0x08, 0x36, 0x41, 0x00} // 7b {
                 ;,{0x00, 0x00, 0x7f, 0x00, 0x00} // 7c |
                 ;,{0x00, 0x41, 0x36, 0x08, 0x00} // 7d }
                 ;,{0x10, 0x08, 0x08, 0x10, 0x08} // 7e ?
                 ;,{0x78, 0x46, 0x41, 0x46, 0x78} // 7f ?
                 ;};
                 ;
                 ;/* LED FUNCTIONS */
                 ;void LEDLtoggle()
                 ; 0001 0201 {
                 
                 	.CSEG
                 _LEDLtoggle:
                 ; 0001 0202     if(LEDL==0){LEDL=1;}else{LEDL=0;}
00051a 99ac      	SBIC 0x15,4
00051b c002      	RJMP _0x20048
00051c 9aac      	SBI  0x15,4
00051d c001      	RJMP _0x2004B
                 _0x20048:
00051e 98ac      	CBI  0x15,4
                 _0x2004B:
                 ; 0001 0203 }
00051f 9508      	RET
                 ;
                 ;void LEDRtoggle()
                 ; 0001 0206 {
                 _LEDRtoggle:
                 ; 0001 0207     if(LEDR==0){LEDR=1;}else{LEDR=0;}
000520 99ad      	SBIC 0x15,5
000521 c002      	RJMP _0x2004E
000522 9aad      	SBI  0x15,5
000523 c001      	RJMP _0x20051
                 _0x2004E:
000524 98ad      	CBI  0x15,5
                 _0x20051:
                 ; 0001 0208 }
000525 9508      	RET
                 ;
                 ;/* SPI */
                 ;void sPItx(unsigned char temtx)
                 ; 0001 020C {
                 _sPItx:
                 ; 0001 020D // unsigned char transPI;
                 ; 0001 020E     SPDR = temtx;
                 ;	temtx -> Y+0
000526 81e8      	LD   R30,Y
000527 b9ef      	OUT  0xF,R30
                 ; 0001 020F     while (!(SPSR & 0x80));
                 _0x20054:
000528 9b77      	SBIS 0xE,7
000529 cffe      	RJMP _0x20054
                 ; 0001 0210 }
00052a c1b8      	RJMP _0x20C0008
                 ;
                 ;/* LCD FUNCTIONS */
                 ;void LcdWrite(unsigned char dc, unsigned char data)
                 ; 0001 0214 {
                 _LcdWrite:
                 ; 0001 0215     DC = dc;
                 ;	dc -> Y+1
                 ;	data -> Y+0
00052b 81e9      	LDD  R30,Y+1
00052c 30e0      	CPI  R30,0
00052d f411      	BRNE _0x20057
00052e 98c2      	CBI  0x18,2
00052f c001      	RJMP _0x20058
                 _0x20057:
000530 9ac2      	SBI  0x18,2
                 _0x20058:
                 ; 0001 0216     SCE=1;
000531 9ac1      	SBI  0x18,1
                 ; 0001 0217     SCE=0;
000532 98c1      	CBI  0x18,1
                 ; 0001 0218     sPItx(data);
000533 81e8      	LD   R30,Y
000534 93ea      	ST   -Y,R30
000535 dff0      	RCALL _sPItx
                 ; 0001 0219     SCE=1;
000536 9ac1      	SBI  0x18,1
                 ; 0001 021A }
000537 c0b2      	RJMP _0x20C0009
                 ;//This takes a large array of bits and sends them to the LCD
                 ;void LcdBitmap(char my_array[]){
                 ; 0001 021C void LcdBitmap(char my_array[]){
                 ; 0001 021D     int index = 0;
                 ; 0001 021E     for (index = 0 ; index < (LCD_X * LCD_Y / 8) ; index++)
                 ;	my_array -> Y+2
                 ;	index -> R16,R17
                 ; 0001 021F         LcdWrite(LCD_D, my_array[index]);
                 ; 0001 0220 }
                 ;
                 ;void hc(int x, int y) {
                 ; 0001 0222 void hc(int x, int y) {
                 _hc:
                 ; 0001 0223     LcdWrite(0, 0x40 | x);  // Row.  ?
                 ;	x -> Y+2
                 ;	y -> Y+0
000538 e0e0      	LDI  R30,LOW(0)
000539 93ea      	ST   -Y,R30
00053a 81eb      	LDD  R30,Y+3
00053b 64e0      	ORI  R30,0x40
00053c 940e 14f8 	CALL SUBOPT_0x12
                 ; 0001 0224     LcdWrite(0, 0x80 | y);  // Column.
00053e 81e9      	LDD  R30,Y+1
00053f 68e0      	ORI  R30,0x80
000540 93ea      	ST   -Y,R30
000541 dfe9      	RCALL _LcdWrite
                 ; 0001 0225 }
                 _0x20C000E:
000542 9624      	ADIW R28,4
000543 9508      	RET
                 ;
                 ;void LcdCharacter(unsigned char character)
                 ; 0001 0228 {
                 _LcdCharacter:
                 ; 0001 0229     int index = 0;
                 ; 0001 022A     LcdWrite(LCD_D, 0x00);
000544 940e 14fe 	CALL SUBOPT_0x13
                 ;	character -> Y+2
                 ;	index -> R16,R17
                 ; 0001 022B     for (index = 0; index < 5; index++)
                 _0x20063:
                +
000546 3005     +CPI R16 , LOW ( 5 )
000547 e0e0     +LDI R30 , HIGH ( 5 )
000548 071e     +CPC R17 , R30
                 	__CPWRN 16,17,5
000549 f42c      	BRGE _0x20064
                 ; 0001 022C     {
                 ; 0001 022D         LcdWrite(LCD_D, ASCII[character - 0x20][index]);
00054a 940e 150b 	CALL SUBOPT_0x14
                 ; 0001 022E     }
                +
00054c 5f0f     +SUBI R16 , LOW ( - 1 )
00054d 4f1f     +SBCI R17 , HIGH ( - 1 )
                 	__ADDWRN 16,17,1
00054e cff7      	RJMP _0x20063
                 _0x20064:
                 ; 0001 022F     LcdWrite(LCD_D, 0x00);
00054f c00b      	RJMP _0x20C000C
                 ; 0001 0230 }
                 ;
                 ;void wc(unsigned char character)
                 ; 0001 0233 {
                 _wc:
                 ; 0001 0234     int index = 0;
                 ; 0001 0235     LcdWrite(LCD_D, 0x00);
000550 940e 14fe 	CALL SUBOPT_0x13
                 ;	character -> Y+2
                 ;	index -> R16,R17
                 ; 0001 0236     for (index = 0; index < 5; index++)
                 _0x20066:
                +
000552 3005     +CPI R16 , LOW ( 5 )
000553 e0e0     +LDI R30 , HIGH ( 5 )
000554 071e     +CPC R17 , R30
                 	__CPWRN 16,17,5
000555 f42c      	BRGE _0x20067
                 ; 0001 0237     {
                 ; 0001 0238         LcdWrite(LCD_D, ASCII[character - 0x20][index]);
000556 940e 150b 	CALL SUBOPT_0x14
                 ; 0001 0239     }
                +
000558 5f0f     +SUBI R16 , LOW ( - 1 )
000559 4f1f     +SBCI R17 , HIGH ( - 1 )
                 	__ADDWRN 16,17,1
00055a cff7      	RJMP _0x20066
                 _0x20067:
                 ; 0001 023A     LcdWrite(LCD_D, 0x00);
                 _0x20C000C:
00055b e0e1      	LDI  R30,LOW(1)
00055c 940e 151c 	CALL SUBOPT_0x15
                 ; 0001 023B }
00055e 8119      	LDD  R17,Y+1
00055f 8108      	LDD  R16,Y+0
                 _0x20C000D:
000560 9623      	ADIW R28,3
000561 9508      	RET
                 ;
                 ;void ws(unsigned char *characters)
                 ; 0001 023E {
                 _ws:
                 ; 0001 023F     while (*characters)
                 ;	*characters -> Y+0
                 _0x20068:
000562 81a8      	LD   R26,Y
000563 81b9      	LDD  R27,Y+1
000564 91ec      	LD   R30,X
000565 30e0      	CPI  R30,0
000566 f031      	BREQ _0x2006A
                 ; 0001 0240     {
                 ; 0001 0241         LcdCharacter(*characters++);
000567 91ed      	LD   R30,X+
000568 83a8      	ST   Y,R26
000569 83b9      	STD  Y+1,R27
00056a 93ea      	ST   -Y,R30
00056b dfd8      	RCALL _LcdCharacter
                 ; 0001 0242     }
00056c cff5      	RJMP _0x20068
                 _0x2006A:
                 ; 0001 0243 }
00056d c07c      	RJMP _0x20C0009
                 ;
                 ;void LcdClear(void)
                 ; 0001 0246 {
                 _LcdClear:
                 ; 0001 0247     int index=0;
                 ; 0001 0248     for (index = 0; index < LCD_X * LCD_Y / 8; index++)
00056e 940e 1521 	CALL SUBOPT_0x16
                 ;	index -> R16,R17
                 _0x2006C:
                +
000570 3f08     +CPI R16 , LOW ( 504 )
000571 e0e1     +LDI R30 , HIGH ( 504 )
000572 071e     +CPC R17 , R30
                 	__CPWRN 16,17,504
000573 f434      	BRGE _0x2006D
                 ; 0001 0249     {
                 ; 0001 024A         LcdWrite(LCD_D, 0);
000574 e0e1      	LDI  R30,LOW(1)
000575 940e 151c 	CALL SUBOPT_0x15
                 ; 0001 024B     }
                +
000577 5f0f     +SUBI R16 , LOW ( - 1 )
000578 4f1f     +SBCI R17 , HIGH ( - 1 )
                 	__ADDWRN 16,17,1
000579 cff6      	RJMP _0x2006C
                 _0x2006D:
                 ; 0001 024C     hc(0, 0); //After we clear the display, return to the home position
00057a c00c      	RJMP _0x20C000B
                 ; 0001 024D }
                 ;
                 ;void clear(void)
                 ; 0001 0250 {
                 _clear:
                 ; 0001 0251     int index=0;
                 ; 0001 0252     for (index = 0; index < LCD_X * LCD_Y / 8; index++)
00057b 940e 1521 	CALL SUBOPT_0x16
                 ;	index -> R16,R17
                 _0x2006F:
                +
00057d 3f08     +CPI R16 , LOW ( 504 )
00057e e0e1     +LDI R30 , HIGH ( 504 )
00057f 071e     +CPC R17 , R30
                 	__CPWRN 16,17,504
000580 f434      	BRGE _0x20070
                 ; 0001 0253     {
                 ; 0001 0254         LcdWrite(LCD_D, 0);
000581 e0e1      	LDI  R30,LOW(1)
000582 940e 151c 	CALL SUBOPT_0x15
                 ; 0001 0255     }
                +
000584 5f0f     +SUBI R16 , LOW ( - 1 )
000585 4f1f     +SBCI R17 , HIGH ( - 1 )
                 	__ADDWRN 16,17,1
000586 cff6      	RJMP _0x2006F
                 _0x20070:
                 ; 0001 0256     hc(0, 0); //After we clear the display, return to the home position
                 _0x20C000B:
000587 e0e0      	LDI  R30,LOW(0)
000588 e0f0      	LDI  R31,HIGH(0)
000589 940e 1528 	CALL SUBOPT_0x17
                 ; 0001 0257 }
00058b 9109      	LD   R16,Y+
00058c 9119      	LD   R17,Y+
00058d 9508      	RET
                 ;
                 ;void wn164(unsigned int so)
                 ; 0001 025A {
                 _wn164:
                 ; 0001 025B     unsigned char a[5],i;
                 ; 0001 025C     for(i=0;i<5;i++)
00058e 9725      	SBIW R28,5
00058f 931a      	ST   -Y,R17
                 ;	so -> Y+6
                 ;	a -> Y+1
                 ;	i -> R17
000590 e010      	LDI  R17,LOW(0)
                 _0x20072:
000591 3015      	CPI  R17,5
000592 f430      	BRSH _0x20073
                 ; 0001 025D     {
                 ; 0001 025E         a[i]=so%10;        //a[0]= byte thap nhat
000593 940e 1530 	CALL SUBOPT_0x18
000595 940e 1533 	CALL SUBOPT_0x19
                 ; 0001 025F         so=so/10;
                 ; 0001 0260     }
000597 5f1f      	SUBI R17,-1
000598 cff8      	RJMP _0x20072
                 _0x20073:
                 ; 0001 0261     for(i=1;i<5;i++)
000599 e011      	LDI  R17,LOW(1)
                 _0x20075:
00059a 3015      	CPI  R17,5
00059b f438      	BRSH _0x20076
                 ; 0001 0262         {wc(a[4-i]+0x30);}
00059c 940e 1530 	CALL SUBOPT_0x18
00059e 940e 1549 	CALL SUBOPT_0x1A
0005a0 dfaf      	RCALL _wc
0005a1 5f1f      	SUBI R17,-1
0005a2 cff7      	RJMP _0x20075
                 _0x20076:
                 ; 0001 0263 }
0005a3 c031      	RJMP _0x20C000A
                 ;
                 ;void LcdInitialise()
                 ; 0001 0266 {
                 _LcdInitialise:
                 ; 0001 0267     //reset
                 ; 0001 0268     RST=0;
0005a4 98c0      	CBI  0x18,0
                 ; 0001 0269     delay_us(10);
                +
0005a5 e18b     +LDI R24 , LOW ( 27 )
                +__DELAY_USB_LOOP :
0005a6 958a     +DEC R24
0005a7 f7f1     +BRNE __DELAY_USB_LOOP
                 	__DELAY_USB 27
                 ; 0001 026A     RST=1;
0005a8 9ac0      	SBI  0x18,0
                 ; 0001 026B 
                 ; 0001 026C     delay_ms(1000);
0005a9 940e 1557 	CALL SUBOPT_0x1B
                 ; 0001 026D     //khoi dong
                 ; 0001 026E     LcdWrite(LCD_C, 0x21 );  //Tell LCD that extended commands follow
0005ab e0e0      	LDI  R30,LOW(0)
0005ac 93ea      	ST   -Y,R30
0005ad e2e1      	LDI  R30,LOW(33)
0005ae 940e 14f8 	CALL SUBOPT_0x12
                 ; 0001 026F     LcdWrite(LCD_C, 0xBF  );  //Set LCD Vop (Contrast): Try 0xB1(good @ 3.3V) or 0xBF = Dam nhat
0005b0 ebef      	LDI  R30,LOW(191)
0005b1 940e 14f8 	CALL SUBOPT_0x12
                 ; 0001 0270     LcdWrite(LCD_C, 0x06 );  // Set Temp coefficent. //0x04
0005b3 e0e6      	LDI  R30,LOW(6)
0005b4 940e 14f8 	CALL SUBOPT_0x12
                 ; 0001 0271     LcdWrite(LCD_C, 0x13 );  //LCD bias mode 1:48: Try 0x13 or 0x14
0005b6 e1e3      	LDI  R30,LOW(19)
0005b7 940e 14f8 	CALL SUBOPT_0x12
                 ; 0001 0272     LcdWrite(LCD_C, 0x20 );  //We must send 0x20 before modifying the display control mode
0005b9 e2e0      	LDI  R30,LOW(32)
0005ba 940e 14f8 	CALL SUBOPT_0x12
                 ; 0001 0273     LcdWrite(LCD_C, 0x0C );  //Set display control, normal mode. 0x0D for inverse, 0x0C normal
0005bc e0ec      	LDI  R30,LOW(12)
0005bd 93ea      	ST   -Y,R30
0005be df6c      	RCALL _LcdWrite
                 ; 0001 0274 }
0005bf 9508      	RET
                 ;// Hien thi so 16 bits
                 ;void wn16(unsigned int so)
                 ; 0001 0277 {
                 _wn16:
                 ; 0001 0278     unsigned char a[5],i;
                 ; 0001 0279     for(i=0;i<5;i++)
0005c0 9725      	SBIW R28,5
0005c1 931a      	ST   -Y,R17
                 ;	so -> Y+6
                 ;	a -> Y+1
                 ;	i -> R17
0005c2 e010      	LDI  R17,LOW(0)
                 _0x2007C:
0005c3 3015      	CPI  R17,5
0005c4 f430      	BRSH _0x2007D
                 ; 0001 027A     {
                 ; 0001 027B         a[i]=so%10;        //a[0]= byte thap nhat
0005c5 940e 1530 	CALL SUBOPT_0x18
0005c7 940e 1533 	CALL SUBOPT_0x19
                 ; 0001 027C         so=so/10;
                 ; 0001 027D     }
0005c9 5f1f      	SUBI R17,-1
0005ca cff8      	RJMP _0x2007C
                 _0x2007D:
                 ; 0001 027E     for(i=0;i<5;i++)
0005cb e010      	LDI  R17,LOW(0)
                 _0x2007F:
0005cc 3015      	CPI  R17,5
0005cd f438      	BRSH _0x20080
                 ; 0001 027F     {LcdCharacter(a[4-i]+0x30);}
0005ce 940e 1530 	CALL SUBOPT_0x18
0005d0 940e 1549 	CALL SUBOPT_0x1A
0005d2 df71      	RCALL _LcdCharacter
0005d3 5f1f      	SUBI R17,-1
0005d4 cff7      	RJMP _0x2007F
                 _0x20080:
                 ; 0001 0280 }
                 _0x20C000A:
0005d5 8118      	LDD  R17,Y+0
0005d6 9628      	ADIW R28,8
0005d7 9508      	RET
                 ;// Hien thi so 16 bits co dau
                 ; void wn16s( int so)
                 ; 0001 0283 {
                 _wn16s:
                 ; 0001 0284     if(so<0){so=0-so; LcdCharacter('-');} else{ LcdCharacter(' ');}
                 ;	so -> Y+0
0005d8 81a9      	LDD  R26,Y+1
0005d9 23aa      	TST  R26
0005da f442      	BRPL _0x20081
0005db 81a8      	LD   R26,Y
0005dc 81b9      	LDD  R27,Y+1
0005dd e0e0      	LDI  R30,LOW(0)
0005de e0f0      	LDI  R31,HIGH(0)
0005df 940e 155d 	CALL SUBOPT_0x1C
0005e1 e2ed      	LDI  R30,LOW(45)
0005e2 c001      	RJMP _0x2030F
                 _0x20081:
0005e3 e2e0      	LDI  R30,LOW(32)
                 _0x2030F:
0005e4 93ea      	ST   -Y,R30
0005e5 df5e      	RCALL _LcdCharacter
                 ; 0001 0285     wn16(so);
0005e6 81e8      	LD   R30,Y
0005e7 81f9      	LDD  R31,Y+1
0005e8 940e 1562 	CALL SUBOPT_0x1D
                 ; 0001 0286 }
                 _0x20C0009:
0005ea 9622      	ADIW R28,2
0005eb 9508      	RET
                 ;// hien thi so 32bit co dau
                 ; void wn32s( int so)
                 ; 0001 0289 {
                 ; 0001 028A     char tmp[20];
                 ; 0001 028B     sprintf(tmp,"%d",so);
                 ;	so -> Y+20
                 ;	tmp -> Y+0
                 ; 0001 028C     ws(tmp);
                 ; 0001 028D }
                 ;// Hien thi so 32bit co dau
                 ; void wnf( float so)
                 ; 0001 0290 {
                 ; 0001 0291     char tmp[30];
                 ; 0001 0292     sprintf(tmp,"%0.2f",so);
                 ;	so -> Y+30
                 ;	tmp -> Y+0
                 ; 0001 0293     ws(tmp);
                 ; 0001 0294 }
                 ;// Hien thi so 32bit co dau
                 ; void wfmt(float so)
                 ; 0001 0297 {
                 ; 0001 0298     char tmp[30];
                 ; 0001 0299     sprintf(tmp,"%0.2f",so);
                 ;	so -> Y+30
                 ;	tmp -> Y+0
                 ; 0001 029A     ws(tmp);
                 ; 0001 029B }
                 ;/* SPI & LCD INIT */
                 ;void SPIinit()
                 ; 0001 029E {
                 _SPIinit:
                 ; 0001 029F     SPCR |=1<<SPE | 1<<MSTR;                                         //if sPI is used, uncomment this section out
0005ec b1ed      	IN   R30,0xD
0005ed 65e0      	ORI  R30,LOW(0x50)
0005ee b9ed      	OUT  0xD,R30
                 ; 0001 02A0     SPSR |=1<<SPI2X;
0005ef 9a70      	SBI  0xE,0
                 ; 0001 02A1 }
0005f0 9508      	RET
                 ;void LCDinit()
                 ; 0001 02A3 {
                 _LCDinit:
                 ; 0001 02A4     LcdInitialise();
0005f1 dfb2      	RCALL _LcdInitialise
                 ; 0001 02A5     LcdClear();
0005f2 df7b      	RCALL _LcdClear
                 ; 0001 02A6     ws(" <AKBOTKIT>");
                +
0005f3 e6e0     +LDI R30 , LOW ( _0x20083 + ( 0 ) )
0005f4 e0f2     +LDI R31 , HIGH ( _0x20083 + ( 0 ) )
                 	__POINTW1MN _0x20083,0
0005f5 940e 1566 	CALL SUBOPT_0x1E
                 ; 0001 02A7 }
0005f7 9508      	RET
                 
                 	.DSEG
                 _0x20083:
000260           	.BYTE 0xC
                 ;
                 ;/* ADC */
                 ;#define ADC_VREF_TYPE 0x40
                 ;// Read the AD conversion result
                 ;unsigned int read_adc(unsigned char adc_input)
                 ; 0001 02AD {
                 
                 	.CSEG
                 _read_adc:
                 ; 0001 02AE     ADMUX=adc_input | (ADC_VREF_TYPE & 0xff);
                 ;	adc_input -> Y+0
0005f8 81e8      	LD   R30,Y
0005f9 64e0      	ORI  R30,0x40
0005fa b9e7      	OUT  0x7,R30
                 ; 0001 02AF     // Delay needed for the stabilization of the ADC input voltage
                 ; 0001 02B0     delay_us(10);
                +
0005fb e18b     +LDI R24 , LOW ( 27 )
                +__DELAY_USB_LOOP :
0005fc 958a     +DEC R24
0005fd f7f1     +BRNE __DELAY_USB_LOOP
                 	__DELAY_USB 27
                 ; 0001 02B1     // Start the AD conversion
                 ; 0001 02B2     ADCSRA|=0x40;
0005fe 9a36      	SBI  0x6,6
                 ; 0001 02B3     // Wait for the AD conversion to complete
                 ; 0001 02B4     while ((ADCSRA & 0x10)==0);
                 _0x20084:
0005ff 9b34      	SBIS 0x6,4
000600 cffe      	RJMP _0x20084
                 ; 0001 02B5     ADCSRA|=0x10;
000601 9a34      	SBI  0x6,4
                 ; 0001 02B6     return ADCW;
000602 b1e4      	IN   R30,0x4
000603 b1f5      	IN   R31,0x4+1
000604 c0de      	RJMP _0x20C0008
                 ; 0001 02B7 }
                 ;
                 ;/* UART BLUETOOTH */
                 ;#ifndef RXB8
                 ;#define RXB8 1
                 ;#endif
                 ;
                 ;#ifndef TXB8
                 ;#define TXB8 0
                 ;#endif
                 ;
                 ;#ifndef UPE
                 ;#define UPE 2
                 ;#endif
                 ;
                 ;#ifndef DOR
                 ;#define DOR 3
                 ;#endif
                 ;
                 ;#ifndef FE
                 ;#define FE 4
                 ;#endif
                 ;
                 ;#ifndef UDRE
                 ;#define UDRE 5
                 ;#endif
                 ;
                 ;#ifndef RXC
                 ;#define RXC 7
                 ;#endif
                 ;
                 ;#define FRAMING_ERROR (1<<FE)
                 ;#define PARITY_ERROR (1<<UPE)
                 ;#define DATA_OVERRUN (1<<DOR)
                 ;#define DATA_REGISTER_EMPTY (1<<UDRE)
                 ;#define RX_COMPLETE (1<<RXC)
                 ;
                 ;// USART Receiver buffer
                 ;#define RX_BUFFER_SIZE 8
                 ;char rx_buffer[RX_BUFFER_SIZE];
                 ;
                 ;#if RX_BUFFER_SIZE <= 256
                 ;unsigned char rx_wr_index,rx_rd_index,rx_counter;
                 ;#else
                 ;unsigned int rx_wr_index,rx_rd_index,rx_counter;
                 ;#endif
                 ;
                 ;// This flag is set on USART Receiver buffer overflow
                 ;bit rx_buffer_overflow;
                 ;
                 ;// USART Receiver interrupt service routine
                 ;interrupt [USART_RXC] void usart_rx_isr(void)
                 ; 0001 02EB {
                 _usart_rx_isr:
000605 93aa      	ST   -Y,R26
000606 93ea      	ST   -Y,R30
000607 93fa      	ST   -Y,R31
000608 b7ef      	IN   R30,SREG
000609 93ea      	ST   -Y,R30
                 ; 0001 02EC     char status,data;
                 ; 0001 02ED     status=UCSRA;
00060a 931a      	ST   -Y,R17
00060b 930a      	ST   -Y,R16
                 ;	status -> R17
                 ;	data -> R16
00060c b11b      	IN   R17,11
                 ; 0001 02EE     data=UDR;
00060d b10c      	IN   R16,12
                 ; 0001 02EF     if ((status & (FRAMING_ERROR | PARITY_ERROR | DATA_OVERRUN))==0)
00060e 2fe1      	MOV  R30,R17
00060f 71ec      	ANDI R30,LOW(0x1C)
000610 f4d9      	BRNE _0x20087
                 ; 0001 02F0     {
                 ; 0001 02F1         rx_buffer[rx_wr_index++]=data;
000611 91e0 050e 	LDS  R30,_rx_wr_index
000613 5fef      	SUBI R30,-LOW(1)
000614 93e0 050e 	STS  _rx_wr_index,R30
000616 940e 156a 	CALL SUBOPT_0x1F
000618 8300      	ST   Z,R16
                 ; 0001 02F2         #if RX_BUFFER_SIZE == 256
                 ; 0001 02F3         // special case for receiver buffer size=256
                 ; 0001 02F4         if (++rx_counter == 0) {
                 ; 0001 02F5         #else
                 ; 0001 02F6         if (rx_wr_index == RX_BUFFER_SIZE) rx_wr_index=0;
000619 91a0 050e 	LDS  R26,_rx_wr_index
00061b 30a8      	CPI  R26,LOW(0x8)
00061c f419      	BRNE _0x20088
00061d e0e0      	LDI  R30,LOW(0)
00061e 93e0 050e 	STS  _rx_wr_index,R30
                 ; 0001 02F7         if (++rx_counter == RX_BUFFER_SIZE) {
                 _0x20088:
000620 91a0 0510 	LDS  R26,_rx_counter
000622 5faf      	SUBI R26,-LOW(1)
000623 93a0 0510 	STS  _rx_counter,R26
000625 30a8      	CPI  R26,LOW(0x8)
000626 f429      	BRNE _0x20089
                 ; 0001 02F8             rx_counter=0;
000627 e0e0      	LDI  R30,LOW(0)
000628 93e0 0510 	STS  _rx_counter,R30
                 ; 0001 02F9         #endif
                 ; 0001 02FA             rx_buffer_overflow=1;
00062a 9468      	SET
00062b f820      	BLD  R2,0
                 ; 0001 02FB         }
                 ; 0001 02FC     }
                 _0x20089:
                 ; 0001 02FD }
                 _0x20087:
00062c 9109      	LD   R16,Y+
00062d 9119      	LD   R17,Y+
00062e c03a      	RJMP _0x20326
                 ;
                 ;#ifndef _DEBUG_TERMINAL_IO_
                 ;// Get a character from the USART Receiver buffer
                 ;#define _ALTERNATE_GETCHAR_
                 ;#pragma used+
                 ;char getchar(void)
                 ; 0001 0304 {
                 _getchar:
                 ; 0001 0305     char data;
                 ; 0001 0306     while (rx_counter==0);
00062f 931a      	ST   -Y,R17
                 ;	data -> R17
                 _0x2008A:
000630 91e0 0510 	LDS  R30,_rx_counter
000632 30e0      	CPI  R30,0
000633 f3e1      	BREQ _0x2008A
                 ; 0001 0307     data=rx_buffer[rx_rd_index++];
000634 91e0 050f 	LDS  R30,_rx_rd_index
000636 5fef      	SUBI R30,-LOW(1)
000637 93e0 050f 	STS  _rx_rd_index,R30
000639 940e 156a 	CALL SUBOPT_0x1F
00063b 8110      	LD   R17,Z
                 ; 0001 0308     #if RX_BUFFER_SIZE != 256
                 ; 0001 0309     if (rx_rd_index == RX_BUFFER_SIZE) rx_rd_index=0;
00063c 91a0 050f 	LDS  R26,_rx_rd_index
00063e 30a8      	CPI  R26,LOW(0x8)
00063f f419      	BRNE _0x2008D
000640 e0e0      	LDI  R30,LOW(0)
000641 93e0 050f 	STS  _rx_rd_index,R30
                 ; 0001 030A     #endif
                 ; 0001 030B     #asm("cli")
                 _0x2008D:
000643 94f8      	cli
                 ; 0001 030C     --rx_counter;
000644 91e0 0510 	LDS  R30,_rx_counter
000646 50e1      	SUBI R30,LOW(1)
000647 93e0 0510 	STS  _rx_counter,R30
                 ; 0001 030D     #asm("sei")
000649 9478      	sei
                 ; 0001 030E     return data;
00064a 2fe1      	MOV  R30,R17
00064b 9119      	LD   R17,Y+
00064c 9508      	RET
                 ; 0001 030F }
                 ;#pragma used-
                 ;#endif
                 ;
                 ;// USART Transmitter buffer
                 ;#define TX_BUFFER_SIZE 8
                 ;char tx_buffer[TX_BUFFER_SIZE];
                 ;
                 ;#if TX_BUFFER_SIZE <= 256
                 ;unsigned char tx_wr_index,tx_rd_index,tx_counter;
                 ;#else
                 ;unsigned int tx_wr_index,tx_rd_index,tx_counter;
                 ;#endif
                 ;
                 ;// USART Transmitter interrupt service routine
                 ;interrupt [USART_TXC] void usart_tx_isr(void)
                 ; 0001 031F {
                 _usart_tx_isr:
00064d 93aa      	ST   -Y,R26
00064e 93ea      	ST   -Y,R30
00064f 93fa      	ST   -Y,R31
000650 b7ef      	IN   R30,SREG
000651 93ea      	ST   -Y,R30
                 ; 0001 0320     if (tx_counter)
000652 91e0 051b 	LDS  R30,_tx_counter
000654 30e0      	CPI  R30,0
000655 f099      	BREQ _0x2008E
                 ; 0001 0321        {
                 ; 0001 0322        --tx_counter;
000656 50e1      	SUBI R30,LOW(1)
000657 93e0 051b 	STS  _tx_counter,R30
                 ; 0001 0323        UDR=tx_buffer[tx_rd_index++];
000659 91e0 051a 	LDS  R30,_tx_rd_index
00065b 5fef      	SUBI R30,-LOW(1)
00065c 93e0 051a 	STS  _tx_rd_index,R30
00065e 940e 156f 	CALL SUBOPT_0x20
000660 81e0      	LD   R30,Z
000661 b9ec      	OUT  0xC,R30
                 ; 0001 0324     #if TX_BUFFER_SIZE != 256
                 ; 0001 0325        if (tx_rd_index == TX_BUFFER_SIZE) tx_rd_index=0;
000662 91a0 051a 	LDS  R26,_tx_rd_index
000664 30a8      	CPI  R26,LOW(0x8)
000665 f419      	BRNE _0x2008F
000666 e0e0      	LDI  R30,LOW(0)
000667 93e0 051a 	STS  _tx_rd_index,R30
                 ; 0001 0326     #endif
                 ; 0001 0327        }
                 _0x2008F:
                 ; 0001 0328 }
                 _0x2008E:
                 _0x20326:
000669 91e9      	LD   R30,Y+
00066a bfef      	OUT  SREG,R30
00066b 91f9      	LD   R31,Y+
00066c 91e9      	LD   R30,Y+
00066d 91a9      	LD   R26,Y+
00066e 9518      	RETI
                 ;
                 ;#ifndef _DEBUG_TERMINAL_IO_
                 ;// Write a character to the USART Transmitter buffer
                 ;#define _ALTERNATE_PUTCHAR_
                 ;#pragma used+
                 ;void putchar(char c)
                 ; 0001 032F {
                 _putchar:
                 ; 0001 0330     while (tx_counter == TX_BUFFER_SIZE);
                 ;	c -> Y+0
                 _0x20090:
00066f 91a0 051b 	LDS  R26,_tx_counter
000671 30a8      	CPI  R26,LOW(0x8)
000672 f3e1      	BREQ _0x20090
                 ; 0001 0331     #asm("cli")
000673 94f8      	cli
                 ; 0001 0332     if (tx_counter || ((UCSRA & DATA_REGISTER_EMPTY)==0))
000674 91e0 051b 	LDS  R30,_tx_counter
000676 30e0      	CPI  R30,0
000677 f411      	BRNE _0x20094
000678 995d      	SBIC 0xB,5
000679 c016      	RJMP _0x20093
                 _0x20094:
                 ; 0001 0333        {
                 ; 0001 0334        tx_buffer[tx_wr_index++]=c;
00067a 91e0 0519 	LDS  R30,_tx_wr_index
00067c 5fef      	SUBI R30,-LOW(1)
00067d 93e0 0519 	STS  _tx_wr_index,R30
00067f 940e 156f 	CALL SUBOPT_0x20
000681 81a8      	LD   R26,Y
000682 83a0      	STD  Z+0,R26
                 ; 0001 0335     #if TX_BUFFER_SIZE != 256
                 ; 0001 0336        if (tx_wr_index == TX_BUFFER_SIZE) tx_wr_index=0;
000683 91a0 0519 	LDS  R26,_tx_wr_index
000685 30a8      	CPI  R26,LOW(0x8)
000686 f419      	BRNE _0x20096
000687 e0e0      	LDI  R30,LOW(0)
000688 93e0 0519 	STS  _tx_wr_index,R30
                 ; 0001 0337     #endif
                 ; 0001 0338        ++tx_counter;
                 _0x20096:
00068a 91e0 051b 	LDS  R30,_tx_counter
00068c 5fef      	SUBI R30,-LOW(1)
00068d 93e0 051b 	STS  _tx_counter,R30
                 ; 0001 0339        }
                 ; 0001 033A     else
00068f c002      	RJMP _0x20097
                 _0x20093:
                 ; 0001 033B        UDR=c;
000690 81e8      	LD   R30,Y
000691 b9ec      	OUT  0xC,R30
                 ; 0001 033C     #asm("sei")
                 _0x20097:
000692 9478      	sei
                 ; 0001 033D }
000693 c04f      	RJMP _0x20C0008
                 ;#pragma used-
                 ;#endif
                 ;void inituart()
                 ; 0001 0341 {
                 _inituart:
                 ; 0001 0342     // USART initialization
                 ; 0001 0343     // Communication Parameters: 8 Data, 1 Stop, No Parity
                 ; 0001 0344     // USART Receiver: On
                 ; 0001 0345     // USART Transmitter: On
                 ; 0001 0346     // USART Mode: Asynchronous
                 ; 0001 0347     // USART Baud Rate: 38400
                 ; 0001 0348     UCSRA=0x00;
000694 e0e0      	LDI  R30,LOW(0)
000695 b9eb      	OUT  0xB,R30
                 ; 0001 0349     UCSRB=0xD8;
000696 ede8      	LDI  R30,LOW(216)
000697 b9ea      	OUT  0xA,R30
                 ; 0001 034A     UCSRC=0x06;
000698 e0e6      	LDI  R30,LOW(6)
000699 bde0      	OUT  0x20,R30
                 ; 0001 034B     UBRRH=0x00;
00069a e0e0      	LDI  R30,LOW(0)
00069b bde0      	OUT  0x20,R30
                 ; 0001 034C     UBRRL=0x0C;
00069c e0ec      	LDI  R30,LOW(12)
00069d b9e9      	OUT  0x9,R30
                 ; 0001 034D }
00069e 9508      	RET
                 ;
                 ;//========================================================
                 ;// External Interrupt 0 service routine
                 ;interrupt [EXT_INT0] void ext_int0_isr(void)
                 ; 0001 0352 {
                 _ext_int0_isr:
00069f 940e 1574 	CALL SUBOPT_0x21
                 ; 0001 0353      QEL++;
0006a1 e0a2      	LDI  R26,LOW(_QEL)
0006a2 e0b5      	LDI  R27,HIGH(_QEL)
0006a3 c004      	RJMP _0x20325
                 ; 0001 0354 }
                 ;
                 ;// External Interrupt 1 service routine
                 ;interrupt [EXT_INT1] void ext_int1_isr(void)
                 ; 0001 0358 {
                 _ext_int1_isr:
0006a4 940e 1574 	CALL SUBOPT_0x21
                 ; 0001 0359     QER++;
0006a6 e0a4      	LDI  R26,LOW(_QER)
0006a7 e0b5      	LDI  R27,HIGH(_QER)
                 _0x20325:
0006a8 91ed      	LD   R30,X+
0006a9 91fd      	LD   R31,X+
0006aa 9631      	ADIW R30,1
0006ab 93fe      	ST   -X,R31
0006ac 93ee      	ST   -X,R30
                 ; 0001 035A }
0006ad 91e9      	LD   R30,Y+
0006ae bfef      	OUT  SREG,R30
0006af 91f9      	LD   R31,Y+
0006b0 91e9      	LD   R30,Y+
0006b1 91b9      	LD   R27,Y+
0006b2 91a9      	LD   R26,Y+
0006b3 9518      	RETI
                 ;//========================================================
                 ;//khoi tao encoder
                 ;void initencoder()
                 ; 0001 035E {
                 _initencoder:
                 ; 0001 035F     // Dem 24 xung / 1 vong banh xe
                 ; 0001 0360     // External Interrupt(s) initialization
                 ; 0001 0361     // INT0: On
                 ; 0001 0362     // INT0 Mode: Any change
                 ; 0001 0363     // INT1: On
                 ; 0001 0364     // INT1 Mode: Any change
                 ; 0001 0365     // INT2: Off
                 ; 0001 0366     GICR|=0xC0;
0006b4 b7eb      	IN   R30,0x3B
0006b5 6ce0      	ORI  R30,LOW(0xC0)
0006b6 bfeb      	OUT  0x3B,R30
                 ; 0001 0367     MCUCR=0x05;
0006b7 e0e5      	LDI  R30,LOW(5)
0006b8 bfe5      	OUT  0x35,R30
                 ; 0001 0368     MCUCSR=0x00;
0006b9 e0e0      	LDI  R30,LOW(0)
0006ba bfe4      	OUT  0x34,R30
                 ; 0001 0369     GIFR=0xC0;
0006bb ece0      	LDI  R30,LOW(192)
0006bc bfea      	OUT  0x3A,R30
                 ; 0001 036A     // Global enable interrupts
                 ; 0001 036B 
                 ; 0001 036C     //OCR1A=0-255; MOTOR LEFT
                 ; 0001 036D     //OCR1B=0-255; MOTOR RIGHT
                 ; 0001 036E }
0006bd 9508      	RET
                 ;
                 ;//========================================================
                 ;//control velocity motor
                 ;void vMLtoi(unsigned char v) //congsuat=0-22 (%)
                 ; 0001 0373 {
                 _vMLtoi:
                 ; 0001 0374     seRki=0;//reset thanh phan I
                 ;	v -> Y+0
0006be 940e 14b0 	CALL SUBOPT_0x7
                 ; 0001 0375     seLki=0;//reset thanh phan I
                 ; 0001 0376     //uRold=0;
                 ; 0001 0377     MLdir = 1;
0006c0 9aae      	SBI  0x15,6
                 ; 0001 0378     svQEL = v;
0006c1 940e 157b 	CALL SUBOPT_0x22
                 ; 0001 0379 }
0006c3 c01f      	RJMP _0x20C0008
                 ;//========================================================
                 ;void vMLlui(unsigned char v) //congsuat=0-22 (%)
                 ; 0001 037C {
                 _vMLlui:
                 ; 0001 037D     seRki=0;//reset thanh phan I
                 ;	v -> Y+0
0006c4 940e 14b0 	CALL SUBOPT_0x7
                 ; 0001 037E     seLki=0;//reset thanh phan I
                 ; 0001 037F 
                 ; 0001 0380     //uRold=0;
                 ; 0001 0381     MLdir = 0;
0006c6 98ae      	CBI  0x15,6
                 ; 0001 0382     svQEL = v;
0006c7 940e 157b 	CALL SUBOPT_0x22
                 ; 0001 0383 }
0006c9 c019      	RJMP _0x20C0008
                 ;//========================================================
                 ;void vMLstop()
                 ; 0001 0386 {
                 _vMLstop:
                 ; 0001 0387     seRki=0;//reset thanh phan I
0006ca 940e 14b0 	CALL SUBOPT_0x7
                 ; 0001 0388     seLki=0;//reset thanh phan I
                 ; 0001 0389     MLdir = 1;
0006cc 9aae      	SBI  0x15,6
                 ; 0001 038A     OCR1A = 0;
0006cd e0e0      	LDI  R30,LOW(0)
0006ce e0f0      	LDI  R31,HIGH(0)
0006cf bdfb      	OUT  0x2A+1,R31
0006d0 bdea      	OUT  0x2A,R30
                 ; 0001 038B     svQEL = 0;
0006d1 93e0 04dc 	STS  _svQEL,R30
0006d3 93e0 04dd 	STS  _svQEL+1,R30
                 ; 0001 038C }
0006d5 9508      	RET
                 ;//========================================================
                 ;//========================================================
                 ;void vMRtoi(unsigned char v) //congsuat=0-22 (%)
                 ; 0001 0390 {
                 _vMRtoi:
                 ; 0001 0391     seRki=0;//reset thanh phan I
                 ;	v -> Y+0
0006d6 940e 14b0 	CALL SUBOPT_0x7
                 ; 0001 0392     seLki=0;//reset thanh phan I
                 ; 0001 0393     MRdir = 1;
0006d8 9aaf      	SBI  0x15,7
                 ; 0001 0394     svQER = v;
0006d9 c003      	RJMP _0x20C0007
                 ; 0001 0395 }
                 ;//========================================================
                 ;void vMRlui(unsigned char v) //congsuat=0-22 (%)
                 ; 0001 0398 {
                 _vMRlui:
                 ; 0001 0399     seRki=0;//reset thanh phan I
                 ;	v -> Y+0
0006da 940e 14b0 	CALL SUBOPT_0x7
                 ; 0001 039A     seLki=0;//reset thanh phan I
                 ; 0001 039B     MRdir = 0;
0006dc 98af      	CBI  0x15,7
                 ; 0001 039C     svQER = v;
                 _0x20C0007:
0006dd 81e8      	LD   R30,Y
0006de e0f0      	LDI  R31,0
0006df 93e0 04de 	STS  _svQER,R30
0006e1 93f0 04df 	STS  _svQER+1,R31
                 ; 0001 039D }
                 _0x20C0008:
0006e3 9621      	ADIW R28,1
0006e4 9508      	RET
                 ;//========================================================
                 ;void vMRstop()
                 ; 0001 03A0 {
                 _vMRstop:
                 ; 0001 03A1     seRki=0;//reset thanh phan I
0006e5 940e 14b0 	CALL SUBOPT_0x7
                 ; 0001 03A2     seLki=0;//reset thanh phan I
                 ; 0001 03A3     MRdir = 1;
0006e7 9aaf      	SBI  0x15,7
                 ; 0001 03A4     OCR1B = 0;
0006e8 e0e0      	LDI  R30,LOW(0)
0006e9 e0f0      	LDI  R31,HIGH(0)
0006ea bdf9      	OUT  0x28+1,R31
0006eb bde8      	OUT  0x28,R30
                 ; 0001 03A5     svQER=0;
0006ec 93e0 04de 	STS  _svQER,R30
0006ee 93e0 04df 	STS  _svQER+1,R30
                 ; 0001 03A6 }
0006f0 9508      	RET
                 ;//========================================================
                 ;// ham dieu khien vi tri
                 ;void ctrRobottoi(unsigned int d,unsigned int v)  //v:0-22
                 ; 0001 03AA {
                 ; 0001 03AB      flagwaitctrAngle=0;
                 ;	d -> Y+2
                 ;	v -> Y+0
                 ; 0001 03AC      flagwaitctrRobot=1;
                 ; 0001 03AD      sd=d;// set gia tri khoang cach di chuyen
                 ; 0001 03AE      oldd = (QEL+QER)/2; // luu gia tri vi tri hien tai
                 ; 0001 03AF      vMRtoi(v);
                 ; 0001 03B0      vMLtoi(v);
                 ; 0001 03B1 }
                 ;// ham dieu khien vi tri
                 ;void ctrRobotlui(unsigned int d,unsigned int v)  //v:0-22
                 ; 0001 03B4 {
                 ; 0001 03B5      flagwaitctrAngle=0;
                 ;	d -> Y+2
                 ;	v -> Y+0
                 ; 0001 03B6      flagwaitctrRobot=1;
                 ; 0001 03B7      sd=d;// set gia tri khoang cach di chuyen
                 ; 0001 03B8      oldd = (QEL+QER)/2; // luu gia tri vi tri hien tai
                 ; 0001 03B9      vMRlui(v);
                 ; 0001 03BA      vMLlui(v);
                 ; 0001 03BB }
                 ;// ham dieu khien goc quay
                 ;void ctrRobotXoay(int angle,unsigned int v)  //v:0-22
                 ; 0001 03BE {
                 ; 0001 03BF      float fangle=0;
                 ; 0001 03C0      flagwaitctrRobot=0;
                 ;	angle -> Y+6
                 ;	v -> Y+4
                 ;	fangle -> Y+0
                 ; 0001 03C1      if(angle>0)  { //xoay trai
                 ; 0001 03C2         if(angle > 1) vMRtoi(v);
                 ; 0001 03C3         else vMRtoi(0);
                 ; 0001 03C4         if(angle > 1) vMLlui(v);
                 ; 0001 03C5         else vMLlui(0);
                 ; 0001 03C6      } else  //xoay phai
                 ; 0001 03C7      {
                 ; 0001 03C8         angle=-angle;
                 ; 0001 03C9         if(angle > 1) vMRlui(v);
                 ; 0001 03CA         else vMRlui(0);
                 ; 0001 03CB         if(angle > 1) vMLtoi(v);
                 ; 0001 03CC         else vMLtoi(0);
                 ; 0001 03CD      }
                 ; 0001 03CE      flagwaitctrAngle=1;
                 ; 0001 03CF      fangle=angle*0.35;// nhan chia so float
                 ; 0001 03D0      sa=fangle;
                 ; 0001 03D1      olda = QEL; // luu gia tri vi tri hien tai
                 ; 0001 03D2 }
                 ;
                 ;
                 ;//============Phat==============
                 ;IntRobot convertRobot2IntRobot(Robot robot)
                 ; 0001 03D7 {
                 _convertRobot2IntRobot:
                 ; 0001 03D8     IntRobot intRb;
                 ; 0001 03D9     intRb.id = (int)robot.id;
0006f1 976c      	SBIW R28,28
                 ;	robot -> Y+28
                 ;	intRb -> Y+0
                +
0006f2 8dec     +LDD R30 , Y + 28
0006f3 8dfd     +LDD R31 , Y + 28 + 1
0006f4 8d6e     +LDD R22 , Y + 28 + 2
0006f5 8d7f     +LDD R23 , Y + 28 + 3
                 	__GETD1S 28
0006f6 940e 184f 	CALL __CFD1
0006f8 83e8      	ST   Y,R30
0006f9 83f9      	STD  Y+1,R31
                 ; 0001 03DA     intRb.x = (int)robot.x;
                +
0006fa a1e8     +LDD R30 , Y + 32
0006fb a1f9     +LDD R31 , Y + 32 + 1
0006fc a16a     +LDD R22 , Y + 32 + 2
0006fd a17b     +LDD R23 , Y + 32 + 3
                 	__GETD1S 32
0006fe 940e 184f 	CALL __CFD1
000700 83ea      	STD  Y+2,R30
000701 83fb      	STD  Y+2+1,R31
                 ; 0001 03DB     intRb.y = (int)robot.y;
                +
000702 a1ec     +LDD R30 , Y + 36
000703 a1fd     +LDD R31 , Y + 36 + 1
000704 a16e     +LDD R22 , Y + 36 + 2
000705 a17f     +LDD R23 , Y + 36 + 3
                 	__GETD1S 36
000706 940e 184f 	CALL __CFD1
000708 83ec      	STD  Y+4,R30
000709 83fd      	STD  Y+4+1,R31
                 ; 0001 03DC     intRb.ox = (int)robot.ox;
                +
00070a a5e8     +LDD R30 , Y + 40
00070b a5f9     +LDD R31 , Y + 40 + 1
00070c a56a     +LDD R22 , Y + 40 + 2
00070d a57b     +LDD R23 , Y + 40 + 3
                 	__GETD1S 40
00070e 940e 184f 	CALL __CFD1
000710 83ee      	STD  Y+6,R30
000711 83ff      	STD  Y+6+1,R31
                 ; 0001 03DD     intRb.oy = (int)robot.oy;
                +
000712 a5ec     +LDD R30 , Y + 44
000713 a5fd     +LDD R31 , Y + 44 + 1
000714 a56e     +LDD R22 , Y + 44 + 2
000715 a57f     +LDD R23 , Y + 44 + 3
                 	__GETD1S 44
000716 940e 184f 	CALL __CFD1
000718 87e8      	STD  Y+8,R30
000719 87f9      	STD  Y+8+1,R31
                 ; 0001 03DE     intRb.ball.x = (int)robot.ball.x;
                +
00071a a9e8     +LDD R30 , Y + 48
00071b a9f9     +LDD R31 , Y + 48 + 1
00071c a96a     +LDD R22 , Y + 48 + 2
00071d a97b     +LDD R23 , Y + 48 + 3
                 	__GETD1S 48
00071e 940e 184f 	CALL __CFD1
000720 87ea      	STD  Y+10,R30
000721 87fb      	STD  Y+10+1,R31
                 ; 0001 03DF     intRb.ball.y = (int)robot.ball.y;
                +
000722 a9ec     +LDD R30 , Y + 52
000723 a9fd     +LDD R31 , Y + 52 + 1
000724 a96e     +LDD R22 , Y + 52 + 2
000725 a97f     +LDD R23 , Y + 52 + 3
                 	__GETD1S 52
000726 940e 184f 	CALL __CFD1
000728 87ec      	STD  Y+12,R30
000729 87fd      	STD  Y+12+1,R31
                 ; 0001 03E0     return intRb;
00072a 01fe      	MOVW R30,R28
00072b 01de      	MOVW R26,R28
00072c 961e      	ADIW R26,14
00072d e08e      	LDI  R24,14
00072e 940e 1ab3 	CALL __COPYMML
000730 01fe      	MOVW R30,R28
000731 963e      	ADIW R30,14
000732 e08e      	LDI  R24,14
000733 b61f      	IN   R1,SREG
000734 94f8      	CLI
000735 96e8      	ADIW R28,56
000736 9508      	RET
                 ; 0001 03E1 }
                 ;
                 ;//========================================================
                 ;// read  vi tri robot   PHUC
                 ;//========================================================
                 ;/* Comment to return
                 ;unsigned char readposition()
                 ;{
                 ;    unsigned char  i=0;
                 ;    unsigned flagstatus=0;
                 ;
                 ;    if(nRF24L01_RxPacket(RxBuf)==1)         // Neu nhan duoc du lieu
                 ;    {
                 ;        for( i=0;i<28;i++)
                 ;        {
                 ;            *(uint8_t *) ((uint8_t *)&rb + i)=RxBuf[i];
                 ;        }
                 ;
                 ;        idRobot = fmod(rb.id,10); // doc id
                 ;        cmdCtrlRobot = (int)rb.id/10; // doc ma lenh
                 ;
                 ;        switch (idRobot)
                 ;        {
                 ;            case 1:
                 ;                robot11=convertRobot2IntRobot(rb);
                 ;                break;
                 ;            case 2:
                 ;                robot12=convertRobot2IntRobot(rb);
                 ;                break;
                 ;            case 3:
                 ;                robot13=convertRobot2IntRobot(rb);
                 ;            break;
                 ;            case 4:
                 ;                robot21=convertRobot2IntRobot(rb);
                 ;                break;
                 ;            case 5:
                 ;                robot22=convertRobot2IntRobot(rb);
                 ;                break;
                 ;            case 6:
                 ;                robot23=convertRobot2IntRobot(rb);
                 ;                break;
                 ;        }
                 ;
                 ;        if(idRobot==ROBOT_ID)
                 ;        {
                 ;            LEDL=!LEDL;
                 ;            cmdCtrlRobot = (int)rb.id/10; // doc ma lenh
                 ;            flagstatus=1;
                 ;            robotctrl=convertRobot2IntRobot(rb);
                 ;        }
                 ;    }
                 ;    return flagstatus;
                 ;}     */
                 ;//========================================================
                 ;// calc  vi tri robot   so voi mot diem (x,y)        PHUC
                 ;// return goclenh va khoang cach, HUONG TAN CONG
                 ;//========================================================
                 ;void calcvitri(float x,float y)
                 ; 0001 041B {
                 ; 0001 041C     float ahx,ahy,aox,aoy,dah,dao,ahay,cosgoc,anpla0,anpla1,detaanpla;
                 ; 0001 041D     ahx = robotctrl.ox-robotctrl.x;
                 ;	x -> Y+48
                 ;	y -> Y+44
                 ;	ahx -> Y+40
                 ;	ahy -> Y+36
                 ;	aox -> Y+32
                 ;	aoy -> Y+28
                 ;	dah -> Y+24
                 ;	dao -> Y+20
                 ;	ahay -> Y+16
                 ;	cosgoc -> Y+12
                 ;	anpla0 -> Y+8
                 ;	anpla1 -> Y+4
                 ;	detaanpla -> Y+0
                 ; 0001 041E     ahy = robotctrl.oy-robotctrl.y;
                 ; 0001 041F     aox = x-robotctrl.x;
                 ; 0001 0420     aoy = y-robotctrl.y;
                 ; 0001 0421     dah = sqrt(ahx*ahx+ahy*ahy)  ;
                 ; 0001 0422     dao = sqrt(aox*aox+aoy*aoy)  ;
                 ; 0001 0423     ahay= ahx*aox+ahy*aoy;
                 ; 0001 0424     cosgoc = ahay/(dah*dao);
                 ; 0001 0425 
                 ; 0001 0426     anpla0 = atan2(ahy,ahx);
                 ; 0001 0427     anpla1 = atan2(aoy,aox);
                 ; 0001 0428     detaanpla= anpla0-anpla1;
                 ; 0001 0429 
                 ; 0001 042A     errangle = acos(cosgoc)*180/3.14;
                 ; 0001 042B     if(((detaanpla>0)&&(detaanpla <M_PI))|| (detaanpla <-M_PI))  // xet truong hop goc ben phai
                 ; 0001 042C     {
                 ; 0001 042D          errangle = - errangle; // ben phai
                 ; 0001 042E     }
                 ; 0001 042F     else
                 ; 0001 0430     {
                 ; 0001 0431         errangle = errangle;   // ben trai
                 ; 0001 0432 
                 ; 0001 0433     }
                 ; 0001 0434     distance = sqrt(aox*3.48*aox*3.48+aoy*2.89*aoy*2.89); //tinh khoang cach
                 ; 0001 0435     orentation = atan2(ahy,ahx)*180/M_PI + offestsanco;//tinh huong ra goc
                 ; 0001 0436     if(( 0 < orentation && orentation < 74) ||   ( 0 > orentation && orentation > -80) )
                 ; 0001 0437     {
                 ; 0001 0438        if(SAN_ID == 1)// phan san duong
                 ; 0001 0439        {
                 ; 0001 043A         flagtancong=0;
                 ; 0001 043B         offsetphongthu = 70 ;
                 ; 0001 043C         goctancong = 180;
                 ; 0001 043D        }
                 ; 0001 043E        else // phan san am
                 ; 0001 043F        {
                 ; 0001 0440         flagtancong=1;
                 ; 0001 0441 
                 ; 0001 0442        }
                 ; 0001 0443     }else
                 ; 0001 0444     {
                 ; 0001 0445        if(SAN_ID == 1)
                 ; 0001 0446        {
                 ; 0001 0447        flagtancong=1;
                 ; 0001 0448        }
                 ; 0001 0449        else
                 ; 0001 044A        {
                 ; 0001 044B         flagtancong=0;
                 ; 0001 044C         offsetphongthu = -70 ;
                 ; 0001 044D         goctancong = 0;
                 ; 0001 044E        }
                 ; 0001 044F     }
                 ; 0001 0450 }
                 ;void runEscStuck()
                 ; 0001 0452 {
                 ; 0001 0453     while(cmdCtrlRobot==4)
                 ; 0001 0454     {
                 ; 0001 0455 
                 ; 0001 0456         DDRA    = 0x00;
                 ; 0001 0457         PORTA   = 0x00;
                 ; 0001 0458         IRFL=read_adc(4);
                 ; 0001 0459         IRFR=read_adc(5);
                 ; 0001 045A 
                 ; 0001 045B         if((IRFL<300)&&(IRFR<300))
                 ; 0001 045C         {
                 ; 0001 045D             vMLtoi(22);vMRlui(22);
                 ; 0001 045E             delay_ms(100);
                 ; 0001 045F         }
                 ; 0001 0460          if (IRFL>300 && IRFR<300)
                 ; 0001 0461         {
                 ; 0001 0462             vMLlui(0);vMRlui(25);delay_ms(100);
                 ; 0001 0463         }
                 ; 0001 0464         if (IRFR>300 && IRFL<300 )
                 ; 0001 0465         {
                 ; 0001 0466             vMLlui(25);vMRlui(0);delay_ms(100);
                 ; 0001 0467         }
                 ; 0001 0468         LEDBR=!LEDBR;
                 ; 0001 0469         readposition();//doc RF cap nhat ai robot
                 ; 0001 046A     }
                 ; 0001 046B }
                 ;void runEscStucksethome()
                 ; 0001 046D {
                 ; 0001 046E     while(cmdCtrlRobot==7)
                 ; 0001 046F     {
                 ; 0001 0470         DDRA    = 0x00;
                 ; 0001 0471         PORTA   = 0x00;
                 ; 0001 0472         readposition();//doc RF cap nhat ai robot
                 ; 0001 0473         IRFL=read_adc(4);
                 ; 0001 0474         IRFR=read_adc(5);
                 ; 0001 0475 
                 ; 0001 0476         if((IRFL<300)&&(IRFR<300))
                 ; 0001 0477         {
                 ; 0001 0478             vMLtoi(22);vMRlui(22);
                 ; 0001 0479             delay_ms(100);
                 ; 0001 047A         }
                 ; 0001 047B 
                 ; 0001 047C         if (IRFL>300 && IRFR<300)
                 ; 0001 047D         {
                 ; 0001 047E             vMLlui(0);vMRlui(22);delay_ms(300);
                 ; 0001 047F         }
                 ; 0001 0480         if (IRFR>300 && IRFL<300 )
                 ; 0001 0481         {
                 ; 0001 0482             vMLlui(22);vMRlui(0);delay_ms(300);
                 ; 0001 0483         }
                 ; 0001 0484 
                 ; 0001 0485         LEDBR=!LEDBR;
                 ; 0001 0486     }
                 ; 0001 0487 }
                 ;void runEscBlindSpot()
                 ; 0001 0489 {
                 ; 0001 048A     while(cmdCtrlRobot==3)
                 ; 0001 048B     {
                 ; 0001 048C         DDRA    = 0x00;
                 ; 0001 048D         PORTA   = 0x00;
                 ; 0001 048E         readposition();//doc RF cap nhat ai robot
                 ; 0001 048F         IRFL=read_adc(4);
                 ; 0001 0490         IRFR=read_adc(5);
                 ; 0001 0491         if (IRFL>300 && IRFR<300)
                 ; 0001 0492         {
                 ; 0001 0493             vMLlui(0);vMRlui(22);delay_ms(300);
                 ; 0001 0494         }
                 ; 0001 0495         if (IRFR>300 && IRFL<300 )
                 ; 0001 0496         {
                 ; 0001 0497             vMLlui(22);vMRlui(0);delay_ms(300);
                 ; 0001 0498         }
                 ; 0001 0499 
                 ; 0001 049A         if((IRFL<300)&&(IRFR<300))
                 ; 0001 049B         {
                 ; 0001 049C             vMLtoi(20);vMRtoi(20);
                 ; 0001 049D             delay_ms(20);
                 ; 0001 049E         }
                 ; 0001 049F 
                 ; 0001 04A0         LEDR=!LEDR;
                 ; 0001 04A1     }
                 ; 0001 04A2 }
                 ;
                 ;void runEscBlindSpotsethome()
                 ; 0001 04A5 {
                 ; 0001 04A6     while(cmdCtrlRobot==6)
                 ; 0001 04A7     {
                 ; 0001 04A8         DDRA    = 0x00;
                 ; 0001 04A9         PORTA   = 0x00;
                 ; 0001 04AA         readposition();
                 ; 0001 04AB         IRFL=read_adc(4);
                 ; 0001 04AC         IRFR=read_adc(5);
                 ; 0001 04AD         if (IRFL>300 && IRFR<300)
                 ; 0001 04AE         {
                 ; 0001 04AF             vMLlui(0);vMRlui(22);delay_ms(300);
                 ; 0001 04B0         }
                 ; 0001 04B1         if (IRFR>300 && IRFL<300 )
                 ; 0001 04B2         {
                 ; 0001 04B3             vMLlui(22);vMRlui(0);delay_ms(300);
                 ; 0001 04B4         }
                 ; 0001 04B5 
                 ; 0001 04B6         if((IRFL<300)&&(IRFR<300))
                 ; 0001 04B7         {
                 ; 0001 04B8             vMLtoi(20);vMRtoi(20);
                 ; 0001 04B9             delay_ms(10);
                 ; 0001 04BA         }
                 ; 0001 04BB 
                 ; 0001 04BC         LEDR=!LEDR;
                 ; 0001 04BD     }
                 ; 0001 04BE }
                 ;
                 ;//========================================================
                 ;// SET HOME  vi tri robot, de chuan bi cho tran dau       PHUC//
                 ;//========================================================
                 ;int sethomeRB()
                 ; 0001 04C4 {
                 ; 0001 04C5        while(flagsethome==0)
                 ; 0001 04C6        {
                 ; 0001 04C7             LEDL=!LEDL;
                 ; 0001 04C8               //PHUC SH
                 ; 0001 04C9             if(readposition()==1)//co du lieu moi
                 ; 0001 04CA             {
                 ; 0001 04CB                     //hc(3,40);wn16s(cmdCtrlRobot);
                 ; 0001 04CC                     if(cmdCtrlRobot==1)      // dung ma lenh stop chuong trinh
                 ; 0001 04CD                     {
                 ; 0001 04CE                         flagsethome=0;
                 ; 0001 04CF                          return 0;
                 ; 0001 04D0                     }
                 ; 0001 04D1 
                 ; 0001 04D2                     if(cmdCtrlRobot==2 || cmdCtrlRobot==3 || cmdCtrlRobot==4)      // dung ma lenh stop chuong trinh
                 ; 0001 04D3                     {
                 ; 0001 04D4                         flagsethome=0;
                 ; 0001 04D5                         return 0;
                 ; 0001 04D6                     }
                 ; 0001 04D7 
                 ; 0001 04D8                     if(cmdCtrlRobot==5)  //sethome robot
                 ; 0001 04D9                     {
                 ; 0001 04DA 
                 ; 0001 04DB                         calcvitri(rbctrlHomeX,rbctrlHomeY);
                 ; 0001 04DC                         if(distance>100) //chay den vi tri
                 ; 0001 04DD                         {
                 ; 0001 04DE                             if(errangle>18 || errangle<-18 )
                 ; 0001 04DF                             {
                 ; 0001 04E0                             int nv = errangle*27/180 ;
                 ; 0001 04E1                             int verrangle = calcVangle(errangle);
                 ; 0001 04E2                             ctrRobotXoay(nv,verrangle);
                 ;	nv -> Y+2
                 ;	verrangle -> Y+0
                 ; 0001 04E3                             delay_ms(1);
                 ; 0001 04E4                             }else
                 ; 0001 04E5                             {
                 ; 0001 04E6                             //1xung = 3.14 * 40/24 =5.22
                 ; 0001 04E7                             ctrRobottoi(distance/5.22,15);
                 ; 0001 04E8                             // verranglekisum=0;//RESET I.
                 ; 0001 04E9                             }
                 ; 0001 04EA                         }
                 ; 0001 04EB                         else //XOAY DUNG HUONG
                 ; 0001 04EC                         {
                 ; 0001 04ED                             setRobotAngleX=10*cos(rbctrlHomeAngle*M_PI/180);
                 ; 0001 04EE                             setRobotAngleY=10*sin(rbctrlHomeAngle*M_PI/180);;
                 ; 0001 04EF                             calcvitri(robotctrl.x + setRobotAngleX,robotctrl.y + setRobotAngleY);
                 ; 0001 04F0                             if(errangle>90 || errangle<-90 )
                 ; 0001 04F1                              {
                 ; 0001 04F2 
                 ; 0001 04F3                                int nv = errangle*27/180 ;
                 ; 0001 04F4                                int verrangle = calcVangle(errangle);
                 ; 0001 04F5                                ctrRobotXoay(nv,verrangle);
                 ;	nv -> Y+2
                 ;	verrangle -> Y+0
                 ; 0001 04F6                                delay_ms(1);
                 ; 0001 04F7                              }else
                 ; 0001 04F8                              {
                 ; 0001 04F9 
                 ; 0001 04FA                                  verranglekisum=0;//RESET I.
                 ; 0001 04FB                                  flaghuongtrue=0;
                 ; 0001 04FC                                  flagsethome=1;  // bao da set home khong can set nua
                 ; 0001 04FD                                  vMRstop();
                 ; 0001 04FE                                  vMLstop();
                 ; 0001 04FF                                   return 0;
                 ; 0001 0500 
                 ; 0001 0501                              }
                 ; 0001 0502                         }
                 ; 0001 0503 
                 ; 0001 0504                     }
                 ; 0001 0505 
                 ; 0001 0506                     if(cmdCtrlRobot==7)  //sethome IS STUCKED
                 ; 0001 0507                     {
                 ; 0001 0508 
                 ; 0001 0509                        cntstuckRB++;
                 ; 0001 050A                        if(cntstuckRB > 2)
                 ; 0001 050B                        {
                 ; 0001 050C                          runEscStucksethome();
                 ; 0001 050D                          cntstuckRB=0;
                 ; 0001 050E                        }
                 ; 0001 050F                     }
                 ; 0001 0510 
                 ; 0001 0511                     if(cmdCtrlRobot==6) //sethome IS //roi vao diem mu (blind spot) , mat vi tri hay huong
                 ; 0001 0512                     {
                 ; 0001 0513                        LEDBL=1;
                 ; 0001 0514                        cntunlookRB++;
                 ; 0001 0515                        if(cntunlookRB > 2)
                 ; 0001 0516                        {
                 ; 0001 0517                          runEscBlindSpotsethome();
                 ; 0001 0518                          cntunlookRB=0;
                 ; 0001 0519 
                 ; 0001 051A                        }
                 ; 0001 051B 
                 ; 0001 051C                     }
                 ; 0001 051D 
                 ; 0001 051E 
                 ; 0001 051F             }
                 ; 0001 0520 
                 ; 0001 0521             LEDR=!LEDR;
                 ; 0001 0522 
                 ; 0001 0523        }
                 ; 0001 0524        return 0;
                 ; 0001 0525 
                 ; 0001 0526 }
                 ;
                 ;int codePenalty()
                 ; 0001 0529 {
                 ; 0001 052A    // chay den vi tri duoc dat truoc, sau do da banh 1 lan
                 ; 0001 052B       //PHUC SH
                 ; 0001 052C       if(readposition()==1)//co du lieu moi
                 ; 0001 052D       {
                 ; 0001 052E            if(cmdCtrlRobot==8)  //set vi tri penalty robot
                 ; 0001 052F             {
                 ; 0001 0530                 calcvitri(rbctrlPenaltyX,rbctrlPenaltyY);
                 ; 0001 0531                 if(distance>50) //chay den vi tri
                 ; 0001 0532                 {
                 ; 0001 0533                     if(errangle>18 || errangle<-18 )
                 ; 0001 0534                     {
                 ; 0001 0535                     int nv = errangle*27/180 ;
                 ; 0001 0536                     int verrangle = calcVangle(errangle);
                 ; 0001 0537                     ctrRobotXoay(nv,verrangle);
                 ;	nv -> Y+2
                 ;	verrangle -> Y+0
                 ; 0001 0538                     delay_ms(1);
                 ; 0001 0539                     }else
                 ; 0001 053A                     {
                 ; 0001 053B                     //1xung = 3.14 * 40/24 =5.22
                 ; 0001 053C                     ctrRobottoi(distance/5.22,15);
                 ; 0001 053D                     // verranglekisum=0;//RESET I.
                 ; 0001 053E                     }
                 ; 0001 053F                 }
                 ; 0001 0540                 else //XOAY DUNG HUONG
                 ; 0001 0541                 {
                 ; 0001 0542                     setRobotAngleX=10*cos(rbctrlPenaltyAngle*M_PI/180);
                 ; 0001 0543                     setRobotAngleY=10*sin(rbctrlPenaltyAngle*M_PI/180);;
                 ; 0001 0544                     calcvitri(robotctrl.x + setRobotAngleX,robotctrl.y + setRobotAngleY);
                 ; 0001 0545                     if(errangle>10 || errangle<-10 )
                 ; 0001 0546                      {
                 ; 0001 0547 
                 ; 0001 0548                        int nv = errangle*27/180 ;
                 ; 0001 0549                        int verrangle = calcVangle(errangle);
                 ; 0001 054A                        ctrRobotXoay(nv,verrangle);
                 ;	nv -> Y+2
                 ;	verrangle -> Y+0
                 ; 0001 054B                        delay_ms(1);
                 ; 0001 054C                      }else
                 ; 0001 054D                      {
                 ; 0001 054E 
                 ; 0001 054F                          verranglekisum=0;//RESET I.
                 ; 0001 0550                          flaghuongtrue=0;
                 ; 0001 0551                          flagsethome=1;  // bao da set vitri penalty
                 ; 0001 0552                          while(cmdCtrlRobot!=2) //cho nhan nut start
                 ; 0001 0553                          {
                 ; 0001 0554                             readposition();
                 ; 0001 0555                          }
                 ; 0001 0556                          // da banh
                 ; 0001 0557                          vMRtoi(22);
                 ; 0001 0558                          vMLtoi(22);
                 ; 0001 0559                          delay_ms(1000);
                 ; 0001 055A                          vMRlui(10);
                 ; 0001 055B                          vMLlui(10);
                 ; 0001 055C                          delay_ms(1000);
                 ; 0001 055D                          vMRstop();
                 ; 0001 055E                          vMLstop();
                 ; 0001 055F                           return 0;
                 ; 0001 0560 
                 ; 0001 0561                      }
                 ; 0001 0562                 }
                 ; 0001 0563 
                 ; 0001 0564             }
                 ; 0001 0565       }
                 ; 0001 0566 
                 ; 0001 0567 }
                 ;void settoadoHomRB()
                 ; 0001 0569 {
                 _settoadoHomRB:
                 ; 0001 056A     switch(ROBOT_ID)
000737 e0e4      	LDI  R30,LOW(4)
                 ; 0001 056B     {
                 ; 0001 056C     //PHUC
                 ; 0001 056D        case 1:
000738 30e1      	CPI  R30,LOW(0x1)
000739 f469      	BRNE _0x20127
                 ; 0001 056E 
                 ; 0001 056F 
                 ; 0001 0570             rbctrlPenaltyX = 0;
00073a 940e 157e 	CALL SUBOPT_0x23
                 ; 0001 0571             rbctrlPenaltyY = 0;
                 ; 0001 0572 
                 ; 0001 0573             if(SAN_ID==1)
                 ; 0001 0574             {
                 ; 0001 0575               rbctrlPenaltyAngle = 179;
                 ; 0001 0576               rbctrlHomeAngle = 179 ;
                 ; 0001 0577               rbctrlHomeX = 269.7 ;
00073c 940e 15a4 	CALL SUBOPT_0x24
                 ; 0001 0578               rbctrlHomeY = 1.7  ;
                 ; 0001 0579               setRobotXmin=80;
                 ; 0001 057A               setRobotXmax=260;
                 ; 0001 057B             }
                 ; 0001 057C             else
                 ; 0001 057D             {
                 ; 0001 057E               rbctrlPenaltyAngle = -15;
                 ; 0001 057F               rbctrlHomeAngle = -15 ;
                 ; 0001 0580               rbctrlHomeX =-226.1 ;
                 ; 0001 0581               rbctrlHomeY = 1.6  ;
                 ; 0001 0582               setRobotXmin=-260;
                 ; 0001 0583               setRobotXmax=-80;
                 _0x20315:
00073e 93e0 0485 	STS  _setRobotXmax,R30
000740 93f0 0486 	STS  _setRobotXmax+1,R31
000742 9360 0487 	STS  _setRobotXmax+2,R22
000744 9370 0488 	STS  _setRobotXmax+3,R23
                 ; 0001 0584             }
                 ; 0001 0585        break;
000746 c079      	RJMP _0x20126
                 ; 0001 0586        case 2:
                 _0x20127:
000747 30e2      	CPI  R30,LOW(0x2)
000748 f489      	BRNE _0x2012A
                 ; 0001 0587 
                 ; 0001 0588 
                 ; 0001 0589             rbctrlPenaltyX=0;
000749 940e 157e 	CALL SUBOPT_0x23
                 ; 0001 058A             rbctrlPenaltyY=0;
                 ; 0001 058B 
                 ; 0001 058C             if(SAN_ID==1)
                 ; 0001 058D             {
                 ; 0001 058E               rbctrlPenaltyAngle = 179;
                 ; 0001 058F               rbctrlHomeAngle = 179 ;
                 ; 0001 0590               rbctrlHomeX =66.0 ;
00074b 940e 15cd 	CALL SUBOPT_0x25
                 ; 0001 0591               rbctrlHomeY = 79.4  ;
                 ; 0001 0592               setRobotXmin=-270;
                 ; 0001 0593               setRobotXmax=270;
                 ; 0001 0594             }
                 ; 0001 0595             else
                 ; 0001 0596             {
                 ; 0001 0597               rbctrlPenaltyAngle = -15;
                 ; 0001 0598               rbctrlHomeAngle = -15  ;
                 ; 0001 0599               rbctrlHomeX =-44.3 ;
                 ; 0001 059A               rbctrlHomeY = 82.7  ;
                 _0x20316:
00074d 93e0 0499 	STS  _rbctrlHomeY,R30
00074f 93f0 049a 	STS  _rbctrlHomeY+1,R31
000751 9360 049b 	STS  _rbctrlHomeY+2,R22
000753 9370 049c 	STS  _rbctrlHomeY+3,R23
                 ; 0001 059B               setRobotXmin=-270;
000755 940e 15de 	CALL SUBOPT_0x26
                 ; 0001 059C               setRobotXmax=270;
000757 940e 15eb 	CALL SUBOPT_0x27
                 ; 0001 059D             }
                 ; 0001 059E        break;
000759 c066      	RJMP _0x20126
                 ; 0001 059F        case 3:
                 _0x2012A:
00075a 30e3      	CPI  R30,LOW(0x3)
00075b f581      	BRNE _0x2012D
                 ; 0001 05A0 
                 ; 0001 05A1 
                 ; 0001 05A2             rbctrlPenaltyX = 0;
00075c e0e0      	LDI  R30,LOW(0)
00075d 93e0 049d 	STS  _rbctrlPenaltyX,R30
00075f 93e0 049e 	STS  _rbctrlPenaltyX+1,R30
000761 93e0 049f 	STS  _rbctrlPenaltyX+2,R30
000763 93e0 04a0 	STS  _rbctrlPenaltyX+3,R30
                 ; 0001 05A3             rbctrlPenaltyY = 0;
000765 93e0 04a1 	STS  _rbctrlPenaltyY,R30
000767 93e0 04a2 	STS  _rbctrlPenaltyY+1,R30
000769 93e0 04a3 	STS  _rbctrlPenaltyY+2,R30
00076b 93e0 04a4 	STS  _rbctrlPenaltyY+3,R30
                 ; 0001 05A4             rbctrlPenaltyAngle = -15;
                +
00076d e0e0     +LDI R30 , LOW ( 0xC1700000 )
00076e e0f0     +LDI R31 , HIGH ( 0xC1700000 )
00076f e760     +LDI R22 , BYTE3 ( 0xC1700000 )
000770 ec71     +LDI R23 , BYTE4 ( 0xC1700000 )
                 	__GETD1N 0xC1700000
000771 940e 15f8 	CALL SUBOPT_0x28
                 ; 0001 05A5             if(SAN_ID==1)
                 ; 0001 05A6             {
                 ; 0001 05A7               rbctrlPenaltyAngle = 179;
000773 940e 15f8 	CALL SUBOPT_0x28
                 ; 0001 05A8               rbctrlHomeAngle = 179 ;
000775 93e0 04a9 	STS  _rbctrlHomeAngle,R30
000777 93f0 04aa 	STS  _rbctrlHomeAngle+1,R31
000779 9360 04ab 	STS  _rbctrlHomeAngle+2,R22
00077b 9370 04ac 	STS  _rbctrlHomeAngle+3,R23
                 ; 0001 05A9               rbctrlHomeX =54.1 ;
00077d 940e 1605 	CALL SUBOPT_0x29
                 ; 0001 05AA               rbctrlHomeY = -99.9  ;
                 ; 0001 05AB               setRobotXmin=-270;
                 ; 0001 05AC               setRobotXmax=20;
                +
00077f e0e0     +LDI R30 , LOW ( 0x41A00000 )
000780 e0f0     +LDI R31 , HIGH ( 0x41A00000 )
000781 ea60     +LDI R22 , BYTE3 ( 0x41A00000 )
000782 e471     +LDI R23 , BYTE4 ( 0x41A00000 )
                 	__GETD1N 0x41A00000
                 ; 0001 05AD             }
                 ; 0001 05AE             else
                 ; 0001 05AF             {
                 ; 0001 05B0               rbctrlPenaltyAngle = -15;
                 ; 0001 05B1               rbctrlHomeAngle = -15  ;
                 ; 0001 05B2               rbctrlHomeX =-53.5 ;
                 ; 0001 05B3               rbctrlHomeY =  -93.8 ;
                 ; 0001 05B4               setRobotXmin=-20;
                 ; 0001 05B5               setRobotXmax=270;
                 _0x20317:
000783 93e0 0485 	STS  _setRobotXmax,R30
000785 93f0 0486 	STS  _setRobotXmax+1,R31
000787 9360 0487 	STS  _setRobotXmax+2,R22
000789 9370 0488 	STS  _setRobotXmax+3,R23
                 ; 0001 05B6             }
                 ; 0001 05B7        break;
00078b c034      	RJMP _0x20126
                 ; 0001 05B8        case 4:
                 _0x2012D:
00078c 30e4      	CPI  R30,LOW(0x4)
00078d f469      	BRNE _0x20130
                 ; 0001 05B9 
                 ; 0001 05BA             rbctrlPenaltyX=0;
00078e 940e 157e 	CALL SUBOPT_0x23
                 ; 0001 05BB             rbctrlPenaltyY=0;
                 ; 0001 05BC 
                 ; 0001 05BD              if(SAN_ID==1)
                 ; 0001 05BE             {
                 ; 0001 05BF               rbctrlPenaltyAngle = 179;
                 ; 0001 05C0               rbctrlHomeAngle = 179 ;
                 ; 0001 05C1               rbctrlHomeX = 269.7 ;
000790 940e 15a4 	CALL SUBOPT_0x24
                 ; 0001 05C2               rbctrlHomeY = 1.7  ;
                 ; 0001 05C3               setRobotXmin=80;
                 ; 0001 05C4               setRobotXmax=260;
                 ; 0001 05C5             }
                 ; 0001 05C6             else
                 ; 0001 05C7             {
                 ; 0001 05C8               rbctrlPenaltyAngle = -15;
                 ; 0001 05C9               rbctrlHomeAngle = -15  ;
                 ; 0001 05CA               rbctrlHomeX =-226.1 ;
                 ; 0001 05CB               rbctrlHomeY = 1.6  ;
                 ; 0001 05CC               setRobotXmin=-260;
                 ; 0001 05CD               setRobotXmax=-80;
                 _0x20318:
000792 93e0 0485 	STS  _setRobotXmax,R30
000794 93f0 0486 	STS  _setRobotXmax+1,R31
000796 9360 0487 	STS  _setRobotXmax+2,R22
000798 9370 0488 	STS  _setRobotXmax+3,R23
                 ; 0001 05CE             }
                 ; 0001 05CF        break;
00079a c025      	RJMP _0x20126
                 ; 0001 05D0        case 5:
                 _0x20130:
00079b 30e5      	CPI  R30,LOW(0x5)
00079c f489      	BRNE _0x20133
                 ; 0001 05D1 
                 ; 0001 05D2             rbctrlPenaltyX = 0;
00079d 940e 157e 	CALL SUBOPT_0x23
                 ; 0001 05D3             rbctrlPenaltyY = 0;
                 ; 0001 05D4              if(SAN_ID==1)
                 ; 0001 05D5             {
                 ; 0001 05D6                 rbctrlPenaltyAngle = 179;
                 ; 0001 05D7                rbctrlHomeAngle = 179 ;
                 ; 0001 05D8                rbctrlHomeX =66.0 ;
00079f 940e 15cd 	CALL SUBOPT_0x25
                 ; 0001 05D9               rbctrlHomeY = 79.4  ;
                 ; 0001 05DA               setRobotXmin=-270;
                 ; 0001 05DB               setRobotXmax=270;
                 ; 0001 05DC             }
                 ; 0001 05DD             else
                 ; 0001 05DE             {
                 ; 0001 05DF               rbctrlPenaltyAngle = -15;
                 ; 0001 05E0               rbctrlHomeAngle = -15  ;
                 ; 0001 05E1               rbctrlHomeX =-44.3 ;
                 ; 0001 05E2               rbctrlHomeY = 82.7  ;
                 _0x20319:
0007a1 93e0 0499 	STS  _rbctrlHomeY,R30
0007a3 93f0 049a 	STS  _rbctrlHomeY+1,R31
0007a5 9360 049b 	STS  _rbctrlHomeY+2,R22
0007a7 9370 049c 	STS  _rbctrlHomeY+3,R23
                 ; 0001 05E3               setRobotXmin=-270;
0007a9 940e 15de 	CALL SUBOPT_0x26
                 ; 0001 05E4               setRobotXmax=270;
0007ab 940e 15eb 	CALL SUBOPT_0x27
                 ; 0001 05E5             }
                 ; 0001 05E6        break;
0007ad c012      	RJMP _0x20126
                 ; 0001 05E7        case 6:
                 _0x20133:
0007ae 30e6      	CPI  R30,LOW(0x6)
0007af f481      	BRNE _0x20126
                 ; 0001 05E8 
                 ; 0001 05E9 
                 ; 0001 05EA             rbctrlPenaltyX = 0;
0007b0 940e 157e 	CALL SUBOPT_0x23
                 ; 0001 05EB             rbctrlPenaltyY = 0;
                 ; 0001 05EC             if(SAN_ID==1)
                 ; 0001 05ED             {
                 ; 0001 05EE                rbctrlPenaltyAngle = 179;
                 ; 0001 05EF               rbctrlHomeAngle = 179 ;
                 ; 0001 05F0               rbctrlHomeX =54.1 ;
0007b2 940e 1605 	CALL SUBOPT_0x29
                 ; 0001 05F1               rbctrlHomeY = -99.9  ;
                 ; 0001 05F2               setRobotXmin=-270;
                 ; 0001 05F3               setRobotXmax=20;
                +
0007b4 e0e0     +LDI R30 , LOW ( 0x41A00000 )
0007b5 e0f0     +LDI R31 , HIGH ( 0x41A00000 )
0007b6 ea60     +LDI R22 , BYTE3 ( 0x41A00000 )
0007b7 e471     +LDI R23 , BYTE4 ( 0x41A00000 )
                 	__GETD1N 0x41A00000
                 ; 0001 05F4             }
                 ; 0001 05F5             else
                 ; 0001 05F6             {
                 ; 0001 05F7               rbctrlPenaltyAngle = -15;
                 ; 0001 05F8               rbctrlHomeAngle = -15  ;
                 ; 0001 05F9               rbctrlHomeX =-53.5 ;
                 ; 0001 05FA               rbctrlHomeY =  -93.8 ;
                 ; 0001 05FB               setRobotXmin=-20;
                 ; 0001 05FC               setRobotXmax=270;
                 _0x2031A:
0007b8 93e0 0485 	STS  _setRobotXmax,R30
0007ba 93f0 0486 	STS  _setRobotXmax+1,R31
0007bc 9360 0487 	STS  _setRobotXmax+2,R22
0007be 9370 0488 	STS  _setRobotXmax+3,R23
                 ; 0001 05FD             }
                 ; 0001 05FE        break;
                 ; 0001 05FF 
                 ; 0001 0600 
                 ; 0001 0601     }
                 _0x20126:
                 ; 0001 0602 }
0007c0 9508      	RET
                 ;//=======================================================
                 ;// Tinh luc theo goc quay de dieu khien robot
                 ;int calcVangle(int angle)
                 ; 0001 0606 {
                 ; 0001 0607     int verrangle=0;
                 ; 0001 0608     //tinh thanh phan I
                 ; 0001 0609     verranglekisum = verranglekisum + angle/20;
                 ;	angle -> Y+2
                 ;	verrangle -> R16,R17
                 ; 0001 060A     if(verranglekisum>15)verranglekisum = 15;
                 ; 0001 060B     if(verranglekisum<-15)verranglekisum = -15;
                 ; 0001 060C     //tinh thanh phan dieu khien
                 ; 0001 060D     verrangle = 10 + angle/12 + verranglekisum ;
                 ; 0001 060E     //gioi han bao hoa
                 ; 0001 060F     if(verrangle<0) verrangle=-verrangle;//lay tri tuyet doi cua van toc v dieu khien
                 ; 0001 0610     if(verrangle>20) verrangle = 20;
                 ; 0001 0611     if(verrangle<8) verrangle = 8;
                 ; 0001 0612     return  verrangle;
                 ; 0001 0613 }
                 ;//ctrl robot
                 ;void ctrrobot()
                 ; 0001 0616 {
                 ; 0001 0617     if(readposition()==1)//co du lieu moi
                 ; 0001 0618     {
                 ; 0001 0619 //          hc(3,40);wn16s(cmdCtrlRobot);
                 ; 0001 061A //        hc(4,40);wn16s(idRobot);
                 ; 0001 061B          //-------------------------------------------------
                 ; 0001 061C         if(cmdCtrlRobot==8)      // dung ma lenh stop chuong trinh
                 ; 0001 061D         {
                 ; 0001 061E             flagsethome=0; //cho phep sethome
                 ; 0001 061F             while(cmdCtrlRobot==8)
                 ; 0001 0620             {
                 ; 0001 0621               codePenalty();
                 ; 0001 0622             }
                 ; 0001 0623         }
                 ; 0001 0624 
                 ; 0001 0625         if(cmdCtrlRobot==1)      // dung ma lenh stop chuong trinh
                 ; 0001 0626         {
                 ; 0001 0627             flagsethome=0; //cho phep sethome
                 ; 0001 0628             while(cmdCtrlRobot==1)
                 ; 0001 0629             {
                 ; 0001 062A               readposition();
                 ; 0001 062B             }
                 ; 0001 062C         }
                 ; 0001 062D 
                 ; 0001 062E         if(cmdCtrlRobot==5)  //sethome robot
                 ; 0001 062F         {
                 ; 0001 0630 
                 ; 0001 0631            cntsethomeRB++;
                 ; 0001 0632            if(cntsethomeRB > 2)
                 ; 0001 0633            {
                 ; 0001 0634              LEDBR=1;
                 ; 0001 0635              if (flagsethome == 0)sethomeRB();
                 ; 0001 0636              cntsethomeRB=0;
                 ; 0001 0637            }
                 ; 0001 0638 
                 ; 0001 0639         }
                 ; 0001 063A 
                 ; 0001 063B         if(cmdCtrlRobot==4)  //sethome robot
                 ; 0001 063C         {
                 ; 0001 063D            flagsethome=0; //cho phep sethome
                 ; 0001 063E            cntstuckRB++;
                 ; 0001 063F            if(cntstuckRB > 2)
                 ; 0001 0640            {
                 ; 0001 0641              runEscStuck();
                 ; 0001 0642              cntstuckRB=0;
                 ; 0001 0643            }
                 ; 0001 0644         }
                 ; 0001 0645 
                 ; 0001 0646         if(cmdCtrlRobot==3)  //roi vao diem mu (blind spot) , mat vi tri hay huong
                 ; 0001 0647         {
                 ; 0001 0648            flagsethome=0; //cho phep sethome
                 ; 0001 0649            cntunlookRB++;
                 ; 0001 064A            if(cntunlookRB > 2)
                 ; 0001 064B            {
                 ; 0001 064C              runEscBlindSpot();
                 ; 0001 064D              cntunlookRB=0;
                 ; 0001 064E            }
                 ; 0001 064F 
                 ; 0001 0650         }
                 ; 0001 0651 
                 ; 0001 0652 
                 ; 0001 0653         //------------------------------------------------
                 ; 0001 0654         if(cmdCtrlRobot==2) {// run chuong trinh
                 ; 0001 0655             flagsethome=0; //cho phep sethome
                 ; 0001 0656             switch(flagtask)
                 ; 0001 0657             {
                 ; 0001 0658               // chay den vi tri duoc set boi nguoi dieu khien
                 ; 0001 0659               case 0:
                 ; 0001 065A                      if(setRobotX < setRobotXmin)   setRobotX =  setRobotXmin;
                 ; 0001 065B                      if(setRobotX >setRobotXmax)    setRobotX =  setRobotXmax;
                 ; 0001 065C                      calcvitri(setRobotX,setRobotY);
                 ; 0001 065D                      if(distance>80) //chay den vi tri
                 ; 0001 065E                      {
                 ; 0001 065F                          if(errangle>18 || errangle<-18 )
                 ; 0001 0660                          {
                 ; 0001 0661                            int nv = errangle*27/180 ;
                 ; 0001 0662                            int verrangle = calcVangle(errangle);
                 ; 0001 0663                            ctrRobotXoay(nv,verrangle);
                 ;	nv -> Y+2
                 ;	verrangle -> Y+0
                 ; 0001 0664                            delay_ms(1);
                 ; 0001 0665                          }else
                 ; 0001 0666                          {
                 ; 0001 0667                            //1xung = 3.14 * 40/24 =5.22
                 ; 0001 0668                            ctrRobottoi(distance/5.22,15);
                 ; 0001 0669                           // verranglekisum=0;//RESET I.
                 ; 0001 066A                          }
                 ; 0001 066B                      }
                 ; 0001 066C                      else
                 ; 0001 066D                      {
                 ; 0001 066E                          flagtask=10;
                 ; 0001 066F                      }
                 ; 0001 0670                      break;
                 ; 0001 0671               // quay dung huong duoc set boi nguoi dieu khien
                 ; 0001 0672               case 1:
                 ; 0001 0673 
                 ; 0001 0674                     calcvitri(robotctrl.x + setRobotAngleX,robotctrl.y + setRobotAngleY);
                 ; 0001 0675                     if(errangle>18 || errangle<-18 )
                 ; 0001 0676                      {
                 ; 0001 0677 
                 ; 0001 0678                        int nv = errangle*27/180 ;
                 ; 0001 0679                        int verrangle = calcVangle(errangle);
                 ; 0001 067A                        ctrRobotXoay(nv,verrangle);
                 ;	nv -> Y+2
                 ;	verrangle -> Y+0
                 ; 0001 067B                       // ctrRobotXoay(nv,10);
                 ; 0001 067C                        delay_ms(1);
                 ; 0001 067D                      }else
                 ; 0001 067E                      {
                 ; 0001 067F                        flaghuongtrue++;
                 ; 0001 0680                        if(flaghuongtrue>3)
                 ; 0001 0681                        {
                 ; 0001 0682                         //verranglekisum=0;//RESET I.
                 ; 0001 0683                          flaghuongtrue=0;
                 ; 0001 0684                          flagtask=10;
                 ; 0001 0685                        }
                 ; 0001 0686 
                 ; 0001 0687                      }
                 ; 0001 0688                     break;
                 ; 0001 0689               // chay den vi tri bong
                 ; 0001 068A               case 2:
                 ; 0001 068B 
                 ; 0001 068C                     //PHUC test    rb1 ,s1
                 ; 0001 068D                     if(robotctrl.ball.x < setRobotXmin)   robotctrl.ball.x =  setRobotXmin;
                 ; 0001 068E                     if(robotctrl.ball.x >setRobotXmax)    robotctrl.ball.x =  setRobotXmax;
                 ; 0001 068F                     calcvitri(robotctrl.ball.x,robotctrl.ball.y);
                 ; 0001 0690 
                 ; 0001 0691                      if(errangle>18 || errangle<-18 )
                 ; 0001 0692                      {
                 ; 0001 0693                        int nv = errangle*27/180 ;
                 ; 0001 0694                        int verrangle = calcVangle(errangle);
                 ; 0001 0695                        ctrRobotXoay(nv,verrangle);
                 ;	nv -> Y+2
                 ;	verrangle -> Y+0
                 ; 0001 0696                        delay_ms(1);
                 ; 0001 0697                      }else
                 ; 0001 0698                      {
                 ; 0001 0699                          //1xung = 3.14 * 40/24 =5.22
                 ; 0001 069A                          if(distance>10) //chay den vi tri
                 ; 0001 069B                          {
                 ; 0001 069C                            ctrRobottoi(distance/5.22,15);
                 ; 0001 069D                            delay_ms(5);
                 ; 0001 069E                          }else
                 ; 0001 069F                          {
                 ; 0001 06A0                            flagtask=10;
                 ; 0001 06A1                          }
                 ; 0001 06A2                         // verranglekisum=0;//RESET I.
                 ; 0001 06A3                      }
                 ; 0001 06A4 
                 ; 0001 06A5                     break;
                 ; 0001 06A6               // da bong
                 ; 0001 06A7               case 3:
                 ; 0001 06A8                     ctrRobottoi(40,22);
                 ; 0001 06A9                     delay_ms(400);
                 ; 0001 06AA                     ctrRobotlui(40,15);
                 ; 0001 06AB                     delay_ms(400);
                 ; 0001 06AC                     flagtask = 10;
                 ; 0001 06AD                     break;
                 ; 0001 06AE               case 10:
                 ; 0001 06AF                     vMRtoi(0);
                 ; 0001 06B0                     vMLtoi(0);
                 ; 0001 06B1                     break;
                 ; 0001 06B2               //chay theo bong co dinh huong
                 ; 0001 06B3               case 4:
                 ; 0001 06B4                     calcvitri(robotctrl.ball.x,robotctrl.ball.y);
                 ; 0001 06B5                     if(errangle>18 || errangle<-18 )
                 ; 0001 06B6                      {
                 ; 0001 06B7 
                 ; 0001 06B8                        int nv = errangle*27/180 ;
                 ; 0001 06B9                        int verrangle = calcVangle(errangle);
                 ; 0001 06BA                        ctrRobotXoay(nv,verrangle);
                 ;	nv -> Y+2
                 ;	verrangle -> Y+0
                 ; 0001 06BB                       // ctrRobotXoay(nv,10);
                 ; 0001 06BC                        delay_ms(1);
                 ; 0001 06BD                      }else
                 ; 0001 06BE                      {
                 ; 0001 06BF                        flaghuongtrue++;
                 ; 0001 06C0                        if(flaghuongtrue>3)
                 ; 0001 06C1                        {
                 ; 0001 06C2                         //verranglekisum=0;//RESET I.
                 ; 0001 06C3                          flaghuongtrue=0;
                 ; 0001 06C4                          flagtask=10;
                 ; 0001 06C5                        }
                 ; 0001 06C6 
                 ; 0001 06C7                      }
                 ; 0001 06C8                     break;
                 ; 0001 06C9            }
                 ; 0001 06CA        }//end if(cmdCtrlRobot==2)
                 ; 0001 06CB     }else   //khong co tin hieu RF hay khong thay robot
                 ; 0001 06CC     {
                 ; 0001 06CD          //if(flagunlookRB==1) runEscBlindSpot();
                 ; 0001 06CE 
                 ; 0001 06CF     }
                 ; 0001 06D0 
                 ; 0001 06D1 
                 ; 0001 06D2 }
                 ;
                 ;void rb_move(float x,float y)
                 ; 0001 06D5 {
                 ; 0001 06D6    flagtask = 0;
                 ;	x -> Y+4
                 ;	y -> Y+0
                 ; 0001 06D7    flagtaskold=flagtask;
                 ; 0001 06D8    setRobotX=x;
                 ; 0001 06D9    setRobotY=y;
                 ; 0001 06DA }
                 ;void rb_rotate(int angle)     // goc xoay so voi truc x cua toa do
                 ; 0001 06DC {
                 ; 0001 06DD    flagtask = 1;
                 ;	angle -> Y+0
                 ; 0001 06DE    flagtaskold=flagtask;
                 ; 0001 06DF    setRobotAngleX=10*cos(angle*M_PI/180);
                 ; 0001 06E0    setRobotAngleY=10*sin(angle*M_PI/180);;
                 ; 0001 06E1 }
                 ;
                 ;void rb_goball()
                 ; 0001 06E4 {
                 ; 0001 06E5    flagtask = 2;
                 ; 0001 06E6    flagtaskold=flagtask;
                 ; 0001 06E7 }
                 ;void rb_kick()
                 ; 0001 06E9 {
                 ; 0001 06EA    flagtask = 3;
                 ; 0001 06EB    flagtaskold=flagtask;
                 ; 0001 06EC }
                 ;int rb_wait(unsigned long int time )
                 ; 0001 06EE {
                 ; 0001 06EF    time=time*10;
                 ;	time -> Y+0
                 ; 0001 06F0    while(time--)
                 ; 0001 06F1    {
                 ; 0001 06F2      ctrrobot();
                 ; 0001 06F3      if(flagtask==10) return 1 ;// thuc hien xong nhiem vu
                 ; 0001 06F4    }
                 ; 0001 06F5     return 0;
                 ; 0001 06F6 }
                 ;//========================================================
                 ;// Timer1 overflow interrupt service routine
                 ;// period =1/2khz= 0.5ms
                 ;interrupt [TIM1_OVF] void timer1_ovf_isr(void)
                 ; 0001 06FB {
                 _timer1_ovf_isr:
0007c1 940e 161e 	CALL SUBOPT_0x2A
                 ; 0001 06FC // Place your code here
                 ; 0001 06FD    timerstick++;
0007c3 ecac      	LDI  R26,LOW(_timerstick)
0007c4 e0b4      	LDI  R27,HIGH(_timerstick)
0007c5 940e 162c 	CALL SUBOPT_0x2B
                 ; 0001 06FE    timerstickdis++;
0007c7 ecae      	LDI  R26,LOW(_timerstickdis)
0007c8 e0b4      	LDI  R27,HIGH(_timerstickdis)
0007c9 940e 162c 	CALL SUBOPT_0x2B
                 ; 0001 06FF    timerstickang++;
0007cb eda0      	LDI  R26,LOW(_timerstickang)
0007cc e0b4      	LDI  R27,HIGH(_timerstickang)
0007cd 940e 162c 	CALL SUBOPT_0x2B
                 ; 0001 0700    timerstickctr++;
0007cf eda2      	LDI  R26,LOW(_timerstickctr)
0007d0 e0b4      	LDI  R27,HIGH(_timerstickctr)
0007d1 940e 162c 	CALL SUBOPT_0x2B
                 ; 0001 0701  #ifdef CtrVelocity
                 ; 0001 0702  // dieu khien van toc
                 ; 0001 0703    if(timerstick>250)    // 125ms/0.5ms=250 : dung chu ki lay mau = 125 ms
0007d3 91a0 04cc 	LDS  R26,_timerstick
0007d5 91b0 04cd 	LDS  R27,_timerstick+1
0007d7 3fab      	CPI  R26,LOW(0xFB)
0007d8 e0e0      	LDI  R30,HIGH(0xFB)
0007d9 07be      	CPC  R27,R30
0007da f410      	BRSH PC+3
0007db 940c 08d5 	JMP _0x20179
                 ; 0001 0704    {
                 ; 0001 0705      int eR=0,eL=0;
                 ; 0001 0706 
                 ; 0001 0707      //-------------------------------------------
                 ; 0001 0708      //cap nhat van toc
                 ; 0001 0709      vQER = (QER-oldQER);     //(xung / 10ms)
0007dd 9724      	SBIW R28,4
0007de 940e 1632 	CALL SUBOPT_0x2C
0007e0 e0e0      	LDI  R30,LOW(0)
0007e1 83ea      	STD  Y+2,R30
0007e2 83eb      	STD  Y+3,R30
                 ;	eR -> Y+2
                 ;	eL -> Y+0
0007e3 91a0 04da 	LDS  R26,_oldQER
0007e5 91b0 04db 	LDS  R27,_oldQER+1
0007e7 940e 1636 	CALL SUBOPT_0x2D
0007e9 1bea      	SUB  R30,R26
0007ea 0bfb      	SBC  R31,R27
0007eb 93e0 04d6 	STS  _vQER,R30
0007ed 93f0 04d7 	STS  _vQER+1,R31
                 ; 0001 070A      vQEL = (QEL-oldQEL);     //(xung /10ms)
0007ef 91a0 04d8 	LDS  R26,_oldQEL
0007f1 91b0 04d9 	LDS  R27,_oldQEL+1
0007f3 940e 163b 	CALL SUBOPT_0x2E
0007f5 1bea      	SUB  R30,R26
0007f6 0bfb      	SBC  R31,R27
0007f7 93e0 04d4 	STS  _vQEL,R30
0007f9 93f0 04d5 	STS  _vQEL+1,R31
                 ; 0001 070B      oldQEL=QEL;
0007fb 940e 163b 	CALL SUBOPT_0x2E
0007fd 93e0 04d8 	STS  _oldQEL,R30
0007ff 93f0 04d9 	STS  _oldQEL+1,R31
                 ; 0001 070C      oldQER=QER;
000801 940e 1636 	CALL SUBOPT_0x2D
000803 93e0 04da 	STS  _oldQER,R30
000805 93f0 04db 	STS  _oldQER+1,R31
                 ; 0001 070D      timerstick=0;
000807 e0e0      	LDI  R30,LOW(0)
000808 93e0 04cc 	STS  _timerstick,R30
00080a 93e0 04cd 	STS  _timerstick+1,R30
                 ; 0001 070E 
                 ; 0001 070F      //--------------------------------------------
                 ; 0001 0710      //tinh PID van toc
                 ; 0001 0711      //--------------------------------------------
                 ; 0001 0712      eR=svQER-vQER;
00080c 91a0 04d6 	LDS  R26,_vQER
00080e 91b0 04d7 	LDS  R27,_vQER+1
000810 91e0 04de 	LDS  R30,_svQER
000812 91f0 04df 	LDS  R31,_svQER+1
000814 1bea      	SUB  R30,R26
000815 0bfb      	SBC  R31,R27
000816 83ea      	STD  Y+2,R30
000817 83fb      	STD  Y+2+1,R31
                 ; 0001 0713      //tinh thanh phan I
                 ; 0001 0714      seRki=seRki+KiR*eR;
000818 91a0 04ea 	LDS  R26,_KiR
00081a 91b0 04eb 	LDS  R27,_KiR+1
00081c 940e 1a11 	CALL __MULW12
00081e 940e 1640 	CALL SUBOPT_0x2F
000820 0fea      	ADD  R30,R26
000821 1ffb      	ADC  R31,R27
000822 940e 1645 	CALL SUBOPT_0x30
                 ; 0001 0715      if(seRki>100) seRki=100;
000824 940e 1640 	CALL SUBOPT_0x2F
000826 36a5      	CPI  R26,LOW(0x65)
000827 e0e0      	LDI  R30,HIGH(0x65)
000828 07be      	CPC  R27,R30
000829 f024      	BRLT _0x2017A
00082a e6e4      	LDI  R30,LOW(100)
00082b e0f0      	LDI  R31,HIGH(100)
00082c 940e 1645 	CALL SUBOPT_0x30
                 ; 0001 0716      if(seRki<-100) seRki = -100;
                 _0x2017A:
00082e 940e 1640 	CALL SUBOPT_0x2F
000830 39ac      	CPI  R26,LOW(0xFF9C)
000831 efef      	LDI  R30,HIGH(0xFF9C)
000832 07be      	CPC  R27,R30
000833 f424      	BRGE _0x2017B
000834 e9ec      	LDI  R30,LOW(65436)
000835 efff      	LDI  R31,HIGH(65436)
000836 940e 1645 	CALL SUBOPT_0x30
                 ; 0001 0717      //tinh them thanh phan P
                 ; 0001 0718      uR = 100 + KpR*eR + seRki;
                 _0x2017B:
000838 81ea      	LDD  R30,Y+2
000839 81fb      	LDD  R31,Y+2+1
00083a 91a0 04e8 	LDS  R26,_KpR
00083c 91b0 04e9 	LDS  R27,_KpR+1
00083e 940e 1a11 	CALL __MULW12
000840 59ec      	SUBI R30,LOW(-100)
000841 4fff      	SBCI R31,HIGH(-100)
000842 940e 1640 	CALL SUBOPT_0x2F
000844 0fea      	ADD  R30,R26
000845 1ffb      	ADC  R31,R27
000846 93e0 04e6 	STS  _uR,R30
000848 93f0 04e7 	STS  _uR+1,R31
                 ; 0001 0719      if(uR>255) uR =255;
00084a 91a0 04e6 	LDS  R26,_uR
00084c 91b0 04e7 	LDS  R27,_uR+1
00084e 30a0      	CPI  R26,LOW(0x100)
00084f e0e1      	LDI  R30,HIGH(0x100)
000850 07be      	CPC  R27,R30
000851 f034      	BRLT _0x2017C
000852 efef      	LDI  R30,LOW(255)
000853 e0f0      	LDI  R31,HIGH(255)
000854 93e0 04e6 	STS  _uR,R30
000856 93f0 04e7 	STS  _uR+1,R31
                 ; 0001 071A      if(uR<0) uR =0;
                 _0x2017C:
000858 91a0 04e7 	LDS  R26,_uR+1
00085a 23aa      	TST  R26
00085b f42a      	BRPL _0x2017D
00085c e0e0      	LDI  R30,LOW(0)
00085d 93e0 04e6 	STS  _uR,R30
00085f 93e0 04e7 	STS  _uR+1,R30
                 ; 0001 071B 
                 ; 0001 071C      eL=svQEL-vQEL;
                 _0x2017D:
000861 91a0 04d4 	LDS  R26,_vQEL
000863 91b0 04d5 	LDS  R27,_vQEL+1
000865 91e0 04dc 	LDS  R30,_svQEL
000867 91f0 04dd 	LDS  R31,_svQEL+1
000869 940e 155d 	CALL SUBOPT_0x1C
                 ; 0001 071D      //tinh thanh phan I
                 ; 0001 071E      seLki=seLki+KiL*eL;
00086b 81e8      	LD   R30,Y
00086c 81f9      	LDD  R31,Y+1
00086d 91a0 04ee 	LDS  R26,_KiL
00086f 91b0 04ef 	LDS  R27,_KiL+1
000871 940e 1a11 	CALL __MULW12
000873 940e 164a 	CALL SUBOPT_0x31
000875 0fea      	ADD  R30,R26
000876 1ffb      	ADC  R31,R27
000877 940e 164f 	CALL SUBOPT_0x32
                 ; 0001 071F      if(seLki>100) seLki=100;
000879 940e 164a 	CALL SUBOPT_0x31
00087b 36a5      	CPI  R26,LOW(0x65)
00087c e0e0      	LDI  R30,HIGH(0x65)
00087d 07be      	CPC  R27,R30
00087e f024      	BRLT _0x2017E
00087f e6e4      	LDI  R30,LOW(100)
000880 e0f0      	LDI  R31,HIGH(100)
000881 940e 164f 	CALL SUBOPT_0x32
                 ; 0001 0720      if(seLki<-100) seLki = -100;
                 _0x2017E:
000883 940e 164a 	CALL SUBOPT_0x31
000885 39ac      	CPI  R26,LOW(0xFF9C)
000886 efef      	LDI  R30,HIGH(0xFF9C)
000887 07be      	CPC  R27,R30
000888 f424      	BRGE _0x2017F
000889 e9ec      	LDI  R30,LOW(65436)
00088a efff      	LDI  R31,HIGH(65436)
00088b 940e 164f 	CALL SUBOPT_0x32
                 ; 0001 0721      //tinh them thanh phan P
                 ; 0001 0722      uL = 100 + KpL*eL + seLki;
                 _0x2017F:
00088d 81e8      	LD   R30,Y
00088e 81f9      	LDD  R31,Y+1
00088f 91a0 04ec 	LDS  R26,_KpL
000891 91b0 04ed 	LDS  R27,_KpL+1
000893 940e 1a11 	CALL __MULW12
000895 59ec      	SUBI R30,LOW(-100)
000896 4fff      	SBCI R31,HIGH(-100)
000897 940e 164a 	CALL SUBOPT_0x31
000899 0fea      	ADD  R30,R26
00089a 1ffb      	ADC  R31,R27
00089b 93e0 04e4 	STS  _uL,R30
00089d 93f0 04e5 	STS  _uL+1,R31
                 ; 0001 0723      if(uL>255) uL =255;
00089f 91a0 04e4 	LDS  R26,_uL
0008a1 91b0 04e5 	LDS  R27,_uL+1
0008a3 30a0      	CPI  R26,LOW(0x100)
0008a4 e0e1      	LDI  R30,HIGH(0x100)
0008a5 07be      	CPC  R27,R30
0008a6 f034      	BRLT _0x20180
0008a7 efef      	LDI  R30,LOW(255)
0008a8 e0f0      	LDI  R31,HIGH(255)
0008a9 93e0 04e4 	STS  _uL,R30
0008ab 93f0 04e5 	STS  _uL+1,R31
                 ; 0001 0724      if(uL<0) uL =0;
                 _0x20180:
0008ad 91a0 04e5 	LDS  R26,_uL+1
0008af 23aa      	TST  R26
0008b0 f42a      	BRPL _0x20181
0008b1 e0e0      	LDI  R30,LOW(0)
0008b2 93e0 04e4 	STS  _uL,R30
0008b4 93e0 04e5 	STS  _uL+1,R30
                 ; 0001 0725 
                 ; 0001 0726      if(svQER!=0)OCR1B= uR;
                 _0x20181:
0008b6 91e0 04de 	LDS  R30,_svQER
0008b8 91f0 04df 	LDS  R31,_svQER+1
0008ba 9730      	SBIW R30,0
0008bb f029      	BREQ _0x20182
0008bc 91e0 04e6 	LDS  R30,_uR
0008be 91f0 04e7 	LDS  R31,_uR+1
0008c0 c002      	RJMP _0x2031C
                 ; 0001 0727      else  OCR1B = 0;
                 _0x20182:
0008c1 e0e0      	LDI  R30,LOW(0)
0008c2 e0f0      	LDI  R31,HIGH(0)
                 _0x2031C:
0008c3 bdf9      	OUT  0x28+1,R31
0008c4 bde8      	OUT  0x28,R30
                 ; 0001 0728 
                 ; 0001 0729      if(svQEL!=0) OCR1A= uL;
0008c5 91e0 04dc 	LDS  R30,_svQEL
0008c7 91f0 04dd 	LDS  R31,_svQEL+1
0008c9 9730      	SBIW R30,0
0008ca f029      	BREQ _0x20184
0008cb 91e0 04e4 	LDS  R30,_uL
0008cd 91f0 04e5 	LDS  R31,_uL+1
0008cf c002      	RJMP _0x2031D
                 ; 0001 072A      else  OCR1A = 0;
                 _0x20184:
0008d0 e0e0      	LDI  R30,LOW(0)
0008d1 e0f0      	LDI  R31,HIGH(0)
                 _0x2031D:
0008d2 bdfb      	OUT  0x2A+1,R31
0008d3 bdea      	OUT  0x2A,R30
                 ; 0001 072B 
                 ; 0001 072C    }
0008d4 9624      	ADIW R28,4
                 ; 0001 072D // dieu khien khoang cach
                 ; 0001 072E   if(timerstickdis>10 && (flagwaitctrRobot==1))
                 _0x20179:
0008d5 91a0 04ce 	LDS  R26,_timerstickdis
0008d7 91b0 04cf 	LDS  R27,_timerstickdis+1
0008d9 971b      	SBIW R26,11
0008da f020      	BRLO _0x20187
0008db 91a0 04f4 	LDS  R26,_flagwaitctrRobot
0008dd 30a1      	CPI  R26,LOW(0x1)
0008de f009      	BREQ _0x20188
                 _0x20187:
0008df c025      	RJMP _0x20186
                 _0x20188:
                 ; 0001 072F   {
                 ; 0001 0730     unsigned int deltad1=0;
                 ; 0001 0731     deltad1 =(QER + QEL)/2 - oldd;
0008e0 9722      	SBIW R28,2
0008e1 940e 1632 	CALL SUBOPT_0x2C
                 ;	deltad1 -> Y+0
0008e3 940e 1654 	CALL SUBOPT_0x33
0008e5 91a0 04f2 	LDS  R26,_oldd
0008e7 91b0 04f3 	LDS  R27,_oldd+1
0008e9 940e 155d 	CALL SUBOPT_0x1C
                 ; 0001 0732     //if(deltad1<0) deltad1=0;// co the am do kieu so
                 ; 0001 0733     //hc(3,0);ws("            ");
                 ; 0001 0734     //hc(3,0);wn16s(deltad1);
                 ; 0001 0735     if(deltad1>sd)
0008eb 91e0 04f0 	LDS  R30,_sd
0008ed 91f0 04f1 	LDS  R31,_sd+1
0008ef 81a8      	LD   R26,Y
0008f0 81b9      	LDD  R27,Y+1
0008f1 17ea      	CP   R30,R26
0008f2 07fb      	CPC  R31,R27
0008f3 f458      	BRSH _0x20189
                 ; 0001 0736     {
                 ; 0001 0737 
                 ; 0001 0738         vMLstop();
0008f4 ddd5      	RCALL _vMLstop
                 ; 0001 0739         vMRstop();
0008f5 ddef      	RCALL _vMRstop
                 ; 0001 073A         flagwaitctrRobot=0;
0008f6 e0e0      	LDI  R30,LOW(0)
0008f7 93e0 04f4 	STS  _flagwaitctrRobot,R30
                 ; 0001 073B         oldd=(QER+QEL)/2;
0008f9 940e 1654 	CALL SUBOPT_0x33
0008fb 93e0 04f2 	STS  _oldd,R30
0008fd 93f0 04f3 	STS  _oldd+1,R31
                 ; 0001 073C 
                 ; 0001 073D     }
                 ; 0001 073E     timerstickdis=0;
                 _0x20189:
0008ff e0e0      	LDI  R30,LOW(0)
000900 93e0 04ce 	STS  _timerstickdis,R30
000902 93e0 04cf 	STS  _timerstickdis+1,R30
                 ; 0001 073F 
                 ; 0001 0740   }
000904 9622      	ADIW R28,2
                 ; 0001 0741   // dieu khien  vi tri goc quay
                 ; 0001 0742   if(timerstickang>10 && (flagwaitctrAngle==1))
                 _0x20186:
000905 91a0 04d0 	LDS  R26,_timerstickang
000907 91b0 04d1 	LDS  R27,_timerstickang+1
000909 971b      	SBIW R26,11
00090a f020      	BRLO _0x2018B
00090b 91a0 04f9 	LDS  R26,_flagwaitctrAngle
00090d 30a1      	CPI  R26,LOW(0x1)
00090e f009      	BREQ _0x2018C
                 _0x2018B:
00090f c025      	RJMP _0x2018A
                 _0x2018C:
                 ; 0001 0743   {
                 ; 0001 0744     unsigned int deltaa=0;
                 ; 0001 0745     deltaa =(QEL) - olda;
000910 9722      	SBIW R28,2
000911 940e 1632 	CALL SUBOPT_0x2C
                 ;	deltaa -> Y+0
000913 91a0 04f7 	LDS  R26,_olda
000915 91b0 04f8 	LDS  R27,_olda+1
000917 940e 163b 	CALL SUBOPT_0x2E
000919 940e 155d 	CALL SUBOPT_0x1C
                 ; 0001 0746 //    hc(4,0);ws("            ");
                 ; 0001 0747 //    hc(4,0);wn16s(deltaa);
                 ; 0001 0748     if(deltaa>sa)
00091b 91e0 04f5 	LDS  R30,_sa
00091d 91f0 04f6 	LDS  R31,_sa+1
00091f 81a8      	LD   R26,Y
000920 81b9      	LDD  R27,Y+1
000921 17ea      	CP   R30,R26
000922 07fb      	CPC  R31,R27
000923 f458      	BRSH _0x2018D
                 ; 0001 0749     {
                 ; 0001 074A         vMLstop();
000924 dda5      	RCALL _vMLstop
                 ; 0001 074B         vMRstop();
000925 ddbf      	RCALL _vMRstop
                 ; 0001 074C         flagwaitctrAngle=0;
000926 e0e0      	LDI  R30,LOW(0)
000927 93e0 04f9 	STS  _flagwaitctrAngle,R30
                 ; 0001 074D         olda=QEL;
000929 940e 163b 	CALL SUBOPT_0x2E
00092b 93e0 04f7 	STS  _olda,R30
00092d 93f0 04f8 	STS  _olda+1,R31
                 ; 0001 074E     }
                 ; 0001 074F     timerstickang=0;
                 _0x2018D:
00092f e0e0      	LDI  R30,LOW(0)
000930 93e0 04d0 	STS  _timerstickang,R30
000932 93e0 04d1 	STS  _timerstickang+1,R30
                 ; 0001 0750   }
000934 9622      	ADIW R28,2
                 ; 0001 0751   // dieu khien robot robot
                 ; 0001 0752   if(timerstickctr>1)
                 _0x2018A:
000935 91a0 04d2 	LDS  R26,_timerstickctr
000937 91b0 04d3 	LDS  R27,_timerstickctr+1
000939 9712      	SBIW R26,2
00093a f028      	BRLO _0x2018E
                 ; 0001 0753   {
                 ; 0001 0754     timerstickctr=0;
00093b e0e0      	LDI  R30,LOW(0)
00093c 93e0 04d2 	STS  _timerstickctr,R30
00093e 93e0 04d3 	STS  _timerstickctr+1,R30
                 ; 0001 0755   }
                 ; 0001 0756 #endif
                 ; 0001 0757 }
                 _0x2018E:
000940 940e 165f 	CALL SUBOPT_0x34
000942 9518      	RETI
                 ;
                 ;//========================================================
                 ;// read  vi tri robot   PHUC
                 ;//========================================================
                 ;unsigned char testposition()
                 ; 0001 075D {
                 _testposition:
                 ; 0001 075E         unsigned char  i=0;
                 ; 0001 075F         unsigned flagstatus=0;
                 ; 0001 0760 
                 ; 0001 0761    while(keyKT!=0)
000943 940e 1acd 	CALL __SAVELOCR4
                 ;	i -> R17
                 ;	flagstatus -> R18,R19
000945 e010      	LDI  R17,0
                +
000946 e020     +LDI R18 , LOW ( 0 )
000947 e030     +LDI R19 , HIGH ( 0 )
                 	__GETWRN 18,19,0
                 _0x2018F:
000948 9b98      	SBIS 0x13,0
000949 c044      	RJMP _0x20191
                 ; 0001 0762    {
                 ; 0001 0763         readposition();
00094a 940e 11ef 	CALL _readposition
                 ; 0001 0764 
                 ; 0001 0765          if(idRobot==ROBOT_ID)
00094c e0e4      	LDI  R30,LOW(4)
00094d e0f0      	LDI  R31,HIGH(4)
00094e 15ec      	CP   R30,R12
00094f 05fd      	CPC  R31,R13
000950 f5e1      	BRNE _0x20192
                 ; 0001 0766          {
                 ; 0001 0767              hc(5,40);wn16s(robotctrl.ball.y);
000951 e0e5      	LDI  R30,LOW(5)
000952 e0f0      	LDI  R31,HIGH(5)
000953 940e 166d 	CALL SUBOPT_0x35
                +
000955 91e0 044b+LDS R30 , _robotctrl + ( 12 )
000957 91f0 044c+LDS R31 , _robotctrl + ( 12 ) + 1
                 	__GETW1MN _robotctrl,12
000959 940e 1675 	CALL SUBOPT_0x36
                 ; 0001 0768              hc(4,40);wn16s(robotctrl.ball.x);
00095b e0e4      	LDI  R30,LOW(4)
00095c e0f0      	LDI  R31,HIGH(4)
00095d 940e 166d 	CALL SUBOPT_0x35
                +
00095f 91e0 0449+LDS R30 , _robotctrl + ( 10 )
000961 91f0 044a+LDS R31 , _robotctrl + ( 10 ) + 1
                 	__GETW1MN _robotctrl,10
000963 940e 1675 	CALL SUBOPT_0x36
                 ; 0001 0769              hc(3,20);wn16s(robotctrl.x);
000965 940e 1679 	CALL SUBOPT_0x37
000967 940e 167e 	CALL SUBOPT_0x38
000969 940e 1684 	CALL SUBOPT_0x39
00096b 940e 1675 	CALL SUBOPT_0x36
                 ; 0001 076A              hc(2,20);wn16s(robotctrl.y);
00096d 940e 1689 	CALL SUBOPT_0x3A
00096f 940e 167e 	CALL SUBOPT_0x38
000971 940e 168e 	CALL SUBOPT_0x3B
000973 940e 1675 	CALL SUBOPT_0x36
                 ; 0001 076B              hc(1,1);wn16s(robotctrl.ox);
000975 940e 1693 	CALL SUBOPT_0x3C
000977 940e 1693 	CALL SUBOPT_0x3C
000979 dbbe      	RCALL _hc
                +
00097a 91e0 0445+LDS R30 , _robotctrl + ( 6 )
00097c 91f0 0446+LDS R31 , _robotctrl + ( 6 ) + 1
                 	__GETW1MN _robotctrl,6
00097e 940e 1675 	CALL SUBOPT_0x36
                 ; 0001 076C              hc(0,1);wn16s(robotctrl.oy);
000980 940e 1698 	CALL SUBOPT_0x3D
000982 940e 1693 	CALL SUBOPT_0x3C
000984 dbb3      	RCALL _hc
                +
000985 91e0 0447+LDS R30 , _robotctrl + ( 8 )
000987 91f0 0448+LDS R31 , _robotctrl + ( 8 ) + 1
                 	__GETW1MN _robotctrl,8
000989 940e 1675 	CALL SUBOPT_0x36
                 ; 0001 076D              delay_ms(200);
00098b 940e 169d 	CALL SUBOPT_0x3E
                 ; 0001 076E          }
                 ; 0001 076F 
                 ; 0001 0770      }
                 _0x20192:
00098d cfba      	RJMP _0x2018F
                 _0x20191:
                 ; 0001 0771     return flagstatus;
00098e 2fe2      	MOV  R30,R18
00098f c4f2      	RJMP _0x20C0006
                 ; 0001 0772 }
                 ;//========================================================
                 ;void robotwall()
                 ; 0001 0775 {
                 _robotwall:
                 ; 0001 0776 unsigned int demled;
                 ; 0001 0777         DDRA    = 0x00;
000990 931a      	ST   -Y,R17
000991 930a      	ST   -Y,R16
                 ;	demled -> R16,R17
000992 940e 16a3 	CALL SUBOPT_0x3F
                 ; 0001 0778         PORTA   = 0x00;
                 ; 0001 0779 
                 ; 0001 077A         LcdClear();
                 ; 0001 077B         hc(0,10);
000994 940e 16a9 	CALL SUBOPT_0x40
                 ; 0001 077C         ws ("ROBOT WALL");
                +
000996 e6ec     +LDI R30 , LOW ( _0x20193 + ( 0 ) )
000997 e0f2     +LDI R31 , HIGH ( _0x20193 + ( 0 ) )
                 	__POINTW1MN _0x20193,0
000998 940e 1566 	CALL SUBOPT_0x1E
                 ; 0001 077D         LEDL=1;LEDR=1;
00099a 9aac      	SBI  0x15,4
00099b 9aad      	SBI  0x15,5
                 ; 0001 077E 
                 ; 0001 077F    while(keyKT!=0)
                 _0x20198:
00099c 9b98      	SBIS 0x13,0
00099d c060      	RJMP _0x2019A
                 ; 0001 0780    {
                 ; 0001 0781         IRFL=read_adc(4);
00099e e0e4      	LDI  R30,LOW(4)
00099f 93ea      	ST   -Y,R30
0009a0 dc57      	RCALL _read_adc
0009a1 93e0 04be 	STS  _IRFL,R30
0009a3 93f0 04bf 	STS  _IRFL+1,R31
                 ; 0001 0782         IRFR=read_adc(5);
0009a5 e0e5      	LDI  R30,LOW(5)
0009a6 93ea      	ST   -Y,R30
0009a7 dc50      	RCALL _read_adc
0009a8 93e0 04c0 	STS  _IRFR,R30
0009aa 93f0 04c1 	STS  _IRFR+1,R31
                 ; 0001 0783         hc(1,0) ; wn16(IRFL);
0009ac 940e 16af 	CALL SUBOPT_0x41
0009ae 91e0 04be 	LDS  R30,_IRFL
0009b0 91f0 04bf 	LDS  R31,_IRFL+1
0009b2 940e 1562 	CALL SUBOPT_0x1D
                 ; 0001 0784         hc(1,42); wn16(IRFR);
0009b4 940e 1693 	CALL SUBOPT_0x3C
0009b6 940e 16b2 	CALL SUBOPT_0x42
0009b8 91e0 04c0 	LDS  R30,_IRFR
0009ba 91f0 04c1 	LDS  R31,_IRFR+1
0009bc 940e 1562 	CALL SUBOPT_0x1D
                 ; 0001 0785 
                 ; 0001 0786         if (IRFL>250)
0009be 91a0 04be 	LDS  R26,_IRFL
0009c0 91b0 04bf 	LDS  R27,_IRFL+1
0009c2 3fab      	CPI  R26,LOW(0xFB)
0009c3 e0e0      	LDI  R30,HIGH(0xFB)
0009c4 07be      	CPC  R27,R30
0009c5 f030      	BRLO _0x2019B
                 ; 0001 0787         {
                 ; 0001 0788             vMLlui(22);vMRlui(10);delay_ms(600);
0009c6 e1e6      	LDI  R30,LOW(22)
0009c7 93ea      	ST   -Y,R30
0009c8 dcfb      	RCALL _vMLlui
0009c9 e0ea      	LDI  R30,LOW(10)
0009ca 940e 16b8 	CALL SUBOPT_0x43
                 ; 0001 0789         }
                 ; 0001 078A         if (IRFR>250)
                 _0x2019B:
0009cc 91a0 04c0 	LDS  R26,_IRFR
0009ce 91b0 04c1 	LDS  R27,_IRFR+1
0009d0 3fab      	CPI  R26,LOW(0xFB)
0009d1 e0e0      	LDI  R30,HIGH(0xFB)
0009d2 07be      	CPC  R27,R30
0009d3 f030      	BRLO _0x2019C
                 ; 0001 078B         {
                 ; 0001 078C             vMLlui(10);vMRlui(22);delay_ms(600);
0009d4 e0ea      	LDI  R30,LOW(10)
0009d5 93ea      	ST   -Y,R30
0009d6 dced      	RCALL _vMLlui
0009d7 e1e6      	LDI  R30,LOW(22)
0009d8 940e 16b8 	CALL SUBOPT_0x43
                 ; 0001 078D         }
                 ; 0001 078E         if((IRFL<300)&(IRFR<300))
                 _0x2019C:
0009da 91a0 04be 	LDS  R26,_IRFL
0009dc 91b0 04bf 	LDS  R27,_IRFL+1
0009de e2ec      	LDI  R30,LOW(300)
0009df e0f1      	LDI  R31,HIGH(300)
0009e0 940e 19e3 	CALL __LTW12U
0009e2 2e0e      	MOV  R0,R30
0009e3 91a0 04c0 	LDS  R26,_IRFR
0009e5 91b0 04c1 	LDS  R27,_IRFR+1
0009e7 e2ec      	LDI  R30,LOW(300)
0009e8 e0f1      	LDI  R31,HIGH(300)
0009e9 940e 19e3 	CALL __LTW12U
0009eb 21e0      	AND  R30,R0
0009ec f031      	BREQ _0x2019D
                 ; 0001 078F         {
                 ; 0001 0790             vMLtoi(22);vMRtoi(22);
0009ed e1e6      	LDI  R30,LOW(22)
0009ee 93ea      	ST   -Y,R30
0009ef dcce      	RCALL _vMLtoi
0009f0 e1e6      	LDI  R30,LOW(22)
0009f1 93ea      	ST   -Y,R30
0009f2 dce3      	RCALL _vMRtoi
                 ; 0001 0791         }
                 ; 0001 0792 
                 ; 0001 0793        demled++;
                 _0x2019D:
                +
0009f3 5f0f     +SUBI R16 , LOW ( - 1 )
0009f4 4f1f     +SBCI R17 , HIGH ( - 1 )
                 	__ADDWRN 16,17,1
                 ; 0001 0794        if(demled>50){demled=0;LEDLtoggle(); LEDRtoggle();}
                +
0009f5 3303     +CPI R16 , LOW ( 51 )
0009f6 e0e0     +LDI R30 , HIGH ( 51 )
0009f7 071e     +CPC R17 , R30
                 	__CPWRN 16,17,51
0009f8 f020      	BRLO _0x2019E
                +
0009f9 e000     +LDI R16 , LOW ( 0 )
0009fa e010     +LDI R17 , HIGH ( 0 )
                 	__GETWRN 16,17,0
0009fb 940e 16c1 	CALL SUBOPT_0x44
                 ; 0001 0795    }
                 _0x2019E:
0009fd cf9e      	RJMP _0x20198
                 _0x2019A:
                 ; 0001 0796 
                 ; 0001 0797 }
0009fe 9109      	LD   R16,Y+
0009ff 9119      	LD   R17,Y+
000a00 9508      	RET
                 
                 	.DSEG
                 _0x20193:
00026c           	.BYTE 0xB
                 ;////========================================================
                 ;//void robotline() //DIGITAL I/O
                 ;//{
                 ;//    unsigned char status=2;
                 ;//    unsigned char prestatus=2;
                 ;//
                 ;//    DDRA =0x00;
                 ;//    PORTA=0xFF;
                 ;////#define S0  PINA.0 status 0
                 ;////#define S1  PINA.1 status 1
                 ;////#define S2  PINA.2 status 2
                 ;////#define S3  PINA.3 status 3
                 ;////#define S4  PINA.7 status 4
                 ;//        LcdClear();
                 ;//        hc(0,1);
                 ;//        ws ("LINE FOLOWER");
                 ;//        hc(1,20);
                 ;//        ws (" ROBOT");
                 ;//        LEDL=1;LEDR=1;
                 ;//
                 ;//   while(keyKT!=0)
                 ;//   {
                 ;//      if (S2==0)
                 ;//      {
                 ;//          status=2;
                 ;//          vMLtoi(80);vMRtoi(80);
                 ;//      }
                 ;//      //===========================
                 ;//      if ((prestatus==2)&(S1==0))
                 ;//      {
                 ;//          status=1;
                 ;//          vMLtoi(80);vMRtoi(50);
                 ;//      }
                 ;//      if ((prestatus==2)&(S0==0))
                 ;//      {
                 ;//          status=0;
                 ;//          vMLtoi(80);vMRtoi(30);
                 ;//      }
                 ;//       //===========================
                 ;//      if ((prestatus==2)&(S3==0))
                 ;//      {
                 ;//          status=1;
                 ;//          vMLtoi(50);vMRtoi(80);
                 ;//      }
                 ;//      if ((prestatus==2)&(S4==0))
                 ;//      {
                 ;//          status=0;
                 ;//          vMLtoi(30);vMRtoi(80);
                 ;//      }
                 ;//       //===========================
                 ;//      if ((prestatus==1)&(S0==0))
                 ;//      {
                 ;//          status=1;
                 ;//          vMLtoi(80);vMRtoi(40);
                 ;//      }
                 ;//      if ((prestatus==3)&(S4==0))
                 ;//      {
                 ;//          status=0;
                 ;//          vMLtoi(40);vMRtoi(80);
                 ;//      }
                 ;//
                 ;//      prestatus=status;
                 ;//      delay_ms(200);LEDLtoggle();LEDRtoggle();
                 ;//
                 ;//  }
                 ;// }
                 ;
                 ;
                 ;//========================================================
                 ;void readline()
                 ; 0001 07DE {
                 
                 	.CSEG
                 _readline:
                 ; 0001 07DF     int i=0,j=0;
                 ; 0001 07E0     // reset the values
                 ; 0001 07E1         for(i = 0; i < 5; i++)
000a01 940e 1acd 	CALL __SAVELOCR4
                 ;	i -> R16,R17
                 ;	j -> R18,R19
                +
000a03 e000     +LDI R16 , LOW ( 0 )
000a04 e010     +LDI R17 , HIGH ( 0 )
                 	__GETWRN 16,17,0
                +
000a05 e020     +LDI R18 , LOW ( 0 )
000a06 e030     +LDI R19 , HIGH ( 0 )
                 	__GETWRN 18,19,0
                +
000a07 e000     +LDI R16 , LOW ( 0 )
000a08 e010     +LDI R17 , HIGH ( 0 )
                 	__GETWRN 16,17,0
                 _0x201A0:
                +
000a09 3005     +CPI R16 , LOW ( 5 )
000a0a e0e0     +LDI R30 , HIGH ( 5 )
000a0b 071e     +CPC R17 , R30
                 	__CPWRN 16,17,5
000a0c f45c      	BRGE _0x201A1
                 ; 0001 07E2         IRLINE[i] = 0;
000a0d 940e 16c5 	CALL SUBOPT_0x45
000a0f 0fae      	ADD  R26,R30
000a10 1fbf      	ADC  R27,R31
000a11 e0e0      	LDI  R30,LOW(0)
000a12 e0f0      	LDI  R31,HIGH(0)
000a13 93ed      	ST   X+,R30
000a14 93fc      	ST   X,R31
                +
000a15 5f0f     +SUBI R16 , LOW ( - 1 )
000a16 4f1f     +SBCI R17 , HIGH ( - 1 )
                 	__ADDWRN 16,17,1
000a17 cff1      	RJMP _0x201A0
                 _0x201A1:
                 ; 0001 07E4 for (j = 0; j < 50; j++)
                +
000a18 e020     +LDI R18 , LOW ( 0 )
000a19 e030     +LDI R19 , HIGH ( 0 )
                 	__GETWRN 18,19,0
                 _0x201A3:
                +
000a1a 3322     +CPI R18 , LOW ( 50 )
000a1b e0e0     +LDI R30 , HIGH ( 50 )
000a1c 073e     +CPC R19 , R30
                 	__CPWRN 18,19,50
000a1d f014      	BRLT PC+3
000a1e 940c 0a62 	JMP _0x201A4
                 ; 0001 07E5         {
                 ; 0001 07E6             IRLINE[0]= IRLINE[0]+read_adc(0);
000a20 e0e0      	LDI  R30,LOW(0)
000a21 93ea      	ST   -Y,R30
000a22 dbd5      	RCALL _read_adc
000a23 91a0 04c2 	LDS  R26,_IRLINE
000a25 91b0 04c3 	LDS  R27,_IRLINE+1
000a27 0fea      	ADD  R30,R26
000a28 1ffb      	ADC  R31,R27
000a29 93e0 04c2 	STS  _IRLINE,R30
000a2b 93f0 04c3 	STS  _IRLINE+1,R31
                 ; 0001 07E7             IRLINE[1]= IRLINE[1]+read_adc(1);
000a2d e0e1      	LDI  R30,LOW(1)
000a2e 93ea      	ST   -Y,R30
000a2f dbc8      	RCALL _read_adc
                +
000a30 91a0 04c4+LDS R26 , _IRLINE + ( 2 )
000a32 91b0 04c5+LDS R27 , _IRLINE + ( 2 ) + 1
                 	__GETW2MN _IRLINE,2
000a34 0fea      	ADD  R30,R26
000a35 1ffb      	ADC  R31,R27
                +
000a36 93e0 04c4+STS _IRLINE + ( 2 ) , R30
000a38 93f0 04c5+STS _IRLINE + ( 2 ) + 1 , R31
                 	__PUTW1MN _IRLINE,2
                 ; 0001 07E8             IRLINE[2]= IRLINE[2]+read_adc(2);
000a3a e0e2      	LDI  R30,LOW(2)
000a3b 93ea      	ST   -Y,R30
000a3c dbbb      	RCALL _read_adc
000a3d 940e 16cb 	CALL SUBOPT_0x46
000a3f 0fea      	ADD  R30,R26
000a40 1ffb      	ADC  R31,R27
                +
000a41 93e0 04c6+STS _IRLINE + ( 4 ) , R30
000a43 93f0 04c7+STS _IRLINE + ( 4 ) + 1 , R31
                 	__PUTW1MN _IRLINE,4
                 ; 0001 07E9             IRLINE[3]= IRLINE[3]+read_adc(3);
000a45 e0e3      	LDI  R30,LOW(3)
000a46 93ea      	ST   -Y,R30
000a47 dbb0      	RCALL _read_adc
                +
000a48 91a0 04c8+LDS R26 , _IRLINE + ( 6 )
000a4a 91b0 04c9+LDS R27 , _IRLINE + ( 6 ) + 1
                 	__GETW2MN _IRLINE,6
000a4c 0fea      	ADD  R30,R26
000a4d 1ffb      	ADC  R31,R27
                +
000a4e 93e0 04c8+STS _IRLINE + ( 6 ) , R30
000a50 93f0 04c9+STS _IRLINE + ( 6 ) + 1 , R31
                 	__PUTW1MN _IRLINE,6
                 ; 0001 07EA             IRLINE[4]= IRLINE[4]+read_adc(7);
000a52 e0e7      	LDI  R30,LOW(7)
000a53 93ea      	ST   -Y,R30
000a54 dba3      	RCALL _read_adc
                +
000a55 91a0 04ca+LDS R26 , _IRLINE + ( 8 )
000a57 91b0 04cb+LDS R27 , _IRLINE + ( 8 ) + 1
                 	__GETW2MN _IRLINE,8
000a59 0fea      	ADD  R30,R26
000a5a 1ffb      	ADC  R31,R27
                +
000a5b 93e0 04ca+STS _IRLINE + ( 8 ) , R30
000a5d 93f0 04cb+STS _IRLINE + ( 8 ) + 1 , R31
                 	__PUTW1MN _IRLINE,8
                 ; 0001 07EB         }
                +
000a5f 5f2f     +SUBI R18 , LOW ( - 1 )
000a60 4f3f     +SBCI R19 , HIGH ( - 1 )
                 	__ADDWRN 18,19,1
000a61 cfb8      	RJMP _0x201A3
                 _0x201A4:
                 ; 0001 07EC         // get the rounded average of the readings for each sensor
                 ; 0001 07ED         for (i = 0; i < 5; i++)
                +
000a62 e000     +LDI R16 , LOW ( 0 )
000a63 e010     +LDI R17 , HIGH ( 0 )
                 	__GETWRN 16,17,0
                 _0x201A6:
                +
000a64 3005     +CPI R16 , LOW ( 5 )
000a65 e0e0     +LDI R30 , HIGH ( 5 )
000a66 071e     +CPC R17 , R30
                 	__CPWRN 16,17,5
000a67 f4ac      	BRGE _0x201A7
                 ; 0001 07EE         IRLINE[i] = (IRLINE[i] + (50 >> 1)) /50;
000a68 940e 16c5 	CALL SUBOPT_0x45
000a6a 0fea      	ADD  R30,R26
000a6b 1ffb      	ADC  R31,R27
000a6c 01bf      	MOVW R22,R30
000a6d 940e 16c5 	CALL SUBOPT_0x45
000a6f 940e 16d0 	CALL SUBOPT_0x47
000a71 9679      	ADIW R30,25
000a72 01df      	MOVW R26,R30
000a73 e3e2      	LDI  R30,LOW(50)
000a74 e0f0      	LDI  R31,HIGH(50)
000a75 940e 1a1b 	CALL __DIVW21U
000a77 01db      	MOVW R26,R22
000a78 93ed      	ST   X+,R30
000a79 93fc      	ST   X,R31
                +
000a7a 5f0f     +SUBI R16 , LOW ( - 1 )
000a7b 4f1f     +SBCI R17 , HIGH ( - 1 )
                 	__ADDWRN 16,17,1
000a7c cfe7      	RJMP _0x201A6
                 _0x201A7:
                 ; 0001 07EF }
000a7d c404      	RJMP _0x20C0006
                 ;//========================================================
                 ;void robotwhiteline() //ANALOG OK
                 ; 0001 07F2 {
                 _robotwhiteline:
                 ; 0001 07F3     unsigned char i=0,imax;
                 ; 0001 07F4     int imaxlast=0;
                 ; 0001 07F5     unsigned int  admax;
                 ; 0001 07F6     unsigned int  demled=0;
                 ; 0001 07F7     unsigned int flagblindT=0;
                 ; 0001 07F8     unsigned int flagblindP=0;
                 ; 0001 07F9     DDRA =0x00;
000a7e 9726      	SBIW R28,6
000a7f 940e 1632 	CALL SUBOPT_0x2C
000a81 e0e0      	LDI  R30,LOW(0)
000a82 83ea      	STD  Y+2,R30
000a83 83eb      	STD  Y+3,R30
000a84 83ec      	STD  Y+4,R30
000a85 83ed      	STD  Y+5,R30
000a86 940e 1acb 	CALL __SAVELOCR6
                 ;	i -> R17
                 ;	imax -> R16
                 ;	imaxlast -> R18,R19
                 ;	admax -> R20,R21
                 ;	demled -> Y+10
                 ;	flagblindT -> Y+8
                 ;	flagblindP -> Y+6
000a88 e010      	LDI  R17,0
                +
000a89 e020     +LDI R18 , LOW ( 0 )
000a8a e030     +LDI R19 , HIGH ( 0 )
                 	__GETWRN 18,19,0
000a8b 940e 16a3 	CALL SUBOPT_0x3F
                 ; 0001 07FA     PORTA=0x00;
                 ; 0001 07FB 
                 ; 0001 07FC         LcdClear();
                 ; 0001 07FD         hc(0,1);
000a8d 940e 1693 	CALL SUBOPT_0x3C
000a8f daa8      	RCALL _hc
                 ; 0001 07FE         ws ("WHITE LINE");
                +
000a90 e7e7     +LDI R30 , LOW ( _0x201A8 + ( 0 ) )
000a91 e0f2     +LDI R31 , HIGH ( _0x201A8 + ( 0 ) )
                 	__POINTW1MN _0x201A8,0
000a92 940e 1566 	CALL SUBOPT_0x1E
                 ; 0001 07FF         hc(1,10);
000a94 940e 1693 	CALL SUBOPT_0x3C
000a96 940e 16a9 	CALL SUBOPT_0x40
                 ; 0001 0800         ws ("FOLOWER");
                +
000a98 e8e2     +LDI R30 , LOW ( _0x201A8 + ( 11 ) )
000a99 e0f2     +LDI R31 , HIGH ( _0x201A8 + ( 11 ) )
                 	__POINTW1MN _0x201A8,11
000a9a 940e 1566 	CALL SUBOPT_0x1E
                 ; 0001 0801         LEDL=1;LEDR=1;
000a9c 9aac      	SBI  0x15,4
000a9d 9aad      	SBI  0x15,5
                 ; 0001 0802         //doc va khoi dong gia tri cho imaxlast
                 ; 0001 0803          readline();
000a9e 940e 16d5 	CALL SUBOPT_0x48
                 ; 0001 0804         admax = IRLINE[0];imax=0;
                 ; 0001 0805         for(i=1;i<5;i++){if(admax<IRLINE[i]){admax=IRLINE[i];imax=i;}}
                 _0x201AE:
000aa0 3015      	CPI  R17,5
000aa1 f468      	BRSH _0x201AF
000aa2 940e 16de 	CALL SUBOPT_0x49
000aa4 940e 16d0 	CALL SUBOPT_0x47
000aa6 174e      	CP   R20,R30
000aa7 075f      	CPC  R21,R31
000aa8 f420      	BRSH _0x201B0
000aa9 940e 16de 	CALL SUBOPT_0x49
000aab 940e 16e5 	CALL SUBOPT_0x4A
                 _0x201B0:
000aad 5f1f      	SUBI R17,-1
000aae cff1      	RJMP _0x201AE
                 _0x201AF:
                 ; 0001 0806         imaxlast=imax;
000aaf 2f20      	MOV  R18,R16
000ab0 2733      	CLR  R19
                 ; 0001 0807    while(keyKT!=0)
                 _0x201B1:
000ab1 9b98      	SBIS 0x13,0
000ab2 c0be      	RJMP _0x201B3
                 ; 0001 0808    {
                 ; 0001 0809         //doc gia tri cam bien
                 ; 0001 080A         readline();
000ab3 940e 16d5 	CALL SUBOPT_0x48
                 ; 0001 080B         admax = IRLINE[0];imax=0;
                 ; 0001 080C         for(i=1;i<5;i++){if(admax<IRLINE[i]){admax=IRLINE[i];imax=i;}}
                 _0x201B5:
000ab5 3015      	CPI  R17,5
000ab6 f468      	BRSH _0x201B6
000ab7 940e 16de 	CALL SUBOPT_0x49
000ab9 940e 16d0 	CALL SUBOPT_0x47
000abb 174e      	CP   R20,R30
000abc 075f      	CPC  R21,R31
000abd f420      	BRSH _0x201B7
000abe 940e 16de 	CALL SUBOPT_0x49
000ac0 940e 16e5 	CALL SUBOPT_0x4A
                 _0x201B7:
000ac2 5f1f      	SUBI R17,-1
000ac3 cff1      	RJMP _0x201B5
                 _0x201B6:
                 ; 0001 080D           //imax=2;
                 ; 0001 080E          if((imax-imaxlast > 1)||(imax-imaxlast <-1))  //tranh truong hop nhay bo trang thai
000ac4 940e 16eb 	CALL SUBOPT_0x4B
000ac6 1be2      	SUB  R30,R18
000ac7 0bf3      	SBC  R31,R19
000ac8 01df      	MOVW R26,R30
000ac9 9732      	SBIW R30,2
000aca f42c      	BRGE _0x201B9
000acb 01fd      	MOVW R30,R26
000acc 3fef      	CPI  R30,LOW(0xFFFF)
000acd efaf      	LDI  R26,HIGH(0xFFFF)
000ace 07fa      	CPC  R31,R26
000acf f40c      	BRGE _0x201B8
                 _0x201B9:
                 ; 0001 080F         {
                 ; 0001 0810         }
                 ; 0001 0811         else
000ad0 c034      	RJMP _0x201BB
                 _0x201B8:
                 ; 0001 0812         {
                 ; 0001 0813             switch(imax)
000ad1 940e 16eb 	CALL SUBOPT_0x4B
                 ; 0001 0814             {
                 ; 0001 0815               case 0:
000ad3 9730      	SBIW R30,0
000ad4 f449      	BRNE _0x201BF
                 ; 0001 0816                   vMLtoi(1); vMRtoi(20) ;
000ad5 940e 16ee 	CALL SUBOPT_0x4C
000ad7 940e 16f2 	CALL SUBOPT_0x4D
                 ; 0001 0817                   //flagblindT = 0;
                 ; 0001 0818                   flagblindP = 1;
000ad9 e0e1      	LDI  R30,LOW(1)
000ada e0f0      	LDI  R31,HIGH(1)
000adb 83ee      	STD  Y+6,R30
000adc 83ff      	STD  Y+6+1,R31
                 ; 0001 0819                 break;
000add c025      	RJMP _0x201BE
                 ; 0001 081A               case 1:
                 _0x201BF:
000ade 30e1      	CPI  R30,LOW(0x1)
000adf e0a0      	LDI  R26,HIGH(0x1)
000ae0 07fa      	CPC  R31,R26
000ae1 f429      	BRNE _0x201C0
                 ; 0001 081B                   vMLtoi(1); vMRtoi(15) ;
000ae2 940e 16ee 	CALL SUBOPT_0x4C
000ae4 940e 16f6 	CALL SUBOPT_0x4E
                 ; 0001 081C                 break;
000ae6 c01c      	RJMP _0x201BE
                 ; 0001 081D               case 2:
                 _0x201C0:
000ae7 30e2      	CPI  R30,LOW(0x2)
000ae8 e0a0      	LDI  R26,HIGH(0x2)
000ae9 07fa      	CPC  R31,R26
000aea f429      	BRNE _0x201C1
                 ; 0001 081E                   vMLtoi(15);vMRtoi(15) ;
000aeb 940e 16fa 	CALL SUBOPT_0x4F
000aed 940e 16f6 	CALL SUBOPT_0x4E
                 ; 0001 081F                 break;
000aef c013      	RJMP _0x201BE
                 ; 0001 0820               case 3:
                 _0x201C1:
000af0 30e3      	CPI  R30,LOW(0x3)
000af1 e0a0      	LDI  R26,HIGH(0x3)
000af2 07fa      	CPC  R31,R26
000af3 f429      	BRNE _0x201C2
                 ; 0001 0821                  vMLtoi(15); vMRtoi(1) ;
000af4 940e 16fa 	CALL SUBOPT_0x4F
000af6 940e 16fe 	CALL SUBOPT_0x50
                 ; 0001 0822                 break;
000af8 c00a      	RJMP _0x201BE
                 ; 0001 0823               case 4:
                 _0x201C2:
000af9 30e4      	CPI  R30,LOW(0x4)
000afa e0a0      	LDI  R26,HIGH(0x4)
000afb 07fa      	CPC  R31,R26
000afc f431      	BRNE _0x201C4
                 ; 0001 0824                   vMLtoi(20);vMRtoi(1)  ;
000afd 940e 1702 	CALL SUBOPT_0x51
                 ; 0001 0825                   flagblindT = 1;
000aff e0e1      	LDI  R30,LOW(1)
000b00 e0f0      	LDI  R31,HIGH(1)
000b01 87e8      	STD  Y+8,R30
000b02 87f9      	STD  Y+8+1,R31
                 ; 0001 0826                   //flagblindP = 0;
                 ; 0001 0827                 break;
                 ; 0001 0828               default:
                 _0x201C4:
                 ; 0001 0829                  // vMLtoi(5); vMRtoi(5) ;
                 ; 0001 082A                 break;
                 ; 0001 082B             }
                 _0x201BE:
                 ; 0001 082C              imaxlast=imax;
000b03 2f20      	MOV  R18,R16
000b04 2733      	CLR  R19
                 ; 0001 082D         }
                 _0x201BB:
                 ; 0001 082E 
                 ; 0001 082F             while(flagblindT ==1 && keyKT!=0) //lac duong ben trai
                 _0x201C5:
000b05 85a8      	LDD  R26,Y+8
000b06 85b9      	LDD  R27,Y+8+1
000b07 9711      	SBIW R26,1
000b08 f419      	BRNE _0x201C8
000b09 940e 1707 	CALL SUBOPT_0x52
000b0b f409      	BRNE _0x201C9
                 _0x201C8:
000b0c c01f      	RJMP _0x201C7
                 _0x201C9:
                 ; 0001 0830             {
                 ; 0001 0831                vMLtoi(20);vMRtoi(1)  ;
000b0d 940e 1702 	CALL SUBOPT_0x51
                 ; 0001 0832                 readline();
000b0f 940e 16d5 	CALL SUBOPT_0x48
                 ; 0001 0833                 admax = IRLINE[0];imax=0;
                 ; 0001 0834                 for(i=1;i<5;i++){if(admax<IRLINE[i]){admax=IRLINE[i];imax=i;}}
                 _0x201CB:
000b11 3015      	CPI  R17,5
000b12 f468      	BRSH _0x201CC
000b13 940e 16de 	CALL SUBOPT_0x49
000b15 940e 16d0 	CALL SUBOPT_0x47
000b17 174e      	CP   R20,R30
000b18 075f      	CPC  R21,R31
000b19 f420      	BRSH _0x201CD
000b1a 940e 16de 	CALL SUBOPT_0x49
000b1c 940e 16e5 	CALL SUBOPT_0x4A
                 _0x201CD:
000b1e 5f1f      	SUBI R17,-1
000b1f cff1      	RJMP _0x201CB
                 _0x201CC:
                 ; 0001 0835                 imaxlast=imax;
000b20 2f20      	MOV  R18,R16
000b21 2733      	CLR  R19
                 ; 0001 0836                if(IRLINE[2]>500)  flagblindT=0;
000b22 940e 16cb 	CALL SUBOPT_0x46
000b24 3fa5      	CPI  R26,LOW(0x1F5)
000b25 e0e1      	LDI  R30,HIGH(0x1F5)
000b26 07be      	CPC  R27,R30
000b27 f018      	BRLO _0x201CE
000b28 e0e0      	LDI  R30,LOW(0)
000b29 87e8      	STD  Y+8,R30
000b2a 87e9      	STD  Y+8+1,R30
                 ; 0001 0837 
                 ; 0001 0838 
                 ; 0001 0839             }
                 _0x201CE:
000b2b cfd9      	RJMP _0x201C5
                 _0x201C7:
                 ; 0001 083A             while(flagblindP ==1 && keyKT!=0 ) //lac duong ben phai
                 _0x201CF:
000b2c 81ae      	LDD  R26,Y+6
000b2d 81bf      	LDD  R27,Y+6+1
000b2e 9711      	SBIW R26,1
000b2f f419      	BRNE _0x201D2
000b30 940e 1707 	CALL SUBOPT_0x52
000b32 f409      	BRNE _0x201D3
                 _0x201D2:
000b33 c021      	RJMP _0x201D1
                 _0x201D3:
                 ; 0001 083B             {
                 ; 0001 083C                vMLtoi(1);vMRtoi(20)  ;
000b34 940e 16ee 	CALL SUBOPT_0x4C
000b36 940e 16f2 	CALL SUBOPT_0x4D
                 ; 0001 083D                 readline();
000b38 940e 16d5 	CALL SUBOPT_0x48
                 ; 0001 083E                 admax = IRLINE[0];imax=0;
                 ; 0001 083F                 for(i=1;i<5;i++){if(admax<IRLINE[i]){admax=IRLINE[i];imax=i;}}
                 _0x201D5:
000b3a 3015      	CPI  R17,5
000b3b f468      	BRSH _0x201D6
000b3c 940e 16de 	CALL SUBOPT_0x49
000b3e 940e 16d0 	CALL SUBOPT_0x47
000b40 174e      	CP   R20,R30
000b41 075f      	CPC  R21,R31
000b42 f420      	BRSH _0x201D7
000b43 940e 16de 	CALL SUBOPT_0x49
000b45 940e 16e5 	CALL SUBOPT_0x4A
                 _0x201D7:
000b47 5f1f      	SUBI R17,-1
000b48 cff1      	RJMP _0x201D5
                 _0x201D6:
                 ; 0001 0840                 imaxlast=imax;
000b49 2f20      	MOV  R18,R16
000b4a 2733      	CLR  R19
                 ; 0001 0841                if(IRLINE[2]>500)  flagblindP=0;
000b4b 940e 16cb 	CALL SUBOPT_0x46
000b4d 3fa5      	CPI  R26,LOW(0x1F5)
000b4e e0e1      	LDI  R30,HIGH(0x1F5)
000b4f 07be      	CPC  R27,R30
000b50 f018      	BRLO _0x201D8
000b51 e0e0      	LDI  R30,LOW(0)
000b52 83ee      	STD  Y+6,R30
000b53 83ef      	STD  Y+6+1,R30
                 ; 0001 0842 
                 ; 0001 0843             }
                 _0x201D8:
000b54 cfd7      	RJMP _0x201CF
                 _0x201D1:
                 ; 0001 0844         hc(3,10);wn16s(imax);
000b55 940e 1679 	CALL SUBOPT_0x37
000b57 940e 16a9 	CALL SUBOPT_0x40
000b59 940e 16eb 	CALL SUBOPT_0x4B
000b5b 940e 1675 	CALL SUBOPT_0x36
                 ; 0001 0845         hc(4,10);wn16s(admax);
000b5d 940e 170c 	CALL SUBOPT_0x53
000b5f 935a      	ST   -Y,R21
000b60 934a      	ST   -Y,R20
000b61 da76      	RCALL _wn16s
                 ; 0001 0846 
                 ; 0001 0847        demled++;
000b62 85ea      	LDD  R30,Y+10
000b63 85fb      	LDD  R31,Y+10+1
000b64 9631      	ADIW R30,1
000b65 87ea      	STD  Y+10,R30
000b66 87fb      	STD  Y+10+1,R31
                 ; 0001 0848        if(demled>30){demled=0;LEDLtoggle();LEDRtoggle(); }
000b67 85aa      	LDD  R26,Y+10
000b68 85bb      	LDD  R27,Y+10+1
000b69 975f      	SBIW R26,31
000b6a f028      	BRLO _0x201D9
000b6b e0e0      	LDI  R30,LOW(0)
000b6c 87ea      	STD  Y+10,R30
000b6d 87eb      	STD  Y+10+1,R30
000b6e 940e 16c1 	CALL SUBOPT_0x44
                 ; 0001 0849    }
                 _0x201D9:
000b70 cf40      	RJMP _0x201B1
                 _0x201B3:
                 ; 0001 084A }
000b71 940e 1ad2 	CALL __LOADLOCR6
000b73 962c      	ADIW R28,12
000b74 9508      	RET
                 
                 	.DSEG
                 _0x201A8:
000277           	.BYTE 0x13
                 ;
                 ;//========================================================
                 ;void robotblackline() //ANALOG OK
                 ; 0001 084E {
                 
                 	.CSEG
                 _robotblackline:
                 ; 0001 084F     long int lastvalueline=0, valueline=0,value=0,online=0;
                 ; 0001 0850     int i=0,j=0
                 ; 0001 0851     ,imin=0;
                 ; 0001 0852     long int avrg=0,sum=0 ;
                 ; 0001 0853     unsigned int admin;
                 ; 0001 0854      unsigned char imax;
                 ; 0001 0855     int imaxlast=0;
                 ; 0001 0856     unsigned int  admax;
                 ; 0001 0857     unsigned int demled=0;
                 ; 0001 0858     unsigned int flagblindT=0;
                 ; 0001 0859     unsigned int flagblindP=0;
                 ; 0001 085A     float udk,sumi=0,err,lasterr;
                 ; 0001 085B 
                 ; 0001 085C     int iminlast=0;
                 ; 0001 085D     DDRA =0x00;
000b75 97e7      	SBIW R28,55
000b76 e387      	LDI  R24,55
000b77 e0a0      	LDI  R26,LOW(0)
000b78 e0b0      	LDI  R27,HIGH(0)
000b79 e4ee      	LDI  R30,LOW(_0x201DA*2)
000b7a e0f2      	LDI  R31,HIGH(_0x201DA*2)
000b7b 940e 1ad9 	CALL __INITLOCB
000b7d 940e 1acb 	CALL __SAVELOCR6
                 ;	lastvalueline -> Y+57
                 ;	valueline -> Y+53
                 ;	value -> Y+49
                 ;	online -> Y+45
                 ;	i -> R16,R17
                 ;	j -> R18,R19
                 ;	imin -> R20,R21
                 ;	avrg -> Y+41
                 ;	sum -> Y+37
                 ;	admin -> Y+35
                 ;	imax -> Y+34
                 ;	imaxlast -> Y+32
                 ;	admax -> Y+30
                 ;	demled -> Y+28
                 ;	flagblindT -> Y+26
                 ;	flagblindP -> Y+24
                 ;	udk -> Y+20
                 ;	sumi -> Y+16
                 ;	err -> Y+12
                 ;	lasterr -> Y+8
                 ;	iminlast -> Y+6
                +
000b7f e000     +LDI R16 , LOW ( 0 )
000b80 e010     +LDI R17 , HIGH ( 0 )
                 	__GETWRN 16,17,0
                +
000b81 e020     +LDI R18 , LOW ( 0 )
000b82 e030     +LDI R19 , HIGH ( 0 )
                 	__GETWRN 18,19,0
                +
000b83 e040     +LDI R20 , LOW ( 0 )
000b84 e050     +LDI R21 , HIGH ( 0 )
                 	__GETWRN 20,21,0
000b85 940e 16a3 	CALL SUBOPT_0x3F
                 ; 0001 085E     PORTA=0x00;
                 ; 0001 085F 
                 ; 0001 0860         LcdClear();
                 ; 0001 0861         hc(0,1);
000b87 940e 1693 	CALL SUBOPT_0x3C
000b89 d9ae      	RCALL _hc
                 ; 0001 0862         ws ("BLACK LINE");
                +
000b8a e8ea     +LDI R30 , LOW ( _0x201DB + ( 0 ) )
000b8b e0f2     +LDI R31 , HIGH ( _0x201DB + ( 0 ) )
                 	__POINTW1MN _0x201DB,0
000b8c 940e 1566 	CALL SUBOPT_0x1E
                 ; 0001 0863         hc(1,10);
000b8e 940e 1693 	CALL SUBOPT_0x3C
000b90 940e 16a9 	CALL SUBOPT_0x40
                 ; 0001 0864         ws ("FOLOWER");
                +
000b92 e9e5     +LDI R30 , LOW ( _0x201DB + ( 11 ) )
000b93 e0f2     +LDI R31 , HIGH ( _0x201DB + ( 11 ) )
                 	__POINTW1MN _0x201DB,11
000b94 940e 1566 	CALL SUBOPT_0x1E
                 ; 0001 0865         LEDL=1;LEDR=1;
000b96 9aac      	SBI  0x15,4
000b97 9aad      	SBI  0x15,5
                 ; 0001 0866 
                 ; 0001 0867         //doc lan dau tien  de khoi dong gia tri iminlast;
                 ; 0001 0868         readline();
000b98 940e 1711 	CALL SUBOPT_0x54
                 ; 0001 0869         admin = IRLINE[0];imin=0;
                 ; 0001 086A         for(i=1;i<5;i++){if(admin>IRLINE[i]){admin=IRLINE[i];imin=i;}}
                 _0x201E1:
                +
000b9a 3005     +CPI R16 , LOW ( 5 )
000b9b e0e0     +LDI R30 , HIGH ( 5 )
000b9c 071e     +CPC R17 , R30
                 	__CPWRN 16,17,5
000b9d f48c      	BRGE _0x201E2
000b9e 940e 16c5 	CALL SUBOPT_0x45
000ba0 940e 16d0 	CALL SUBOPT_0x47
000ba2 940e 171e 	CALL SUBOPT_0x55
000ba4 f438      	BRSH _0x201E3
000ba5 940e 16c5 	CALL SUBOPT_0x45
000ba7 940e 16d0 	CALL SUBOPT_0x47
000ba9 a3eb      	STD  Y+35,R30
000baa a3fc      	STD  Y+35+1,R31
000bab 01a8      	MOVW R20,R16
                 _0x201E3:
                +
000bac 5f0f     +SUBI R16 , LOW ( - 1 )
000bad 4f1f     +SBCI R17 , HIGH ( - 1 )
                 	__ADDWRN 16,17,1
000bae cfeb      	RJMP _0x201E1
                 _0x201E2:
                 ; 0001 086B         iminlast=imin;
                +
000baf 834e     +STD Y + 6 , R20
000bb0 835f     +STD Y + 6 + 1 , R21
                 	__PUTWSR 20,21,6
                 ; 0001 086C         admin = 1024;
000bb1 e0e0      	LDI  R30,LOW(1024)
000bb2 e0f4      	LDI  R31,HIGH(1024)
000bb3 a3eb      	STD  Y+35,R30
000bb4 a3fc      	STD  Y+35+1,R31
                 ; 0001 086D         admax = 0;
000bb5 8fee      	STD  Y+30,R30
000bb6 8fef      	STD  Y+30+1,R30
                 ; 0001 086E    //calib
                 ; 0001 086F    while(keyKT!=0)
                 _0x201E4:
000bb7 9b98      	SBIS 0x13,0
000bb8 c040      	RJMP _0x201E6
                 ; 0001 0870    {
                 ; 0001 0871       //doc gia tri cam bien
                 ; 0001 0872       readline();
000bb9 de47      	RCALL _readline
                 ; 0001 0873 
                 ; 0001 0874       for(i=1;i<5;i++){if(admin>IRLINE[i]){admin=IRLINE[i];imin=i;}}
                +
000bba e001     +LDI R16 , LOW ( 1 )
000bbb e010     +LDI R17 , HIGH ( 1 )
                 	__GETWRN 16,17,1
                 _0x201E8:
                +
000bbc 3005     +CPI R16 , LOW ( 5 )
000bbd e0e0     +LDI R30 , HIGH ( 5 )
000bbe 071e     +CPC R17 , R30
                 	__CPWRN 16,17,5
000bbf f48c      	BRGE _0x201E9
000bc0 940e 16c5 	CALL SUBOPT_0x45
000bc2 940e 16d0 	CALL SUBOPT_0x47
000bc4 940e 171e 	CALL SUBOPT_0x55
000bc6 f438      	BRSH _0x201EA
000bc7 940e 16c5 	CALL SUBOPT_0x45
000bc9 940e 16d0 	CALL SUBOPT_0x47
000bcb a3eb      	STD  Y+35,R30
000bcc a3fc      	STD  Y+35+1,R31
000bcd 01a8      	MOVW R20,R16
                 _0x201EA:
                +
000bce 5f0f     +SUBI R16 , LOW ( - 1 )
000bcf 4f1f     +SBCI R17 , HIGH ( - 1 )
                 	__ADDWRN 16,17,1
000bd0 cfeb      	RJMP _0x201E8
                 _0x201E9:
                 ; 0001 0875       //hc(3,10);wn16s(admin);
                 ; 0001 0876       hc(3,10);wn16s(admin);
000bd1 940e 1679 	CALL SUBOPT_0x37
000bd3 940e 16a9 	CALL SUBOPT_0x40
000bd5 a1eb      	LDD  R30,Y+35
000bd6 a1fc      	LDD  R31,Y+35+1
000bd7 940e 1675 	CALL SUBOPT_0x36
                 ; 0001 0877 
                 ; 0001 0878       for(i=1;i<5;i++){if(admax<IRLINE[i]){admax=IRLINE[i];imax=i;}}
                +
000bd9 e001     +LDI R16 , LOW ( 1 )
000bda e010     +LDI R17 , HIGH ( 1 )
                 	__GETWRN 16,17,1
                 _0x201EC:
                +
000bdb 3005     +CPI R16 , LOW ( 5 )
000bdc e0e0     +LDI R30 , HIGH ( 5 )
000bdd 071e     +CPC R17 , R30
                 	__CPWRN 16,17,5
000bde f49c      	BRGE _0x201ED
000bdf 940e 16c5 	CALL SUBOPT_0x45
000be1 940e 16d0 	CALL SUBOPT_0x47
000be3 8dae      	LDD  R26,Y+30
000be4 8dbf      	LDD  R27,Y+30+1
000be5 17ae      	CP   R26,R30
000be6 07bf      	CPC  R27,R31
000be7 f438      	BRSH _0x201EE
000be8 940e 16c5 	CALL SUBOPT_0x45
000bea 940e 16d0 	CALL SUBOPT_0x47
000bec 8fee      	STD  Y+30,R30
000bed 8fff      	STD  Y+30+1,R31
                +
000bee a30a     +STD Y + 34 , R16
                 	__PUTBSR 16,34
                 _0x201EE:
                +
000bef 5f0f     +SUBI R16 , LOW ( - 1 )
000bf0 4f1f     +SBCI R17 , HIGH ( - 1 )
                 	__ADDWRN 16,17,1
000bf1 cfe9      	RJMP _0x201EC
                 _0x201ED:
                 ; 0001 0879       hc(4,10);wn16s(admax);
000bf2 940e 170c 	CALL SUBOPT_0x53
000bf4 8dee      	LDD  R30,Y+30
000bf5 8dff      	LDD  R31,Y+30+1
000bf6 940e 1675 	CALL SUBOPT_0x36
                 ; 0001 087A    }
000bf8 cfbe      	RJMP _0x201E4
                 _0x201E6:
                 ; 0001 087B    //test gia tri doc line
                 ; 0001 087C    online=0;
000bf9 e0e0      	LDI  R30,LOW(0)
                +
000bfa a7ed     +STD Y + 45 , R30
000bfb a7ee     +STD Y + 45 + 1 , R30
000bfc a7ef     +STD Y + 45 + 2 , R30
000bfd abe8     +STD Y + 45 + 3 , R30
                 	__CLRD1S 45
                 ; 0001 087D    while(1)
                 _0x201EF:
                 ; 0001 087E    {
                 ; 0001 087F       //doc gia tri cam bien
                 ; 0001 0880       readline();
000bfe de02      	RCALL _readline
                 ; 0001 0881       for(i=0;i<5;i++)
                +
000bff e000     +LDI R16 , LOW ( 0 )
000c00 e010     +LDI R17 , HIGH ( 0 )
                 	__GETWRN 16,17,0
                 _0x201F3:
                +
000c01 3005     +CPI R16 , LOW ( 5 )
000c02 e0e0     +LDI R30 , HIGH ( 5 )
000c03 071e     +CPC R17 , R30
                 	__CPWRN 16,17,5
000c04 f014      	BRLT PC+3
000c05 940c 0c4e 	JMP _0x201F4
                 ; 0001 0882       {
                 ; 0001 0883          value=IRLINE[i];
000c07 940e 16c5 	CALL SUBOPT_0x45
000c09 940e 16d0 	CALL SUBOPT_0x47
000c0b 2766      	CLR  R22
000c0c 2777      	CLR  R23
                +
000c0d abe9     +STD Y + 49 , R30
000c0e abfa     +STD Y + 49 + 1 , R31
000c0f ab6b     +STD Y + 49 + 2 , R22
000c10 ab7c     +STD Y + 49 + 3 , R23
                 	__PUTD1S 49
                 ; 0001 0884          if(value<280) online=1;
                +
000c11 a9a9     +LDD R26 , Y + 49
000c12 a9ba     +LDD R27 , Y + 49 + 1
000c13 a98b     +LDD R24 , Y + 49 + 2
000c14 a99c     +LDD R25 , Y + 49 + 3
                 	__GETD2S 49
                +
000c15 31a8     +CPI R26 , LOW ( 0x118 )
000c16 e0e1     +LDI R30 , HIGH ( 0x118 )
000c17 07be     +CPC R27 , R30
000c18 e0e0     +LDI R30 , BYTE3 ( 0x118 )
000c19 078e     +CPC R24 , R30
000c1a e0e0     +LDI R30 , BYTE4 ( 0x118 )
000c1b 079e     +CPC R25 , R30
                 	__CPD2N 0x118
000c1c f444      	BRGE _0x201F5
                +
000c1d e0e1     +LDI R30 , LOW ( 0x1 )
000c1e e0f0     +LDI R31 , HIGH ( 0x1 )
000c1f e060     +LDI R22 , BYTE3 ( 0x1 )
000c20 e070     +LDI R23 , BYTE4 ( 0x1 )
                 	__GETD1N 0x1
                +
000c21 a7ed     +STD Y + 45 , R30
000c22 a7fe     +STD Y + 45 + 1 , R31
000c23 a76f     +STD Y + 45 + 2 , R22
000c24 ab78     +STD Y + 45 + 3 , R23
                 	__PUTD1S 45
                 ; 0001 0885          avrg = avrg+i*1000*value;
                 _0x201F5:
000c25 01f8      	MOVW R30,R16
000c26 eea8      	LDI  R26,LOW(1000)
000c27 e0b3      	LDI  R27,HIGH(1000)
000c28 940e 1a11 	CALL __MULW12
000c2a 01df      	MOVW R26,R30
                +
000c2b a9e9     +LDD R30 , Y + 49
000c2c a9fa     +LDD R31 , Y + 49 + 1
000c2d a96b     +LDD R22 , Y + 49 + 2
000c2e a97c     +LDD R23 , Y + 49 + 3
                 	__GETD1S 49
000c2f 940e 19de 	CALL __CWD2
000c31 940e 1a16 	CALL __MULD12
                +
000c33 a5a9     +LDD R26 , Y + 41
000c34 a5ba     +LDD R27 , Y + 41 + 1
000c35 a58b     +LDD R24 , Y + 41 + 2
000c36 a59c     +LDD R25 , Y + 41 + 3
                 	__GETD2S 41
000c37 940e 19c3 	CALL __ADDD12
                +
000c39 a7e9     +STD Y + 41 , R30
000c3a a7fa     +STD Y + 41 + 1 , R31
000c3b a76b     +STD Y + 41 + 2 , R22
000c3c a77c     +STD Y + 41 + 3 , R23
                 	__PUTD1S 41
                 ; 0001 0886          sum = sum+value;
                +
000c3d a9e9     +LDD R30 , Y + 49
000c3e a9fa     +LDD R31 , Y + 49 + 1
000c3f a96b     +LDD R22 , Y + 49 + 2
000c40 a97c     +LDD R23 , Y + 49 + 3
                 	__GETD1S 49
                +
000c41 a1ad     +LDD R26 , Y + 37
000c42 a1be     +LDD R27 , Y + 37 + 1
000c43 a18f     +LDD R24 , Y + 37 + 2
000c44 a598     +LDD R25 , Y + 37 + 3
                 	__GETD2S 37
000c45 940e 19c3 	CALL __ADDD12
                +
000c47 a3ed     +STD Y + 37 , R30
000c48 a3fe     +STD Y + 37 + 1 , R31
000c49 a36f     +STD Y + 37 + 2 , R22
000c4a a778     +STD Y + 37 + 3 , R23
                 	__PUTD1S 37
                 ; 0001 0887       }
                +
000c4b 5f0f     +SUBI R16 , LOW ( - 1 )
000c4c 4f1f     +SBCI R17 , HIGH ( - 1 )
                 	__ADDWRN 16,17,1
000c4d cfb3      	RJMP _0x201F3
                 _0x201F4:
                 ; 0001 0888       //hc(1,10);wn16s(online);
                 ; 0001 0889       if(online==1)
                +
000c4e a5ad     +LDD R26 , Y + 45
000c4f a5be     +LDD R27 , Y + 45 + 1
000c50 a58f     +LDD R24 , Y + 45 + 2
000c51 a998     +LDD R25 , Y + 45 + 3
                 	__GETD2S 45
                +
000c52 30a1     +CPI R26 , LOW ( 0x1 )
000c53 e0e0     +LDI R30 , HIGH ( 0x1 )
000c54 07be     +CPC R27 , R30
000c55 e0e0     +LDI R30 , BYTE3 ( 0x1 )
000c56 078e     +CPC R24 , R30
000c57 e0e0     +LDI R30 , BYTE4 ( 0x1 )
000c58 079e     +CPC R25 , R30
                 	__CPD2N 0x1
000c59 f501      	BRNE _0x201F6
                 ; 0001 088A       {
                 ; 0001 088B          valueline=(int)(avrg/ sum);
                +
000c5a a1ed     +LDD R30 , Y + 37
000c5b a1fe     +LDD R31 , Y + 37 + 1
000c5c a16f     +LDD R22 , Y + 37 + 2
000c5d a578     +LDD R23 , Y + 37 + 3
                 	__GETD1S 37
                +
000c5e a5a9     +LDD R26 , Y + 41
000c5f a5ba     +LDD R27 , Y + 41 + 1
000c60 a58b     +LDD R24 , Y + 41 + 2
000c61 a59c     +LDD R25 , Y + 41 + 3
                 	__GETD2S 41
000c62 940e 1a58 	CALL __DIVD21
000c64 2766      	CLR  R22
000c65 2777      	CLR  R23
000c66 940e 19d9 	CALL __CWD1
                +
000c68 abed     +STD Y + 53 , R30
000c69 abfe     +STD Y + 53 + 1 , R31
000c6a ab6f     +STD Y + 53 + 2 , R22
000c6b af78     +STD Y + 53 + 3 , R23
                 	__PUTD1S 53
                 ; 0001 088C         // hc(2,10);wn16s(valueline);
                 ; 0001 088D          online=0;
000c6c e0e0      	LDI  R30,LOW(0)
                +
000c6d a7ed     +STD Y + 45 , R30
000c6e a7ee     +STD Y + 45 + 1 , R30
000c6f a7ef     +STD Y + 45 + 2 , R30
000c70 abe8     +STD Y + 45 + 3 , R30
                 	__CLRD1S 45
                 ; 0001 088E          avrg=0;
                +
000c71 a7e9     +STD Y + 41 , R30
000c72 a7ea     +STD Y + 41 + 1 , R30
000c73 a7eb     +STD Y + 41 + 2 , R30
000c74 a7ec     +STD Y + 41 + 3 , R30
                 	__CLRD1S 41
                 ; 0001 088F          sum=0;
                +
000c75 a3ed     +STD Y + 37 , R30
000c76 a3ee     +STD Y + 37 + 1 , R30
000c77 a3ef     +STD Y + 37 + 2 , R30
000c78 a7e8     +STD Y + 37 + 3 , R30
                 	__CLRD1S 37
                 ; 0001 0890       }else
000c79 c019      	RJMP _0x201F7
                 _0x201F6:
                 ; 0001 0891       {
                 ; 0001 0892          if(lastvalueline>1935)
                +
000c7a ada9     +LDD R26 , Y + 57
000c7b adba     +LDD R27 , Y + 57 + 1
000c7c ad8b     +LDD R24 , Y + 57 + 2
000c7d ad9c     +LDD R25 , Y + 57 + 3
                 	__GETD2S 57
                +
000c7e 39a0     +CPI R26 , LOW ( 0x790 )
000c7f e0e7     +LDI R30 , HIGH ( 0x790 )
000c80 07be     +CPC R27 , R30
000c81 e0e0     +LDI R30 , BYTE3 ( 0x790 )
000c82 078e     +CPC R24 , R30
000c83 e0e0     +LDI R30 , BYTE4 ( 0x790 )
000c84 079e     +CPC R25 , R30
                 	__CPD2N 0x790
000c85 f02c      	BRLT _0x201F8
                 ; 0001 0893          valueline=2000;
                +
000c86 ede0     +LDI R30 , LOW ( 0x7D0 )
000c87 e0f7     +LDI R31 , HIGH ( 0x7D0 )
000c88 e060     +LDI R22 , BYTE3 ( 0x7D0 )
000c89 e070     +LDI R23 , BYTE4 ( 0x7D0 )
                 	__GETD1N 0x7D0
000c8a c004      	RJMP _0x2031E
                 ; 0001 0894          else
                 _0x201F8:
                 ; 0001 0895          valueline=1800;
                +
000c8b e0e8     +LDI R30 , LOW ( 0x708 )
000c8c e0f7     +LDI R31 , HIGH ( 0x708 )
000c8d e060     +LDI R22 , BYTE3 ( 0x708 )
000c8e e070     +LDI R23 , BYTE4 ( 0x708 )
                 	__GETD1N 0x708
                 _0x2031E:
                +
000c8f abed     +STD Y + 53 , R30
000c90 abfe     +STD Y + 53 + 1 , R31
000c91 ab6f     +STD Y + 53 + 2 , R22
000c92 af78     +STD Y + 53 + 3 , R23
                 	__PUTD1S 53
                 ; 0001 0896       }
                 _0x201F7:
                 ; 0001 0897       err = 1935-valueline;
                +
000c93 a9ad     +LDD R26 , Y + 53
000c94 a9be     +LDD R27 , Y + 53 + 1
000c95 a98f     +LDD R24 , Y + 53 + 2
000c96 ad98     +LDD R25 , Y + 53 + 3
                 	__GETD2S 53
                +
000c97 e8ef     +LDI R30 , LOW ( 0x78F )
000c98 e0f7     +LDI R31 , HIGH ( 0x78F )
000c99 e060     +LDI R22 , BYTE3 ( 0x78F )
000c9a e070     +LDI R23 , BYTE4 ( 0x78F )
                 	__GETD1N 0x78F
000c9b 940e 19c8 	CALL __SUBD12
000c9d 940e 1886 	CALL __CDF1
000c9f 940e 1723 	CALL SUBOPT_0x56
                 ; 0001 0898       if(err>100) err=100;
000ca1 940e 1728 	CALL SUBOPT_0x57
                +
000ca3 e0e0     +LDI R30 , LOW ( 0x42C80000 )
000ca4 e0f0     +LDI R31 , HIGH ( 0x42C80000 )
000ca5 ec68     +LDI R22 , BYTE3 ( 0x42C80000 )
000ca6 e472     +LDI R23 , BYTE4 ( 0x42C80000 )
                 	__GETD1N 0x42C80000
000ca7 940e 19a3 	CALL __CMPF12
000ca9 f009      	BREQ PC+2
000caa f410      	BRCC PC+3
000cab 940c 0caf 	JMP  _0x201FA
000cad 940e 1723 	CALL SUBOPT_0x56
                 ; 0001 0899       if(err<-100) err=-100;
                 _0x201FA:
000caf 940e 1728 	CALL SUBOPT_0x57
                +
000cb1 e0e0     +LDI R30 , LOW ( 0xC2C80000 )
000cb2 e0f0     +LDI R31 , HIGH ( 0xC2C80000 )
000cb3 ec68     +LDI R22 , BYTE3 ( 0xC2C80000 )
000cb4 ec72     +LDI R23 , BYTE4 ( 0xC2C80000 )
                 	__GETD1N 0xC2C80000
000cb5 940e 19a3 	CALL __CMPF12
000cb7 f410      	BRSH _0x201FB
000cb8 940e 1723 	CALL SUBOPT_0x56
                 ; 0001 089A       sumi=sumi+ err/35;
                 _0x201FB:
000cba 940e 1728 	CALL SUBOPT_0x57
                +
000cbc e0e0     +LDI R30 , LOW ( 0x420C0000 )
000cbd e0f0     +LDI R31 , HIGH ( 0x420C0000 )
000cbe e06c     +LDI R22 , BYTE3 ( 0x420C0000 )
000cbf e472     +LDI R23 , BYTE4 ( 0x420C0000 )
                 	__GETD1N 0x420C0000
000cc0 940e 172d 	CALL SUBOPT_0x58
000cc2 940e 1736 	CALL SUBOPT_0x59
                 ; 0001 089B       if(sumi>6) sumi=6;
                +
000cc4 89a8     +LDD R26 , Y + 16
000cc5 89b9     +LDD R27 , Y + 16 + 1
000cc6 898a     +LDD R24 , Y + 16 + 2
000cc7 899b     +LDD R25 , Y + 16 + 3
                 	__GETD2S 16
                +
000cc8 e0e0     +LDI R30 , LOW ( 0x40C00000 )
000cc9 e0f0     +LDI R31 , HIGH ( 0x40C00000 )
000cca ec60     +LDI R22 , BYTE3 ( 0x40C00000 )
000ccb e470     +LDI R23 , BYTE4 ( 0x40C00000 )
                 	__GETD1N 0x40C00000
000ccc 940e 19a3 	CALL __CMPF12
000cce f009      	BREQ PC+2
000ccf f410      	BRCC PC+3
000cd0 940c 0cd4 	JMP  _0x201FC
000cd2 940e 1736 	CALL SUBOPT_0x59
                 ; 0001 089C       if(sumi<-6) sumi=-6;
                 _0x201FC:
                +
000cd4 89a8     +LDD R26 , Y + 16
000cd5 89b9     +LDD R27 , Y + 16 + 1
000cd6 898a     +LDD R24 , Y + 16 + 2
000cd7 899b     +LDD R25 , Y + 16 + 3
                 	__GETD2S 16
                +
000cd8 e0e0     +LDI R30 , LOW ( 0xC0C00000 )
000cd9 e0f0     +LDI R31 , HIGH ( 0xC0C00000 )
000cda ec60     +LDI R22 , BYTE3 ( 0xC0C00000 )
000cdb ec70     +LDI R23 , BYTE4 ( 0xC0C00000 )
                 	__GETD1N 0xC0C00000
000cdc 940e 19a3 	CALL __CMPF12
000cde f410      	BRSH _0x201FD
000cdf 940e 1736 	CALL SUBOPT_0x59
                 ; 0001 089D       udk = err/7 + sumi+(err-lasterr)/30;
                 _0x201FD:
000ce1 940e 1728 	CALL SUBOPT_0x57
                +
000ce3 e0e0     +LDI R30 , LOW ( 0x40E00000 )
000ce4 e0f0     +LDI R31 , HIGH ( 0x40E00000 )
000ce5 ee60     +LDI R22 , BYTE3 ( 0x40E00000 )
000ce6 e470     +LDI R23 , BYTE4 ( 0x40E00000 )
                 	__GETD1N 0x40E00000
000ce7 940e 172d 	CALL SUBOPT_0x58
000ce9 937f      	PUSH R23
000cea 936f      	PUSH R22
000ceb 93ff      	PUSH R31
000cec 93ef      	PUSH R30
000ced 940e 173b 	CALL SUBOPT_0x5A
                +
000cef 85ec     +LDD R30 , Y + 12
000cf0 85fd     +LDD R31 , Y + 12 + 1
000cf1 856e     +LDD R22 , Y + 12 + 2
000cf2 857f     +LDD R23 , Y + 12 + 3
                 	__GETD1S 12
000cf3 940e 18b9 	CALL __SUBF12
000cf5 01df      	MOVW R26,R30
000cf6 01cb      	MOVW R24,R22
                +
000cf7 e0e0     +LDI R30 , LOW ( 0x41F00000 )
000cf8 e0f0     +LDI R31 , HIGH ( 0x41F00000 )
000cf9 ef60     +LDI R22 , BYTE3 ( 0x41F00000 )
000cfa e471     +LDI R23 , BYTE4 ( 0x41F00000 )
                 	__GETD1N 0x41F00000
000cfb 940e 195e 	CALL __DIVF21
000cfd 91af      	POP  R26
000cfe 91bf      	POP  R27
000cff 918f      	POP  R24
000d00 919f      	POP  R25
000d01 940e 18c0 	CALL __ADDF12
000d03 940e 1740 	CALL SUBOPT_0x5B
                 ; 0001 089E       if(udk>10) {udk=9;sumi=0;}
000d05 940e 1745 	CALL SUBOPT_0x5C
000d07 940e 174a 	CALL SUBOPT_0x5D
000d09 940e 19a3 	CALL __CMPF12
000d0b f009      	BREQ PC+2
000d0c f410      	BRCC PC+3
000d0d 940c 0d15 	JMP  _0x201FE
                +
000d0f e0e0     +LDI R30 , LOW ( 0x41100000 )
000d10 e0f0     +LDI R31 , HIGH ( 0x41100000 )
000d11 e160     +LDI R22 , BYTE3 ( 0x41100000 )
000d12 e471     +LDI R23 , BYTE4 ( 0x41100000 )
                 	__GETD1N 0x41100000
000d13 940e 174f 	CALL SUBOPT_0x5E
                 ; 0001 089F       if(udk<-10){ udk=-9;sumi=0;}
                 _0x201FE:
000d15 940e 1745 	CALL SUBOPT_0x5C
                +
000d17 e0e0     +LDI R30 , LOW ( 0xC1200000 )
000d18 e0f0     +LDI R31 , HIGH ( 0xC1200000 )
000d19 e260     +LDI R22 , BYTE3 ( 0xC1200000 )
000d1a ec71     +LDI R23 , BYTE4 ( 0xC1200000 )
                 	__GETD1N 0xC1200000
000d1b 940e 19a3 	CALL __CMPF12
000d1d f430      	BRSH _0x201FF
                +
000d1e e0e0     +LDI R30 , LOW ( 0xC1100000 )
000d1f e0f0     +LDI R31 , HIGH ( 0xC1100000 )
000d20 e160     +LDI R22 , BYTE3 ( 0xC1100000 )
000d21 ec71     +LDI R23 , BYTE4 ( 0xC1100000 )
                 	__GETD1N 0xC1100000
000d22 940e 174f 	CALL SUBOPT_0x5E
                 ; 0001 08A0       //hc(5,10);wn16s(udk);
                 ; 0001 08A1       vMLtoi(10+udk); vMRtoi(10-udk) ;
                 _0x201FF:
                +
000d24 89ec     +LDD R30 , Y + 20
000d25 89fd     +LDD R31 , Y + 20 + 1
000d26 896e     +LDD R22 , Y + 20 + 2
000d27 897f     +LDD R23 , Y + 20 + 3
                 	__GETD1S 20
                +
000d28 e0a0     +LDI R26 , LOW ( 0x41200000 )
000d29 e0b0     +LDI R27 , HIGH ( 0x41200000 )
000d2a e280     +LDI R24 , BYTE3 ( 0x41200000 )
000d2b e491     +LDI R25 , BYTE4 ( 0x41200000 )
                 	__GETD2N 0x41200000
000d2c 940e 18c0 	CALL __ADDF12
000d2e 940e 184d 	CALL __CFD1U
000d30 93ea      	ST   -Y,R30
000d31 d98c      	RCALL _vMLtoi
000d32 940e 1745 	CALL SUBOPT_0x5C
000d34 940e 174a 	CALL SUBOPT_0x5D
000d36 940e 18b9 	CALL __SUBF12
000d38 940e 184d 	CALL __CFD1U
000d3a 93ea      	ST   -Y,R30
000d3b d99a      	RCALL _vMRtoi
                 ; 0001 08A2 
                 ; 0001 08A3       lastvalueline=valueline;
                +
000d3c a9ed     +LDD R30 , Y + 53
000d3d a9fe     +LDD R31 , Y + 53 + 1
000d3e a96f     +LDD R22 , Y + 53 + 2
000d3f ad78     +LDD R23 , Y + 53 + 3
                 	__GETD1S 53
                +
000d40 afe9     +STD Y + 57 , R30
000d41 affa     +STD Y + 57 + 1 , R31
000d42 af6b     +STD Y + 57 + 2 , R22
000d43 af7c     +STD Y + 57 + 3 , R23
                 	__PUTD1S 57
                 ; 0001 08A4       lasterr=err;
                +
000d44 85ec     +LDD R30 , Y + 12
000d45 85fd     +LDD R31 , Y + 12 + 1
000d46 856e     +LDD R22 , Y + 12 + 2
000d47 857f     +LDD R23 , Y + 12 + 3
                 	__GETD1S 12
                +
000d48 87e8     +STD Y + 8 , R30
000d49 87f9     +STD Y + 8 + 1 , R31
000d4a 876a     +STD Y + 8 + 2 , R22
000d4b 877b     +STD Y + 8 + 3 , R23
                 	__PUTD1S 8
                 ; 0001 08A5    }
000d4c ceb1      	RJMP _0x201EF
                 ; 0001 08A6 
                 ; 0001 08A7    while(keyKT!=0)
                 _0x20200:
000d4d 9b98      	SBIS 0x13,0
000d4e c0e0      	RJMP _0x20202
                 ; 0001 08A8    {
                 ; 0001 08A9        //doc gia tri cam bien
                 ; 0001 08AA         readline();
000d4f 940e 1711 	CALL SUBOPT_0x54
                 ; 0001 08AB         admin = IRLINE[0];imin=0;
                 ; 0001 08AC         for(i=1;i<5;i++){if(admin>IRLINE[i]){admin=IRLINE[i];imin=i;}}
                 _0x20204:
                +
000d51 3005     +CPI R16 , LOW ( 5 )
000d52 e0e0     +LDI R30 , HIGH ( 5 )
000d53 071e     +CPC R17 , R30
                 	__CPWRN 16,17,5
000d54 f48c      	BRGE _0x20205
000d55 940e 16c5 	CALL SUBOPT_0x45
000d57 940e 16d0 	CALL SUBOPT_0x47
000d59 940e 171e 	CALL SUBOPT_0x55
000d5b f438      	BRSH _0x20206
000d5c 940e 16c5 	CALL SUBOPT_0x45
000d5e 940e 16d0 	CALL SUBOPT_0x47
000d60 a3eb      	STD  Y+35,R30
000d61 a3fc      	STD  Y+35+1,R31
000d62 01a8      	MOVW R20,R16
                 _0x20206:
                +
000d63 5f0f     +SUBI R16 , LOW ( - 1 )
000d64 4f1f     +SBCI R17 , HIGH ( - 1 )
                 	__ADDWRN 16,17,1
000d65 cfeb      	RJMP _0x20204
                 _0x20205:
                 ; 0001 08AD         hc(2,10);wn16s(iminlast);
000d66 940e 1689 	CALL SUBOPT_0x3A
000d68 940e 16a9 	CALL SUBOPT_0x40
000d6a 81ee      	LDD  R30,Y+6
000d6b 81ff      	LDD  R31,Y+6+1
000d6c 940e 1675 	CALL SUBOPT_0x36
                 ; 0001 08AE         hc(3,10);wn16s(imin);
000d6e 940e 1679 	CALL SUBOPT_0x37
000d70 940e 16a9 	CALL SUBOPT_0x40
000d72 935a      	ST   -Y,R21
000d73 934a      	ST   -Y,R20
000d74 940e 05d8 	CALL _wn16s
                 ; 0001 08AF         hc(4,10);wn16s(admin);
000d76 940e 170c 	CALL SUBOPT_0x53
000d78 a1eb      	LDD  R30,Y+35
000d79 a1fc      	LDD  R31,Y+35+1
000d7a 940e 1675 	CALL SUBOPT_0x36
                 ; 0001 08B0 
                 ; 0001 08B1         if((imin-iminlast > 1)||(imin-iminlast <-1))  //tranh truong hop nhay bo trang thai
000d7c 81ae      	LDD  R26,Y+6
000d7d 81bf      	LDD  R27,Y+6+1
000d7e 01fa      	MOVW R30,R20
000d7f 1bea      	SUB  R30,R26
000d80 0bfb      	SBC  R31,R27
000d81 01df      	MOVW R26,R30
000d82 9732      	SBIW R30,2
000d83 f42c      	BRGE _0x20208
000d84 01fd      	MOVW R30,R26
000d85 3fef      	CPI  R30,LOW(0xFFFF)
000d86 efaf      	LDI  R26,HIGH(0xFFFF)
000d87 07fa      	CPC  R31,R26
000d88 f40c      	BRGE _0x20207
                 _0x20208:
                 ; 0001 08B2         {
                 ; 0001 08B3         }
                 ; 0001 08B4         else
000d89 c038      	RJMP _0x2020A
                 _0x20207:
                 ; 0001 08B5         {
                 ; 0001 08B6              switch(imin)
000d8a 01fa      	MOVW R30,R20
                 ; 0001 08B7             {
                 ; 0001 08B8               case 0:
000d8b 9730      	SBIW R30,0
000d8c f449      	BRNE _0x2020E
                 ; 0001 08B9                   vMLtoi(1); vMRtoi(15) ;
000d8d 940e 16ee 	CALL SUBOPT_0x4C
000d8f 940e 16f6 	CALL SUBOPT_0x4E
                 ; 0001 08BA                   //flagblindT = 0;
                 ; 0001 08BB                   flagblindP = 1;
000d91 e0e1      	LDI  R30,LOW(1)
000d92 e0f0      	LDI  R31,HIGH(1)
000d93 8fe8      	STD  Y+24,R30
000d94 8ff9      	STD  Y+24+1,R31
                 ; 0001 08BC                 break;
000d95 c02a      	RJMP _0x2020D
                 ; 0001 08BD               case 1:
                 _0x2020E:
000d96 30e1      	CPI  R30,LOW(0x1)
000d97 e0a0      	LDI  R26,HIGH(0x1)
000d98 07fa      	CPC  R31,R26
000d99 f439      	BRNE _0x2020F
                 ; 0001 08BE                   vMLtoi(2); vMRtoi(8) ;
000d9a e0e2      	LDI  R30,LOW(2)
000d9b 93ea      	ST   -Y,R30
000d9c d921      	RCALL _vMLtoi
000d9d e0e8      	LDI  R30,LOW(8)
000d9e 93ea      	ST   -Y,R30
000d9f d936      	RCALL _vMRtoi
                 ; 0001 08BF                 break;
000da0 c01f      	RJMP _0x2020D
                 ; 0001 08C0               case 2:
                 _0x2020F:
000da1 30e2      	CPI  R30,LOW(0x2)
000da2 e0a0      	LDI  R26,HIGH(0x2)
000da3 07fa      	CPC  R31,R26
000da4 f439      	BRNE _0x20210
                 ; 0001 08C1                   vMLtoi(10);vMRtoi(10) ;
000da5 e0ea      	LDI  R30,LOW(10)
000da6 93ea      	ST   -Y,R30
000da7 d916      	RCALL _vMLtoi
000da8 e0ea      	LDI  R30,LOW(10)
000da9 93ea      	ST   -Y,R30
000daa d92b      	RCALL _vMRtoi
                 ; 0001 08C2                 break;
000dab c014      	RJMP _0x2020D
                 ; 0001 08C3               case 3:
                 _0x20210:
000dac 30e3      	CPI  R30,LOW(0x3)
000dad e0a0      	LDI  R26,HIGH(0x3)
000dae 07fa      	CPC  R31,R26
000daf f421      	BRNE _0x20211
                 ; 0001 08C4                  vMLtoi(8); vMRtoi(2) ;
000db0 e0e8      	LDI  R30,LOW(8)
000db1 940e 1756 	CALL SUBOPT_0x5F
                 ; 0001 08C5                 break;
000db3 c00c      	RJMP _0x2020D
                 ; 0001 08C6               case 4:
                 _0x20211:
000db4 30e4      	CPI  R30,LOW(0x4)
000db5 e0a0      	LDI  R26,HIGH(0x4)
000db6 07fa      	CPC  R31,R26
000db7 f441      	BRNE _0x20213
                 ; 0001 08C7                   vMLtoi(15);vMRtoi(1)  ;
000db8 940e 16fa 	CALL SUBOPT_0x4F
000dba 940e 16fe 	CALL SUBOPT_0x50
                 ; 0001 08C8                   flagblindT = 1;
000dbc e0e1      	LDI  R30,LOW(1)
000dbd e0f0      	LDI  R31,HIGH(1)
000dbe 8fea      	STD  Y+26,R30
000dbf 8ffb      	STD  Y+26+1,R31
                 ; 0001 08C9                   //flagblindP = 0;
                 ; 0001 08CA                 break;
                 ; 0001 08CB               default:
                 _0x20213:
                 ; 0001 08CC                  // vMLtoi(5); vMRtoi(5) ;
                 ; 0001 08CD                 break;
                 ; 0001 08CE             }
                 _0x2020D:
                 ; 0001 08CF 
                 ; 0001 08D0               iminlast=imin;
                +
000dc0 834e     +STD Y + 6 , R20
000dc1 835f     +STD Y + 6 + 1 , R21
                 	__PUTWSR 20,21,6
                 ; 0001 08D1          }
                 _0x2020A:
                 ; 0001 08D2 
                 ; 0001 08D3 
                 ; 0001 08D4             while(flagblindT == 1 && keyKT!=0) //lac duong ben trai
                 _0x20214:
000dc2 8daa      	LDD  R26,Y+26
000dc3 8dbb      	LDD  R27,Y+26+1
000dc4 9711      	SBIW R26,1
000dc5 f419      	BRNE _0x20217
000dc6 940e 1707 	CALL SUBOPT_0x52
000dc8 f409      	BRNE _0x20218
                 _0x20217:
000dc9 c026      	RJMP _0x20216
                 _0x20218:
                 ; 0001 08D5             {
                 ; 0001 08D6                vMLtoi(20);vMRtoi(2)  ;
000dca e1e4      	LDI  R30,LOW(20)
000dcb 940e 1756 	CALL SUBOPT_0x5F
                 ; 0001 08D7                readline();
000dcd 940e 1711 	CALL SUBOPT_0x54
                 ; 0001 08D8                admin = IRLINE[0];imin=0;
                 ; 0001 08D9                for(i=1;i<5;i++){if(admin>IRLINE[i]){admin=IRLINE[i];imin=i;}}
                 _0x2021A:
                +
000dcf 3005     +CPI R16 , LOW ( 5 )
000dd0 e0e0     +LDI R30 , HIGH ( 5 )
000dd1 071e     +CPC R17 , R30
                 	__CPWRN 16,17,5
000dd2 f48c      	BRGE _0x2021B
000dd3 940e 16c5 	CALL SUBOPT_0x45
000dd5 940e 16d0 	CALL SUBOPT_0x47
000dd7 940e 171e 	CALL SUBOPT_0x55
000dd9 f438      	BRSH _0x2021C
000dda 940e 16c5 	CALL SUBOPT_0x45
000ddc 940e 16d0 	CALL SUBOPT_0x47
000dde a3eb      	STD  Y+35,R30
000ddf a3fc      	STD  Y+35+1,R31
000de0 01a8      	MOVW R20,R16
                 _0x2021C:
                +
000de1 5f0f     +SUBI R16 , LOW ( - 1 )
000de2 4f1f     +SBCI R17 , HIGH ( - 1 )
                 	__ADDWRN 16,17,1
000de3 cfeb      	RJMP _0x2021A
                 _0x2021B:
                 ; 0001 08DA                iminlast=imin;
                +
000de4 834e     +STD Y + 6 , R20
000de5 835f     +STD Y + 6 + 1 , R21
                 	__PUTWSR 20,21,6
                 ; 0001 08DB                if(IRLINE[2]<310)  flagblindT=0;
000de6 940e 16cb 	CALL SUBOPT_0x46
000de8 33a6      	CPI  R26,LOW(0x136)
000de9 e0e1      	LDI  R30,HIGH(0x136)
000dea 07be      	CPC  R27,R30
000deb f418      	BRSH _0x2021D
000dec e0e0      	LDI  R30,LOW(0)
000ded 8fea      	STD  Y+26,R30
000dee 8feb      	STD  Y+26+1,R30
                 ; 0001 08DC 
                 ; 0001 08DD             }
                 _0x2021D:
000def cfd2      	RJMP _0x20214
                 _0x20216:
                 ; 0001 08DE             while(flagblindP ==1 && keyKT!=0) //lac duong ben phai
                 _0x2021E:
000df0 8da8      	LDD  R26,Y+24
000df1 8db9      	LDD  R27,Y+24+1
000df2 9711      	SBIW R26,1
000df3 f419      	BRNE _0x20221
000df4 940e 1707 	CALL SUBOPT_0x52
000df6 f409      	BRNE _0x20222
                 _0x20221:
000df7 c028      	RJMP _0x20220
                 _0x20222:
                 ; 0001 08DF             {
                 ; 0001 08E0                vMLtoi(2);vMRtoi(20)  ;
000df8 e0e2      	LDI  R30,LOW(2)
000df9 93ea      	ST   -Y,R30
000dfa d8c3      	RCALL _vMLtoi
000dfb 940e 16f2 	CALL SUBOPT_0x4D
                 ; 0001 08E1                readline();
000dfd 940e 1711 	CALL SUBOPT_0x54
                 ; 0001 08E2                admin = IRLINE[0];imin=0;
                 ; 0001 08E3                for(i=1;i<5;i++){if(admin>IRLINE[i]){admin=IRLINE[i];imin=i;}}
                 _0x20224:
                +
000dff 3005     +CPI R16 , LOW ( 5 )
000e00 e0e0     +LDI R30 , HIGH ( 5 )
000e01 071e     +CPC R17 , R30
                 	__CPWRN 16,17,5
000e02 f48c      	BRGE _0x20225
000e03 940e 16c5 	CALL SUBOPT_0x45
000e05 940e 16d0 	CALL SUBOPT_0x47
000e07 940e 171e 	CALL SUBOPT_0x55
000e09 f438      	BRSH _0x20226
000e0a 940e 16c5 	CALL SUBOPT_0x45
000e0c 940e 16d0 	CALL SUBOPT_0x47
000e0e a3eb      	STD  Y+35,R30
000e0f a3fc      	STD  Y+35+1,R31
000e10 01a8      	MOVW R20,R16
                 _0x20226:
                +
000e11 5f0f     +SUBI R16 , LOW ( - 1 )
000e12 4f1f     +SBCI R17 , HIGH ( - 1 )
                 	__ADDWRN 16,17,1
000e13 cfeb      	RJMP _0x20224
                 _0x20225:
                 ; 0001 08E4                iminlast=imin;
                +
000e14 834e     +STD Y + 6 , R20
000e15 835f     +STD Y + 6 + 1 , R21
                 	__PUTWSR 20,21,6
                 ; 0001 08E5                if(IRLINE[2]<310)  flagblindP=0;
000e16 940e 16cb 	CALL SUBOPT_0x46
000e18 33a6      	CPI  R26,LOW(0x136)
000e19 e0e1      	LDI  R30,HIGH(0x136)
000e1a 07be      	CPC  R27,R30
000e1b f418      	BRSH _0x20227
000e1c e0e0      	LDI  R30,LOW(0)
000e1d 8fe8      	STD  Y+24,R30
000e1e 8fe9      	STD  Y+24+1,R30
                 ; 0001 08E6 
                 ; 0001 08E7             }
                 _0x20227:
000e1f cfd0      	RJMP _0x2021E
                 _0x20220:
                 ; 0001 08E8 
                 ; 0001 08E9 
                 ; 0001 08EA        demled++;
000e20 8dec      	LDD  R30,Y+28
000e21 8dfd      	LDD  R31,Y+28+1
000e22 9631      	ADIW R30,1
000e23 8fec      	STD  Y+28,R30
000e24 8ffd      	STD  Y+28+1,R31
                 ; 0001 08EB        if(demled>30){demled=0;LEDLtoggle();LEDRtoggle(); }
000e25 8dac      	LDD  R26,Y+28
000e26 8dbd      	LDD  R27,Y+28+1
000e27 975f      	SBIW R26,31
000e28 f028      	BRLO _0x20228
000e29 e0e0      	LDI  R30,LOW(0)
000e2a 8fec      	STD  Y+28,R30
000e2b 8fed      	STD  Y+28+1,R30
000e2c 940e 16c1 	CALL SUBOPT_0x44
                 ; 0001 08EC    }
                 _0x20228:
000e2e cf1e      	RJMP _0x20200
                 _0x20202:
                 ; 0001 08ED }
000e2f 940e 1ad2 	CALL __LOADLOCR6
000e31 96ed      	ADIW R28,61
000e32 9508      	RET
                 
                 	.DSEG
                 _0x201DB:
00028a           	.BYTE 0x13
                 ;//========================================================
                 ;void bluetooth()
                 ; 0001 08F0 {  unsigned char kytu;
                 
                 	.CSEG
                 _bluetooth:
                 ; 0001 08F1    unsigned int demled;
                 ; 0001 08F2 
                 ; 0001 08F3         LcdClear();
000e33 940e 1acd 	CALL __SAVELOCR4
                 ;	kytu -> R17
                 ;	demled -> R18,R19
000e35 940e 175d 	CALL SUBOPT_0x60
                 ; 0001 08F4         hc(0,10);
000e37 940e 16a9 	CALL SUBOPT_0x40
                 ; 0001 08F5         ws ("BLUETOOTH");
                +
000e39 e9ed     +LDI R30 , LOW ( _0x20229 + ( 0 ) )
000e3a e0f2     +LDI R31 , HIGH ( _0x20229 + ( 0 ) )
                 	__POINTW1MN _0x20229,0
000e3b 940e 1566 	CALL SUBOPT_0x1E
                 ; 0001 08F6         hc(1,25);
000e3d 940e 1693 	CALL SUBOPT_0x3C
000e3f e1e9      	LDI  R30,LOW(25)
000e40 e0f0      	LDI  R31,HIGH(25)
000e41 940e 1760 	CALL SUBOPT_0x61
                 ; 0001 08F7         ws ("DRIVE");
                +
000e43 eae7     +LDI R30 , LOW ( _0x20229 + ( 10 ) )
000e44 e0f2     +LDI R31 , HIGH ( _0x20229 + ( 10 ) )
                 	__POINTW1MN _0x20229,10
000e45 940e 1566 	CALL SUBOPT_0x1E
                 ; 0001 08F8 
                 ; 0001 08F9         LEDL=1;LEDR=1;
000e47 9aac      	SBI  0x15,4
000e48 9aad      	SBI  0x15,5
                 ; 0001 08FA 
                 ; 0001 08FB    while(keyKT!=0)
                 _0x2022E:
000e49 9b98      	SBIS 0x13,0
000e4a c037      	RJMP _0x20230
                 ; 0001 08FC    {
                 ; 0001 08FD         LEDL=1; LEDR=1;
000e4b 940e 1764 	CALL SUBOPT_0x62
                 ; 0001 08FE         delay_ms(100);
                 ; 0001 08FF         LEDL=0; LEDR=0;
                 ; 0001 0900         delay_ms(100);
                 ; 0001 0901 
                 ; 0001 0902       if (rx_counter)
000e4d 91e0 0510 	LDS  R30,_rx_counter
000e4f 30e0      	CPI  R30,0
000e50 f181      	BREQ _0x20239
                 ; 0001 0903       {
                 ; 0001 0904        //LcdClear();
                 ; 0001 0905        hc(2,42);
000e51 940e 1689 	CALL SUBOPT_0x3A
000e53 940e 16b2 	CALL SUBOPT_0x42
                 ; 0001 0906        kytu = getchar();
000e55 940e 062f 	CALL _getchar
000e57 2f1e      	MOV  R17,R30
                 ; 0001 0907        LcdCharacter(kytu);
000e58 931a      	ST   -Y,R17
000e59 940e 0544 	CALL _LcdCharacter
                 ; 0001 0908        //putchar(getchar());
                 ; 0001 0909        if(kytu=='S'){vMLtoi(0);vMRtoi(0);}
000e5b 3513      	CPI  R17,83
000e5c f419      	BRNE _0x2023A
000e5d e0e0      	LDI  R30,LOW(0)
000e5e 940e 1774 	CALL SUBOPT_0x63
                 ; 0001 090A        if(kytu=='F'){vMLtoi(100);vMRtoi(100);}
                 _0x2023A:
000e60 3416      	CPI  R17,70
000e61 f419      	BRNE _0x2023B
000e62 e6e4      	LDI  R30,LOW(100)
000e63 940e 177b 	CALL SUBOPT_0x64
                 ; 0001 090B        if(kytu=='B'){vMLlui(100);vMRlui(100);}
                 _0x2023B:
000e65 3412      	CPI  R17,66
000e66 f431      	BRNE _0x2023C
000e67 e6e4      	LDI  R30,LOW(100)
000e68 93ea      	ST   -Y,R30
000e69 d85a      	RCALL _vMLlui
000e6a e6e4      	LDI  R30,LOW(100)
000e6b 93ea      	ST   -Y,R30
000e6c d86d      	RCALL _vMRlui
                 ; 0001 090C        if(kytu=='R'){vMLtoi(100);vMRtoi(0);}
                 _0x2023C:
000e6d 3512      	CPI  R17,82
000e6e f419      	BRNE _0x2023D
000e6f e6e4      	LDI  R30,LOW(100)
000e70 940e 1774 	CALL SUBOPT_0x63
                 ; 0001 090D        if(kytu=='L'){vMLtoi(0);vMRtoi(100);}
                 _0x2023D:
000e72 341c      	CPI  R17,76
000e73 f419      	BRNE _0x2023E
000e74 e0e0      	LDI  R30,LOW(0)
000e75 940e 177b 	CALL SUBOPT_0x64
                 ; 0001 090E 
                 ; 0001 090F        demled++;
                 _0x2023E:
                +
000e77 5f2f     +SUBI R18 , LOW ( - 1 )
000e78 4f3f     +SBCI R19 , HIGH ( - 1 )
                 	__ADDWRN 18,19,1
                 ; 0001 0910        if(demled>1000){demled=0;LEDLtoggle(); LEDRtoggle();}
                +
000e79 3e29     +CPI R18 , LOW ( 1001 )
000e7a e0e3     +LDI R30 , HIGH ( 1001 )
000e7b 073e     +CPC R19 , R30
                 	__CPWRN 18,19,1001
000e7c f020      	BRLO _0x2023F
                +
000e7d e020     +LDI R18 , LOW ( 0 )
000e7e e030     +LDI R19 , HIGH ( 0 )
                 	__GETWRN 18,19,0
000e7f 940e 16c1 	CALL SUBOPT_0x44
                 ; 0001 0911       }
                 _0x2023F:
                 ; 0001 0912     }
                 _0x20239:
000e81 cfc7      	RJMP _0x2022E
                 _0x20230:
                 ; 0001 0913 }
                 _0x20C0006:
000e82 940e 1ad4 	CALL __LOADLOCR4
000e84 9624      	ADIW R28,4
000e85 9508      	RET
                 
                 	.DSEG
                 _0x20229:
00029d           	.BYTE 0x10
                 ;//========================================================
                 ;
                 ;//Chuong trinh test robot
                 ;   void testmotor()
                 ; 0001 0918    {
                 
                 	.CSEG
                 _testmotor:
                 ; 0001 0919         LcdClear();
000e86 940e 175d 	CALL SUBOPT_0x60
                 ; 0001 091A         hc(0,10);
000e88 940e 16a9 	CALL SUBOPT_0x40
                 ; 0001 091B         ws ("TEST MOTOR");
                +
000e8a eaed     +LDI R30 , LOW ( _0x20240 + ( 0 ) )
000e8b e0f2     +LDI R31 , HIGH ( _0x20240 + ( 0 ) )
                 	__POINTW1MN _0x20240,0
000e8c 940e 1566 	CALL SUBOPT_0x1E
                 ; 0001 091C 
                 ; 0001 091D         vMRtoi(20);
000e8e 940e 16f2 	CALL SUBOPT_0x4D
                 ; 0001 091E         vMLtoi(20);
000e90 e1e4      	LDI  R30,LOW(20)
000e91 93ea      	ST   -Y,R30
000e92 d82b      	RCALL _vMLtoi
                 ; 0001 091F       while(keyKT!=0)
                 _0x20241:
000e93 9b98      	SBIS 0x13,0
000e94 c025      	RJMP _0x20243
                 ; 0001 0920       {
                 ; 0001 0921         hc(2,0);
000e95 940e 1782 	CALL SUBOPT_0x65
                 ; 0001 0922         ws ("MotorL");
                +
000e97 ebe8     +LDI R30 , LOW ( _0x20240 + ( 11 ) )
000e98 e0f2     +LDI R31 , HIGH ( _0x20240 + ( 11 ) )
                 	__POINTW1MN _0x20240,11
000e99 940e 1566 	CALL SUBOPT_0x1E
                 ; 0001 0923         hc(2,45);
000e9b 940e 1689 	CALL SUBOPT_0x3A
000e9d e2ed      	LDI  R30,LOW(45)
000e9e e0f0      	LDI  R31,HIGH(45)
000e9f 940e 1760 	CALL SUBOPT_0x61
                 ; 0001 0924         wn16(QEL);
000ea1 940e 163b 	CALL SUBOPT_0x2E
000ea3 940e 1562 	CALL SUBOPT_0x1D
                 ; 0001 0925         hc(3,0);
000ea5 e0e3      	LDI  R30,LOW(3)
000ea6 e0f0      	LDI  R31,HIGH(3)
000ea7 940e 1528 	CALL SUBOPT_0x17
                 ; 0001 0926         ws ("MotorR");
                +
000ea9 ebef     +LDI R30 , LOW ( _0x20240 + ( 18 ) )
000eaa e0f2     +LDI R31 , HIGH ( _0x20240 + ( 18 ) )
                 	__POINTW1MN _0x20240,18
000eab 940e 1566 	CALL SUBOPT_0x1E
                 ; 0001 0927         hc(3,45);
000ead 940e 1679 	CALL SUBOPT_0x37
000eaf e2ed      	LDI  R30,LOW(45)
000eb0 e0f0      	LDI  R31,HIGH(45)
000eb1 940e 1760 	CALL SUBOPT_0x61
                 ; 0001 0928         wn16(QER);
000eb3 940e 1636 	CALL SUBOPT_0x2D
000eb5 940e 1562 	CALL SUBOPT_0x1D
                 ; 0001 0929         delay_ms(10);
000eb7 940e 1785 	CALL SUBOPT_0x66
                 ; 0001 092A       }
000eb9 cfd9      	RJMP _0x20241
                 _0x20243:
                 ; 0001 092B 
                 ; 0001 092C        vMRstop();
000eba d82a      	RCALL _vMRstop
                 ; 0001 092D        vMLstop();
000ebb 940e 06ca 	CALL _vMLstop
                 ; 0001 092E    }
000ebd 9508      	RET
                 
                 	.DSEG
                 _0x20240:
0002ad           	.BYTE 0x19
                 ; //========================================================
                 ; // UART TEST
                 ;   void testuart()
                 ; 0001 0932    {
                 
                 	.CSEG
                 _testuart:
                 ; 0001 0933           if (rx_counter)
000ebe 91e0 0510 	LDS  R30,_rx_counter
000ec0 30e0      	CPI  R30,0
000ec1 f069      	BREQ _0x20244
                 ; 0001 0934           {
                 ; 0001 0935           LcdClear();
000ec2 940e 175d 	CALL SUBOPT_0x60
                 ; 0001 0936            hc(0,10);
000ec4 940e 16a9 	CALL SUBOPT_0x40
                 ; 0001 0937            ws ("TEST UART");
                +
000ec6 ece6     +LDI R30 , LOW ( _0x20245 + ( 0 ) )
000ec7 e0f2     +LDI R31 , HIGH ( _0x20245 + ( 0 ) )
                 	__POINTW1MN _0x20245,0
000ec8 940e 1566 	CALL SUBOPT_0x1E
                 ; 0001 0938            putchar(getchar());
000eca 940e 062f 	CALL _getchar
000ecc 93ea      	ST   -Y,R30
000ecd 940e 066f 	CALL _putchar
                 ; 0001 0939           }
                 ; 0001 093A 
                 ; 0001 093B    }
                 _0x20244:
000ecf 9508      	RET
                 
                 	.DSEG
                 _0x20245:
0002c6           	.BYTE 0xA
                 ;   //========================================================
                 ; // UART TEST
                 ;   void testrf()
                 ; 0001 093F    {
                 
                 	.CSEG
                 _testrf:
                 ; 0001 0940 
                 ; 0001 0941 
                 ; 0001 0942    }
000ed0 9508      	RET
                 ;
                 ;//========================================================
                 ;   void testir()
                 ; 0001 0946    {    unsigned int AD[8];
                 _testir:
                 ; 0001 0947 
                 ; 0001 0948         DDRA    = 0x00;
000ed1 9760      	SBIW R28,16
                 ;	AD -> Y+0
000ed2 e0e0      	LDI  R30,LOW(0)
000ed3 bbea      	OUT  0x1A,R30
                 ; 0001 0949         PORTA   = 0x00;
000ed4 bbeb      	OUT  0x1B,R30
                 ; 0001 094A 
                 ; 0001 094B         clear();
000ed5 940e 057b 	CALL _clear
                 ; 0001 094C         hc(0,10);
000ed7 940e 1698 	CALL SUBOPT_0x3D
000ed9 940e 16a9 	CALL SUBOPT_0x40
                 ; 0001 094D         ws ("TEST IR");
                +
000edb ede0     +LDI R30 , LOW ( _0x20246 + ( 0 ) )
000edc e0f2     +LDI R31 , HIGH ( _0x20246 + ( 0 ) )
                 	__POINTW1MN _0x20246,0
000edd 940e 1566 	CALL SUBOPT_0x1E
                 ; 0001 094E 
                 ; 0001 094F         while(keyKT!=0)
                 _0x20247:
000edf 9b98      	SBIS 0x13,0
000ee0 c091      	RJMP _0x20249
                 ; 0001 0950         {
                 ; 0001 0951 
                 ; 0001 0952         AD[0]=read_adc(0);
000ee1 e0e0      	LDI  R30,LOW(0)
000ee2 93ea      	ST   -Y,R30
000ee3 940e 05f8 	CALL _read_adc
000ee5 83e8      	ST   Y,R30
000ee6 83f9      	STD  Y+1,R31
                 ; 0001 0953         AD[1]=read_adc(1);
000ee7 e0e1      	LDI  R30,LOW(1)
000ee8 93ea      	ST   -Y,R30
000ee9 940e 05f8 	CALL _read_adc
000eeb 83ea      	STD  Y+2,R30
000eec 83fb      	STD  Y+2+1,R31
                 ; 0001 0954         AD[2]=read_adc(2);
000eed e0e2      	LDI  R30,LOW(2)
000eee 93ea      	ST   -Y,R30
000eef 940e 05f8 	CALL _read_adc
000ef1 83ec      	STD  Y+4,R30
000ef2 83fd      	STD  Y+4+1,R31
                 ; 0001 0955         AD[3]=read_adc(3);
000ef3 e0e3      	LDI  R30,LOW(3)
000ef4 93ea      	ST   -Y,R30
000ef5 940e 05f8 	CALL _read_adc
000ef7 83ee      	STD  Y+6,R30
000ef8 83ff      	STD  Y+6+1,R31
                 ; 0001 0956         AD[4]=read_adc(4);
000ef9 e0e4      	LDI  R30,LOW(4)
000efa 93ea      	ST   -Y,R30
000efb 940e 05f8 	CALL _read_adc
000efd 87e8      	STD  Y+8,R30
000efe 87f9      	STD  Y+8+1,R31
                 ; 0001 0957         AD[5]=read_adc(5);
000eff e0e5      	LDI  R30,LOW(5)
000f00 93ea      	ST   -Y,R30
000f01 940e 05f8 	CALL _read_adc
000f03 87ea      	STD  Y+10,R30
000f04 87fb      	STD  Y+10+1,R31
                 ; 0001 0958         AD[6]=read_adc(6);
000f05 e0e6      	LDI  R30,LOW(6)
000f06 93ea      	ST   -Y,R30
000f07 940e 05f8 	CALL _read_adc
000f09 87ec      	STD  Y+12,R30
000f0a 87fd      	STD  Y+12+1,R31
                 ; 0001 0959         AD[7]=read_adc(7);
000f0b e0e7      	LDI  R30,LOW(7)
000f0c 93ea      	ST   -Y,R30
000f0d 940e 05f8 	CALL _read_adc
000f0f 87ee      	STD  Y+14,R30
000f10 87ff      	STD  Y+14+1,R31
                 ; 0001 095A 
                 ; 0001 095B         hc(1,0) ;ws("0.");wn164(AD[0]);
000f11 940e 16af 	CALL SUBOPT_0x41
                +
000f13 ede8     +LDI R30 , LOW ( _0x20246 + ( 8 ) )
000f14 e0f2     +LDI R31 , HIGH ( _0x20246 + ( 8 ) )
                 	__POINTW1MN _0x20246,8
000f15 940e 1566 	CALL SUBOPT_0x1E
000f17 81e8      	LD   R30,Y
000f18 81f9      	LDD  R31,Y+1
000f19 940e 178b 	CALL SUBOPT_0x67
                 ; 0001 095C         hc(1,43);ws("1.");wn164(AD[1]);
000f1b 940e 1693 	CALL SUBOPT_0x3C
000f1d 940e 178f 	CALL SUBOPT_0x68
                +
000f1f edeb     +LDI R30 , LOW ( _0x20246 + ( 11 ) )
000f20 e0f2     +LDI R31 , HIGH ( _0x20246 + ( 11 ) )
                 	__POINTW1MN _0x20246,11
000f21 940e 1566 	CALL SUBOPT_0x1E
000f23 81ea      	LDD  R30,Y+2
000f24 81fb      	LDD  R31,Y+2+1
000f25 940e 178b 	CALL SUBOPT_0x67
                 ; 0001 095D         hc(2,0) ;ws("2.");wn164(AD[2]);
000f27 940e 1782 	CALL SUBOPT_0x65
                +
000f29 edee     +LDI R30 , LOW ( _0x20246 + ( 14 ) )
000f2a e0f2     +LDI R31 , HIGH ( _0x20246 + ( 14 ) )
                 	__POINTW1MN _0x20246,14
000f2b 940e 1566 	CALL SUBOPT_0x1E
000f2d 81ec      	LDD  R30,Y+4
000f2e 81fd      	LDD  R31,Y+4+1
000f2f 940e 178b 	CALL SUBOPT_0x67
                 ; 0001 095E         hc(2,43);ws("3.");wn164(AD[3]);
000f31 940e 1689 	CALL SUBOPT_0x3A
000f33 940e 178f 	CALL SUBOPT_0x68
                +
000f35 eee1     +LDI R30 , LOW ( _0x20246 + ( 17 ) )
000f36 e0f2     +LDI R31 , HIGH ( _0x20246 + ( 17 ) )
                 	__POINTW1MN _0x20246,17
000f37 940e 1566 	CALL SUBOPT_0x1E
000f39 81ee      	LDD  R30,Y+6
000f3a 81ff      	LDD  R31,Y+6+1
000f3b 940e 178b 	CALL SUBOPT_0x67
                 ; 0001 095F         hc(3,0) ;ws("4.");wn164(AD[4]);
000f3d e0e3      	LDI  R30,LOW(3)
000f3e e0f0      	LDI  R31,HIGH(3)
000f3f 940e 1528 	CALL SUBOPT_0x17
                +
000f41 eee4     +LDI R30 , LOW ( _0x20246 + ( 20 ) )
000f42 e0f2     +LDI R31 , HIGH ( _0x20246 + ( 20 ) )
                 	__POINTW1MN _0x20246,20
000f43 940e 1566 	CALL SUBOPT_0x1E
000f45 85e8      	LDD  R30,Y+8
000f46 85f9      	LDD  R31,Y+8+1
000f47 940e 178b 	CALL SUBOPT_0x67
                 ; 0001 0960         hc(3,43);ws("5.");wn164(AD[5]);
000f49 940e 1679 	CALL SUBOPT_0x37
000f4b 940e 178f 	CALL SUBOPT_0x68
                +
000f4d eee7     +LDI R30 , LOW ( _0x20246 + ( 23 ) )
000f4e e0f2     +LDI R31 , HIGH ( _0x20246 + ( 23 ) )
                 	__POINTW1MN _0x20246,23
000f4f 940e 1566 	CALL SUBOPT_0x1E
000f51 85ea      	LDD  R30,Y+10
000f52 85fb      	LDD  R31,Y+10+1
000f53 940e 178b 	CALL SUBOPT_0x67
                 ; 0001 0961         hc(4,0) ;ws("6.");wn164(AD[6]);
000f55 e0e4      	LDI  R30,LOW(4)
000f56 e0f0      	LDI  R31,HIGH(4)
000f57 940e 1528 	CALL SUBOPT_0x17
                +
000f59 eeea     +LDI R30 , LOW ( _0x20246 + ( 26 ) )
000f5a e0f2     +LDI R31 , HIGH ( _0x20246 + ( 26 ) )
                 	__POINTW1MN _0x20246,26
000f5b 940e 1566 	CALL SUBOPT_0x1E
000f5d 85ec      	LDD  R30,Y+12
000f5e 85fd      	LDD  R31,Y+12+1
000f5f 940e 178b 	CALL SUBOPT_0x67
                 ; 0001 0962         hc(4,43);ws("7.");wn164(AD[7]);
000f61 e0e4      	LDI  R30,LOW(4)
000f62 e0f0      	LDI  R31,HIGH(4)
000f63 93fa      	ST   -Y,R31
000f64 93ea      	ST   -Y,R30
000f65 940e 178f 	CALL SUBOPT_0x68
                +
000f67 eeed     +LDI R30 , LOW ( _0x20246 + ( 29 ) )
000f68 e0f2     +LDI R31 , HIGH ( _0x20246 + ( 29 ) )
                 	__POINTW1MN _0x20246,29
000f69 940e 1566 	CALL SUBOPT_0x1E
000f6b 85ee      	LDD  R30,Y+14
000f6c 85ff      	LDD  R31,Y+14+1
000f6d 940e 178b 	CALL SUBOPT_0x67
                 ; 0001 0963 
                 ; 0001 0964         delay_ms(1000);
000f6f 940e 1557 	CALL SUBOPT_0x1B
                 ; 0001 0965         }
000f71 cf6d      	RJMP _0x20247
                 _0x20249:
                 ; 0001 0966 
                 ; 0001 0967    }
000f72 9660      	ADIW R28,16
000f73 9508      	RET
                 
                 	.DSEG
                 _0x20246:
0002d0           	.BYTE 0x20
                 ;
                 ;//========================================================
                 ; void outlcd1()
                 ; 0001 096B  {
                 
                 	.CSEG
                 _outlcd1:
                 ; 0001 096C      LcdClear();
000f74 940e 175d 	CALL SUBOPT_0x60
                 ; 0001 096D      hc(0,5);
000f76 e0e5      	LDI  R30,LOW(5)
000f77 e0f0      	LDI  R31,HIGH(5)
000f78 940e 1760 	CALL SUBOPT_0x61
                 ; 0001 096E      ws("<SELF TEST>");
                +
000f7a efe0     +LDI R30 , LOW ( _0x2024A + ( 0 ) )
000f7b e0f2     +LDI R31 , HIGH ( _0x2024A + ( 0 ) )
                 	__POINTW1MN _0x2024A,0
000f7c 940e 1566 	CALL SUBOPT_0x1E
                 ; 0001 096F      hc(1,0);
000f7e 940e 16af 	CALL SUBOPT_0x41
                 ; 0001 0970      ws("************");
                +
000f80 efec     +LDI R30 , LOW ( _0x2024A + ( 12 ) )
000f81 e0f2     +LDI R31 , HIGH ( _0x2024A + ( 12 ) )
                 	__POINTW1MN _0x2024A,12
000f82 940e 1566 	CALL SUBOPT_0x1E
                 ; 0001 0971  }
000f84 9508      	RET
                 
                 	.DSEG
                 _0x2024A:
0002f0           	.BYTE 0x19
                 ;//========================================================
                 ;void chopledtheoid()
                 ; 0001 0974 {    unsigned char i;
                 
                 	.CSEG
                 _chopledtheoid:
                 ; 0001 0975         DDRA=0xFF;
000f85 931a      	ST   -Y,R17
                 ;	i -> R17
000f86 efef      	LDI  R30,LOW(255)
000f87 bbea      	OUT  0x1A,R30
                 ; 0001 0976 
                 ; 0001 0977          switch (id)
000f88 940e 1792 	CALL SUBOPT_0x69
                 ; 0001 0978             {
                 ; 0001 0979                 case 1:
000f8a f439      	BRNE _0x2024E
                 ; 0001 097A                     LEDR=1;
000f8b 9aad      	SBI  0x15,5
                 ; 0001 097B                     LEDL=1;PORTA.4=1;delay_ms(10);
000f8c 9aac      	SBI  0x15,4
000f8d 9adc      	SBI  0x1B,4
000f8e 940e 1785 	CALL SUBOPT_0x66
                 ; 0001 097C                     LEDL=0;PORTA.4=0;delay_ms(30);
000f90 98ac      	CBI  0x15,4
000f91 c05d      	RJMP _0x2031F
                 ; 0001 097D                 break;
                 ; 0001 097E                 case 2:
                 _0x2024E:
000f92 30e2      	CPI  R30,LOW(0x2)
000f93 e0a0      	LDI  R26,HIGH(0x2)
000f94 07fa      	CPC  R31,R26
000f95 f441      	BRNE _0x20259
                 ; 0001 097F                     LEDR=1;
000f96 9aad      	SBI  0x15,5
                 ; 0001 0980                     LEDL=1;PORTA.6=1;delay_ms(10);
000f97 9aac      	SBI  0x15,4
000f98 9ade      	SBI  0x1B,6
000f99 940e 1785 	CALL SUBOPT_0x66
                 ; 0001 0981                     LEDL=0;PORTA.6=0;delay_ms(30);
000f9b 98ac      	CBI  0x15,4
000f9c 98de      	CBI  0x1B,6
000f9d c052      	RJMP _0x20320
                 ; 0001 0982                 break;
                 ; 0001 0983                 case 3:
                 _0x20259:
000f9e 30e3      	CPI  R30,LOW(0x3)
000f9f e0a0      	LDI  R26,HIGH(0x3)
000fa0 07fa      	CPC  R31,R26
000fa1 f441      	BRNE _0x20264
                 ; 0001 0984                     LEDR=1;
000fa2 9aad      	SBI  0x15,5
                 ; 0001 0985                     LEDL=1;PORTA.7=1;delay_ms(10);
000fa3 9aac      	SBI  0x15,4
000fa4 9adf      	SBI  0x1B,7
000fa5 940e 1785 	CALL SUBOPT_0x66
                 ; 0001 0986                     LEDL=0;PORTA.7=0;delay_ms(30);
000fa7 98ac      	CBI  0x15,4
000fa8 98df      	CBI  0x1B,7
000fa9 c046      	RJMP _0x20320
                 ; 0001 0987                 break;
                 ; 0001 0988                 case 4:
                 _0x20264:
000faa 30e4      	CPI  R30,LOW(0x4)
000fab e0a0      	LDI  R26,HIGH(0x4)
000fac 07fa      	CPC  R31,R26
000fad f441      	BRNE _0x2026F
                 ; 0001 0989                     LEDR=1;
000fae 9aad      	SBI  0x15,5
                 ; 0001 098A                     LEDL=1;PORTA.5=1;delay_ms(10);
000faf 9aac      	SBI  0x15,4
000fb0 9add      	SBI  0x1B,5
000fb1 940e 1785 	CALL SUBOPT_0x66
                 ; 0001 098B                     LEDL=0;PORTA.5=0;delay_ms(30);
000fb3 98ac      	CBI  0x15,4
000fb4 98dd      	CBI  0x1B,5
000fb5 c03a      	RJMP _0x20320
                 ; 0001 098C                 break;
                 ; 0001 098D                 case 5:
                 _0x2026F:
000fb6 30e5      	CPI  R30,LOW(0x5)
000fb7 e0a0      	LDI  R26,HIGH(0x5)
000fb8 07fa      	CPC  R31,R26
000fb9 f431      	BRNE _0x2027A
                 ; 0001 098E                     LEDL=1;
000fba 9aac      	SBI  0x15,4
                 ; 0001 098F                     LEDR=1;PORTA.4=1;delay_ms(10);
000fbb 9aad      	SBI  0x15,5
000fbc 9adc      	SBI  0x1B,4
000fbd 940e 1785 	CALL SUBOPT_0x66
                 ; 0001 0990                     LEDR=0;PORTA.4=0;delay_ms(30);
000fbf c02e      	RJMP _0x20321
                 ; 0001 0991                 break;
                 ; 0001 0992                 case 6:
                 _0x2027A:
000fc0 30e6      	CPI  R30,LOW(0x6)
000fc1 e0a0      	LDI  R26,HIGH(0x6)
000fc2 07fa      	CPC  R31,R26
000fc3 f441      	BRNE _0x20285
                 ; 0001 0993                     LEDL=1;
000fc4 9aac      	SBI  0x15,4
                 ; 0001 0994                     LEDR=1;PORTA.6=1;delay_ms(10);
000fc5 9aad      	SBI  0x15,5
000fc6 9ade      	SBI  0x1B,6
000fc7 940e 1785 	CALL SUBOPT_0x66
                 ; 0001 0995                     LEDR=0;PORTA.6=0;delay_ms(30);
000fc9 98ad      	CBI  0x15,5
000fca 98de      	CBI  0x1B,6
000fcb c024      	RJMP _0x20320
                 ; 0001 0996                 break;
                 ; 0001 0997                 case 7:
                 _0x20285:
000fcc 30e7      	CPI  R30,LOW(0x7)
000fcd e0a0      	LDI  R26,HIGH(0x7)
000fce 07fa      	CPC  R31,R26
000fcf f441      	BRNE _0x20290
                 ; 0001 0998                     LEDL=1;
000fd0 9aac      	SBI  0x15,4
                 ; 0001 0999                     LEDR=1;PORTA.7=1;delay_ms(10);
000fd1 9aad      	SBI  0x15,5
000fd2 9adf      	SBI  0x1B,7
000fd3 940e 1785 	CALL SUBOPT_0x66
                 ; 0001 099A                     LEDR=0;PORTA.7=0;delay_ms(30);
000fd5 98ad      	CBI  0x15,5
000fd6 98df      	CBI  0x1B,7
000fd7 c018      	RJMP _0x20320
                 ; 0001 099B                 break;
                 ; 0001 099C                 case 8:
                 _0x20290:
000fd8 30e8      	CPI  R30,LOW(0x8)
000fd9 e0a0      	LDI  R26,HIGH(0x8)
000fda 07fa      	CPC  R31,R26
000fdb f441      	BRNE _0x2029B
                 ; 0001 099D                     LEDL=1;
000fdc 9aac      	SBI  0x15,4
                 ; 0001 099E                     LEDR=1;PORTA.5=1;delay_ms(10);
000fdd 9aad      	SBI  0x15,5
000fde 9add      	SBI  0x1B,5
000fdf 940e 1785 	CALL SUBOPT_0x66
                 ; 0001 099F                     LEDR=0;PORTA.5=0;delay_ms(30);
000fe1 98ad      	CBI  0x15,5
000fe2 98dd      	CBI  0x1B,5
000fe3 c00c      	RJMP _0x20320
                 ; 0001 09A0                 break;
                 ; 0001 09A1                 case 9:
                 _0x2029B:
000fe4 30e9      	CPI  R30,LOW(0x9)
000fe5 e0a0      	LDI  R26,HIGH(0x9)
000fe6 07fa      	CPC  R31,R26
000fe7 f461      	BRNE _0x2024D
                 ; 0001 09A2                     LEDL=1;LEDR=1;PORTA.4=1;delay_ms(10);
000fe8 9aac      	SBI  0x15,4
000fe9 9aad      	SBI  0x15,5
000fea 9adc      	SBI  0x1B,4
000feb 940e 1785 	CALL SUBOPT_0x66
                 ; 0001 09A3                     LEDL=0;LEDR=0;PORTA.4=0;delay_ms(30);
000fed 98ac      	CBI  0x15,4
                 _0x20321:
000fee 98ad      	CBI  0x15,5
                 _0x2031F:
000fef 98dc      	CBI  0x1B,4
                 _0x20320:
000ff0 e1ee      	LDI  R30,LOW(30)
000ff1 e0f0      	LDI  R31,HIGH(30)
000ff2 940e 1799 	CALL SUBOPT_0x6A
                 ; 0001 09A4                 break;
                 ; 0001 09A5             };
                 _0x2024D:
                 ; 0001 09A6         //LEDL=1;delay_ms(100);
                 ; 0001 09A7         //LEDL=0;delay_ms(100);
                 ; 0001 09A8         //for(i=0;i<id;i++)
                 ; 0001 09A9         //{
                 ; 0001 09AA         //    LEDR=1;delay_ms(150);
                 ; 0001 09AB         //    LEDR=0;delay_ms(150);
                 ; 0001 09AC         //}
                 ; 0001 09AD }
000ff4 9119      	LD   R17,Y+
000ff5 9508      	RET
                 ;//========================================================
                 ;//========================================================
                 ;void testRCservo()
                 ; 0001 09B1 {
                 _testRCservo:
                 ; 0001 09B2         clear();
000ff6 940e 057b 	CALL _clear
                 ; 0001 09B3         hc(0,10);
000ff8 940e 1698 	CALL SUBOPT_0x3D
000ffa 940e 16a9 	CALL SUBOPT_0x40
                 ; 0001 09B4         ws ("RC SERVO");
                +
000ffc e0e9     +LDI R30 , LOW ( _0x202B3 + ( 0 ) )
000ffd e0f3     +LDI R31 , HIGH ( _0x202B3 + ( 0 ) )
                 	__POINTW1MN _0x202B3,0
000ffe 940e 1566 	CALL SUBOPT_0x1E
                 ; 0001 09B5 // Timer/Counter 0 initialization
                 ; 0001 09B6 // Clock source: System Clock
                 ; 0001 09B7 // Clock value: 7.813 kHz
                 ; 0001 09B8 // Mode: Phase correct PWM top=0xFF
                 ; 0001 09B9 // OC0 output: Non-Inverted PWM
                 ; 0001 09BA TCCR0=0x65;     //15.32Hz
001000 e6e5      	LDI  R30,LOW(101)
001001 940e 179d 	CALL SUBOPT_0x6B
                 ; 0001 09BB TCNT0=0x00;
                 ; 0001 09BC OCR0=0x00;
                 ; 0001 09BD 
                 ; 0001 09BE // Timer/Counter 2 initialization
                 ; 0001 09BF // Clock source: System Clock
                 ; 0001 09C0 // Clock value: 7.813 kHz
                 ; 0001 09C1 // Mode: Phase correct PWM top=0xFF
                 ; 0001 09C2 // OC2 output: Non-Inverted PWM
                 ; 0001 09C3 ASSR=0x00;      //15.32Hz
                 ; 0001 09C4 TCCR2=0x67;
001003 e6e7      	LDI  R30,LOW(103)
001004 bde5      	OUT  0x25,R30
                 ; 0001 09C5 TCNT2=0x00;
001005 e0e0      	LDI  R30,LOW(0)
001006 bde4      	OUT  0x24,R30
                 ; 0001 09C6 OCR2=0x00;
001007 bde3      	OUT  0x23,R30
                 ; 0001 09C7 
                 ; 0001 09C8   while(keyKT!=0)
                 _0x202B4:
001008 9b98      	SBIS 0x13,0
001009 c013      	RJMP _0x202B6
                 ; 0001 09C9    {
                 ; 0001 09CA    LEDL=1;LEDR=1;//PORTB.3=1;
00100a 9aac      	SBI  0x15,4
00100b 9aad      	SBI  0x15,5
                 ; 0001 09CB    OCR0=2; OCR2=2;
00100c e0e2      	LDI  R30,LOW(2)
00100d bfec      	OUT  0x3C,R30
00100e bde3      	OUT  0x23,R30
                 ; 0001 09CC    delay_ms(2000);
00100f ede0      	LDI  R30,LOW(2000)
001010 e0f7      	LDI  R31,HIGH(2000)
001011 940e 1799 	CALL SUBOPT_0x6A
                 ; 0001 09CD 
                 ; 0001 09CE    LEDL=0;LEDR=0;//PORTB.3=1;
001013 98ac      	CBI  0x15,4
001014 98ad      	CBI  0x15,5
                 ; 0001 09CF    OCR0=10; OCR2=10;
001015 e0ea      	LDI  R30,LOW(10)
001016 bfec      	OUT  0x3C,R30
001017 bde3      	OUT  0x23,R30
                 ; 0001 09D0    delay_ms(2000);
001018 ede0      	LDI  R30,LOW(2000)
001019 e0f7      	LDI  R31,HIGH(2000)
00101a 940e 1799 	CALL SUBOPT_0x6A
                 ; 0001 09D1    }
00101c cfeb      	RJMP _0x202B4
                 _0x202B6:
                 ; 0001 09D2 // Timer/Counter 0 initialization
                 ; 0001 09D3 // Clock source: System Clock
                 ; 0001 09D4 // Clock value: Timer 0 Stopped
                 ; 0001 09D5 // Mode: Normal top=0xFF
                 ; 0001 09D6 // OC0 output: Disconnected
                 ; 0001 09D7 TCCR0=0x00;
00101d e0e0      	LDI  R30,LOW(0)
00101e 940e 179d 	CALL SUBOPT_0x6B
                 ; 0001 09D8 TCNT0=0x00;
                 ; 0001 09D9 OCR0=0x00;
                 ; 0001 09DA 
                 ; 0001 09DB // Timer/Counter 2 initialization
                 ; 0001 09DC // Clock source: System Clock
                 ; 0001 09DD // Clock value: Timer2 Stopped
                 ; 0001 09DE // Mode: Normal top=0xFF
                 ; 0001 09DF // OC2 output: Disconnected
                 ; 0001 09E0 ASSR =0x00;
                 ; 0001 09E1 TCCR2=0x00;
001020 e0e0      	LDI  R30,LOW(0)
001021 bde5      	OUT  0x25,R30
                 ; 0001 09E2 TCNT2=0x00;
001022 bde4      	OUT  0x24,R30
                 ; 0001 09E3 OCR2 =0x00;
001023 bde3      	OUT  0x23,R30
                 ; 0001 09E4 
                 ; 0001 09E5 }
001024 9508      	RET
                 
                 	.DSEG
                 _0x202B3:
000309           	.BYTE 0x9
                 ;
                 ;void selftest()
                 ; 0001 09E8 {
                 
                 	.CSEG
                 _selftest:
                 ; 0001 09E9     outlcd1();
001025 940e 17a3 	CALL SUBOPT_0x6C
                 ; 0001 09EA     hc(2,0);
                 ; 0001 09EB     ws ("1.ROBOT WALL");delay_ms(200);
                +
001027 e1e2     +LDI R30 , LOW ( _0x202BF + ( 0 ) )
001028 e0f3     +LDI R31 , HIGH ( _0x202BF + ( 0 ) )
                 	__POINTW1MN _0x202BF,0
001029 940e 1566 	CALL SUBOPT_0x1E
00102b 940e 169d 	CALL SUBOPT_0x3E
                 ; 0001 09EC      while(flagselftest==1)
                 _0x202C0:
00102d 91a0 04b5 	LDS  R26,_flagselftest
00102f 91b0 04b6 	LDS  R27,_flagselftest+1
001031 9711      	SBIW R26,1
001032 f011      	BREQ PC+3
001033 940c 10df 	JMP _0x202C2
                 ; 0001 09ED      {
                 ; 0001 09EE         //------------------------------------------------------------------------
                 ; 0001 09EF         //test menu kiem tra  robot
                 ; 0001 09F0          chopledtheoid();
001035 df4f      	RCALL _chopledtheoid
                 ; 0001 09F1           if(keyKT==0)
001036 9998      	SBIC 0x13,0
001037 c06a      	RJMP _0x202C3
                 ; 0001 09F2             {
                 ; 0001 09F3                 id++;
001038 91e0 04bd 	LDS  R30,_id
00103a 5fef      	SUBI R30,-LOW(1)
00103b 93e0 04bd 	STS  _id,R30
                 ; 0001 09F4                 if(id>11){id=1;}
00103d 91a0 04bd 	LDS  R26,_id
00103f 30ac      	CPI  R26,LOW(0xC)
001040 f018      	BRLO _0x202C4
001041 e0e1      	LDI  R30,LOW(1)
001042 93e0 04bd 	STS  _id,R30
                 ; 0001 09F5                 switch (id)
                 _0x202C4:
001044 940e 1792 	CALL SUBOPT_0x69
                 ; 0001 09F6                 {
                 ; 0001 09F7 
                 ; 0001 09F8                 case 1:
001046 f429      	BRNE _0x202C8
                 ; 0001 09F9                     outlcd1();
001047 940e 17a3 	CALL SUBOPT_0x6C
                 ; 0001 09FA                     hc(2,0);
                 ; 0001 09FB                     ws ("1.ROBOT WALL");delay_ms(200);
                +
001049 e1ef     +LDI R30 , LOW ( _0x202BF + ( 13 ) )
00104a e0f3     +LDI R31 , HIGH ( _0x202BF + ( 13 ) )
                 	__POINTW1MN _0x202BF,13
00104b c050      	RJMP _0x20322
                 ; 0001 09FC                 break;
                 ; 0001 09FD                 case 2:
                 _0x202C8:
00104c 30e2      	CPI  R30,LOW(0x2)
00104d e0a0      	LDI  R26,HIGH(0x2)
00104e 07fa      	CPC  R31,R26
00104f f429      	BRNE _0x202C9
                 ; 0001 09FE                     outlcd1();
001050 940e 17a3 	CALL SUBOPT_0x6C
                 ; 0001 09FF                     hc(2,0);
                 ; 0001 0A00                     ws ("2.BLUETOOTH ");delay_ms(200);
                +
001052 e2ec     +LDI R30 , LOW ( _0x202BF + ( 26 ) )
001053 e0f3     +LDI R31 , HIGH ( _0x202BF + ( 26 ) )
                 	__POINTW1MN _0x202BF,26
001054 c047      	RJMP _0x20322
                 ; 0001 0A01                 break;
                 ; 0001 0A02                 case 3:
                 _0x202C9:
001055 30e3      	CPI  R30,LOW(0x3)
001056 e0a0      	LDI  R26,HIGH(0x3)
001057 07fa      	CPC  R31,R26
001058 f429      	BRNE _0x202CA
                 ; 0001 0A03                     outlcd1();
001059 940e 17a3 	CALL SUBOPT_0x6C
                 ; 0001 0A04                     hc(2,0);
                 ; 0001 0A05                     ws ("3.WHITE LINE");delay_ms(200);
                +
00105b e3e9     +LDI R30 , LOW ( _0x202BF + ( 39 ) )
00105c e0f3     +LDI R31 , HIGH ( _0x202BF + ( 39 ) )
                 	__POINTW1MN _0x202BF,39
00105d c03e      	RJMP _0x20322
                 ; 0001 0A06                 break;
                 ; 0001 0A07                 case 4:
                 _0x202CA:
00105e 30e4      	CPI  R30,LOW(0x4)
00105f e0a0      	LDI  R26,HIGH(0x4)
001060 07fa      	CPC  R31,R26
001061 f429      	BRNE _0x202CB
                 ; 0001 0A08                     outlcd1();
001062 940e 17a3 	CALL SUBOPT_0x6C
                 ; 0001 0A09                     hc(2,0);
                 ; 0001 0A0A                     ws ("4.BLACK LINE");delay_ms(200);
                +
001064 e4e6     +LDI R30 , LOW ( _0x202BF + ( 52 ) )
001065 e0f3     +LDI R31 , HIGH ( _0x202BF + ( 52 ) )
                 	__POINTW1MN _0x202BF,52
001066 c035      	RJMP _0x20322
                 ; 0001 0A0B                 break;
                 ; 0001 0A0C                 case 5:
                 _0x202CB:
001067 30e5      	CPI  R30,LOW(0x5)
001068 e0a0      	LDI  R26,HIGH(0x5)
001069 07fa      	CPC  R31,R26
00106a f429      	BRNE _0x202CC
                 ; 0001 0A0D                     outlcd1();
00106b 940e 17a3 	CALL SUBOPT_0x6C
                 ; 0001 0A0E                     hc(2,0);
                 ; 0001 0A0F                     ws ("5.TEST MOTOR");delay_ms(200);
                +
00106d e5e3     +LDI R30 , LOW ( _0x202BF + ( 65 ) )
00106e e0f3     +LDI R31 , HIGH ( _0x202BF + ( 65 ) )
                 	__POINTW1MN _0x202BF,65
00106f c02c      	RJMP _0x20322
                 ; 0001 0A10                 break;
                 ; 0001 0A11                 case 6:
                 _0x202CC:
001070 30e6      	CPI  R30,LOW(0x6)
001071 e0a0      	LDI  R26,HIGH(0x6)
001072 07fa      	CPC  R31,R26
001073 f429      	BRNE _0x202CD
                 ; 0001 0A12                     outlcd1();
001074 940e 17a3 	CALL SUBOPT_0x6C
                 ; 0001 0A13                     hc(2,0);
                 ; 0001 0A14                     ws ("6.TEST IR   ");delay_ms(200);
                +
001076 e6e0     +LDI R30 , LOW ( _0x202BF + ( 78 ) )
001077 e0f3     +LDI R31 , HIGH ( _0x202BF + ( 78 ) )
                 	__POINTW1MN _0x202BF,78
001078 c023      	RJMP _0x20322
                 ; 0001 0A15                 break;
                 ; 0001 0A16                 case 7:
                 _0x202CD:
001079 30e7      	CPI  R30,LOW(0x7)
00107a e0a0      	LDI  R26,HIGH(0x7)
00107b 07fa      	CPC  R31,R26
00107c f429      	BRNE _0x202CE
                 ; 0001 0A17                     outlcd1();
00107d 940e 17a3 	CALL SUBOPT_0x6C
                 ; 0001 0A18                     hc(2,0);
                 ; 0001 0A19                     ws ("7.TEST RF   ");delay_ms(200);
                +
00107f e6ed     +LDI R30 , LOW ( _0x202BF + ( 91 ) )
001080 e0f3     +LDI R31 , HIGH ( _0x202BF + ( 91 ) )
                 	__POINTW1MN _0x202BF,91
001081 c01a      	RJMP _0x20322
                 ; 0001 0A1A                 break;
                 ; 0001 0A1B                 case 8:
                 _0x202CE:
001082 30e8      	CPI  R30,LOW(0x8)
001083 e0a0      	LDI  R26,HIGH(0x8)
001084 07fa      	CPC  R31,R26
001085 f429      	BRNE _0x202CF
                 ; 0001 0A1C                     outlcd1();
001086 940e 17a3 	CALL SUBOPT_0x6C
                 ; 0001 0A1D                     hc(2,0);
                 ; 0001 0A1E                     ws ("8.TEST UART ");delay_ms(200);
                +
001088 e7ea     +LDI R30 , LOW ( _0x202BF + ( 104 ) )
001089 e0f3     +LDI R31 , HIGH ( _0x202BF + ( 104 ) )
                 	__POINTW1MN _0x202BF,104
00108a c011      	RJMP _0x20322
                 ; 0001 0A1F                 break;
                 ; 0001 0A20                 case 9:
                 _0x202CF:
00108b 30e9      	CPI  R30,LOW(0x9)
00108c e0a0      	LDI  R26,HIGH(0x9)
00108d 07fa      	CPC  R31,R26
00108e f429      	BRNE _0x202D0
                 ; 0001 0A21                     outlcd1();
00108f 940e 17a3 	CALL SUBOPT_0x6C
                 ; 0001 0A22                     hc(2,0);
                 ; 0001 0A23                     ws ("9.RC SERVO ");delay_ms(200);
                +
001091 e8e7     +LDI R30 , LOW ( _0x202BF + ( 117 ) )
001092 e0f3     +LDI R31 , HIGH ( _0x202BF + ( 117 ) )
                 	__POINTW1MN _0x202BF,117
001093 c008      	RJMP _0x20322
                 ; 0001 0A24                 break;
                 ; 0001 0A25                 case 10:
                 _0x202D0:
001094 30ea      	CPI  R30,LOW(0xA)
001095 e0a0      	LDI  R26,HIGH(0xA)
001096 07fa      	CPC  R31,R26
001097 f451      	BRNE _0x202C7
                 ; 0001 0A26                     outlcd1();
001098 940e 17a3 	CALL SUBOPT_0x6C
                 ; 0001 0A27                     hc(2,0);
                 ; 0001 0A28                     ws ("10.UPDATE RB");delay_ms(200);
                +
00109a e9e3     +LDI R30 , LOW ( _0x202BF + ( 129 ) )
00109b e0f3     +LDI R31 , HIGH ( _0x202BF + ( 129 ) )
                 	__POINTW1MN _0x202BF,129
                 _0x20322:
00109c 93fa      	ST   -Y,R31
00109d 93ea      	ST   -Y,R30
00109e 940e 0562 	CALL _ws
0010a0 940e 169d 	CALL SUBOPT_0x3E
                 ; 0001 0A29                 break;
                 ; 0001 0A2A                 };
                 _0x202C7:
                 ; 0001 0A2B             }
                 ; 0001 0A2C          if(keyKP==0)
                 _0x202C3:
0010a2 9999      	SBIC 0x13,1
0010a3 c03a      	RJMP _0x202D2
                 ; 0001 0A2D             {
                 ; 0001 0A2E                 switch (id)
0010a4 940e 1792 	CALL SUBOPT_0x69
                 ; 0001 0A2F                 {
                 ; 0001 0A30                 case 1:
0010a6 f411      	BRNE _0x202D6
                 ; 0001 0A31                     robotwall() ;
0010a7 d8e8      	RCALL _robotwall
                 ; 0001 0A32                 break;
0010a8 c035      	RJMP _0x202D5
                 ; 0001 0A33                 case 2:
                 _0x202D6:
0010a9 30e2      	CPI  R30,LOW(0x2)
0010aa e0a0      	LDI  R26,HIGH(0x2)
0010ab 07fa      	CPC  R31,R26
0010ac f411      	BRNE _0x202D7
                 ; 0001 0A34                     bluetooth() ;
0010ad dd85      	RCALL _bluetooth
                 ; 0001 0A35                 break;
0010ae c02f      	RJMP _0x202D5
                 ; 0001 0A36                 case 3:
                 _0x202D7:
0010af 30e3      	CPI  R30,LOW(0x3)
0010b0 e0a0      	LDI  R26,HIGH(0x3)
0010b1 07fa      	CPC  R31,R26
0010b2 f411      	BRNE _0x202D8
                 ; 0001 0A37                     robotwhiteline() ;
0010b3 d9ca      	RCALL _robotwhiteline
                 ; 0001 0A38                 break;
0010b4 c029      	RJMP _0x202D5
                 ; 0001 0A39                 case 4:
                 _0x202D8:
0010b5 30e4      	CPI  R30,LOW(0x4)
0010b6 e0a0      	LDI  R26,HIGH(0x4)
0010b7 07fa      	CPC  R31,R26
0010b8 f411      	BRNE _0x202D9
                 ; 0001 0A3A                     robotblackline() ;
0010b9 dabb      	RCALL _robotblackline
                 ; 0001 0A3B                 break;
0010ba c023      	RJMP _0x202D5
                 ; 0001 0A3C                 case 5:
                 _0x202D9:
0010bb 30e5      	CPI  R30,LOW(0x5)
0010bc e0a0      	LDI  R26,HIGH(0x5)
0010bd 07fa      	CPC  R31,R26
0010be f411      	BRNE _0x202DA
                 ; 0001 0A3D                     testmotor() ;
0010bf ddc6      	RCALL _testmotor
                 ; 0001 0A3E                 break;
0010c0 c01d      	RJMP _0x202D5
                 ; 0001 0A3F                 case 6:
                 _0x202DA:
0010c1 30e6      	CPI  R30,LOW(0x6)
0010c2 e0a0      	LDI  R26,HIGH(0x6)
0010c3 07fa      	CPC  R31,R26
0010c4 f411      	BRNE _0x202DB
                 ; 0001 0A40                     testir()    ;
0010c5 de0b      	RCALL _testir
                 ; 0001 0A41                 break;
0010c6 c017      	RJMP _0x202D5
                 ; 0001 0A42                 case 7:
                 _0x202DB:
0010c7 30e7      	CPI  R30,LOW(0x7)
0010c8 e0a0      	LDI  R26,HIGH(0x7)
0010c9 07fa      	CPC  R31,R26
0010ca f411      	BRNE _0x202DC
                 ; 0001 0A43                     testrf()    ;
0010cb de04      	RCALL _testrf
                 ; 0001 0A44                 break;
0010cc c011      	RJMP _0x202D5
                 ; 0001 0A45                 case 8:
                 _0x202DC:
0010cd 30e8      	CPI  R30,LOW(0x8)
0010ce e0a0      	LDI  R26,HIGH(0x8)
0010cf 07fa      	CPC  R31,R26
0010d0 f411      	BRNE _0x202DD
                 ; 0001 0A46                     testuart()  ;
0010d1 ddec      	RCALL _testuart
                 ; 0001 0A47                 break;
0010d2 c00b      	RJMP _0x202D5
                 ; 0001 0A48                 case 9:
                 _0x202DD:
0010d3 30e9      	CPI  R30,LOW(0x9)
0010d4 e0a0      	LDI  R26,HIGH(0x9)
0010d5 07fa      	CPC  R31,R26
0010d6 f411      	BRNE _0x202DE
                 ; 0001 0A49                     testRCservo()  ;
0010d7 df1e      	RCALL _testRCservo
                 ; 0001 0A4A                 break;
0010d8 c005      	RJMP _0x202D5
                 ; 0001 0A4B                 case 10:
                 _0x202DE:
0010d9 30ea      	CPI  R30,LOW(0xA)
0010da e0a0      	LDI  R26,HIGH(0xA)
0010db 07fa      	CPC  R31,R26
0010dc f409      	BRNE _0x202D5
                 ; 0001 0A4C                     testposition() ;
0010dd d865      	RCALL _testposition
                 ; 0001 0A4D                 break;
                 ; 0001 0A4E 
                 ; 0001 0A4F                 };
                 _0x202D5:
                 ; 0001 0A50 
                 ; 0001 0A51             }
                 ; 0001 0A52 
                 ; 0001 0A53 
                 ; 0001 0A54      }//end while(1)
                 _0x202D2:
0010de cf4e      	RJMP _0x202C0
                 _0x202C2:
                 ; 0001 0A55 }
0010df 9508      	RET
                 
                 	.DSEG
                 _0x202BF:
000312           	.BYTE 0x8E
                 ;#ifdef DEBUG_EN
                 ;  char debugMsgBuff[32];
                 ;#endif
                 ;void debug_out(char *pMsg,unsigned char len)
                 ; 0001 0A5A {
                 
                 	.CSEG
                 ; 0001 0A5B     #ifdef DEBUG_EN
                 ; 0001 0A5C     char i=0;
                 ; 0001 0A5D     for(i=0;i<len;i++)
                 ; 0001 0A5E     {
                 ; 0001 0A5F         putchar(*pMsg++);
                 ; 0001 0A60         delay_us(300);
                 ; 0001 0A61     }
                 ; 0001 0A62     #endif
                 ; 0001 0A63     return ;
                 ;	*pMsg -> Y+1
                 ;	len -> Y+0
                 ; 0001 0A64 }
                 ;//[NGUYEN]Set bit and clear bit
                 ;#define setBit(p,n) ((p) |= (1 << (n)))
                 ;#define clrBit(p,n) ((p) &= (~(1) << (n)))
                 ;
                 ;//[NGUYEN] Update position. 64ms/frame
                 ;//call setUpdateRate() in MAIN to init.
                 ;char timer2Count=0;
                 ;char posUpdateFlag=0;
                 ;#define distThresh 100
                 ;
                 ;IntBall oldPos;
                 ;void initPos()
                 ; 0001 0A71 {
                 _initPos:
                 ; 0001 0A72     oldPos.x = rbctrlHomeX;
0010e0 91e0 0495 	LDS  R30,_rbctrlHomeX
0010e2 91f0 0496 	LDS  R31,_rbctrlHomeX+1
0010e4 9160 0497 	LDS  R22,_rbctrlHomeX+2
0010e6 9170 0498 	LDS  R23,_rbctrlHomeX+3
0010e8 e1ae      	LDI  R26,LOW(_oldPos)
0010e9 e0b5      	LDI  R27,HIGH(_oldPos)
0010ea 940e 14c6 	CALL SUBOPT_0xA
                 ; 0001 0A73     oldPos.y = rbctrlHomeY;
                +
0010ec e2a0     +LDI R26 , LOW ( _oldPos + ( 2 ) )
0010ed e0b5     +LDI R27 , HIGH ( _oldPos + ( 2 ) )
                 	__POINTW2MN _oldPos,2
0010ee 91e0 0499 	LDS  R30,_rbctrlHomeY
0010f0 91f0 049a 	LDS  R31,_rbctrlHomeY+1
0010f2 9160 049b 	LDS  R22,_rbctrlHomeY+2
0010f4 9170 049c 	LDS  R23,_rbctrlHomeY+3
0010f6 940e 14c6 	CALL SUBOPT_0xA
                 ; 0001 0A74 }
0010f8 9508      	RET
                 ;
                 ;IntBall estimatePos(IntBall curPos)
                 ; 0001 0A77 {
                 _estimatePos:
                 ; 0001 0A78 	return curPos;
0010f9 9724      	SBIW R28,4
                 ;	curPos -> Y+4
0010fa 01fe      	MOVW R30,R28
0010fb 9634      	ADIW R30,4
0010fc 01de      	MOVW R26,R28
0010fd e084      	LDI  R24,4
0010fe 940e 1ab3 	CALL __COPYMML
001100 01fe      	MOVW R30,R28
001101 e084      	LDI  R24,4
001102 b61f      	IN   R1,SREG
001103 94f8      	CLI
001104 940c 13f3 	JMP  _0x20C0005
                 ; 0001 0A79 }
                 ;
                 ;void updatePosInit()
                 ; 0001 0A7C {
                 _updatePosInit:
                 ; 0001 0A7D 	// Timer/Counter 2 initialization
                 ; 0001 0A7E 	// Clock source: System Clock
                 ; 0001 0A7F 	// Clock value: 7.813 kHz
                 ; 0001 0A80 	// Mode: CTC top=OCR2
                 ; 0001 0A81 	// OC2 output: Disconnected
                 ; 0001 0A82 	ASSR=0x00;
001106 e0e0      	LDI  R30,LOW(0)
001107 bde2      	OUT  0x22,R30
                 ; 0001 0A83 	TCCR2=0x0F;
001108 e0ef      	LDI  R30,LOW(15)
001109 bde5      	OUT  0x25,R30
                 ; 0001 0A84 	TCNT2=0x12;
00110a e1e2      	LDI  R30,LOW(18)
00110b bde4      	OUT  0x24,R30
                 ; 0001 0A85 	OCR2=254;
00110c efee      	LDI  R30,LOW(254)
00110d bde3      	OUT  0x23,R30
                 ; 0001 0A86 	// Timer(s)/Counter(s) Interrupt(s) initialization
                 ; 0001 0A87 	setBit(TIMSK,OCIE2);
00110e b7e9      	IN   R30,0x39
00110f 68e0      	ORI  R30,0x80
001110 bfe9      	OUT  0x39,R30
                 ; 0001 0A88 }
001111 9508      	RET
                 ;//[NGUYEN]
                 ;
                 ;interrupt [TIM2_COMP] void timer2_comp_isr(void)
                 ; 0001 0A8C {
                 _timer2_comp_isr:
001112 940e 161e 	CALL SUBOPT_0x2A
                 ; 0001 0A8D     unsigned char i=0;
                 ; 0001 0A8E     LEDRtoggle();
001114 931a      	ST   -Y,R17
                 ;	i -> R17
001115 e010      	LDI  R17,0
001116 940e 0520 	CALL _LEDRtoggle
                 ; 0001 0A8F     if (timer2Count++<2)
001118 91a0 051c 	LDS  R26,_timer2Count
00111a 5faf      	SUBI R26,-LOW(1)
00111b 93a0 051c 	STS  _timer2Count,R26
00111d 50a1      	SUBI R26,LOW(1)
00111e 30a2      	CPI  R26,LOW(0x2)
00111f f408      	BRSH _0x202E0
                 ; 0001 0A90          return;
001120 c0ca      	RJMP _0x20324
                 ; 0001 0A91     else
                 _0x202E0:
                 ; 0001 0A92     {
                 ; 0001 0A93         timer2Count=0;
001121 e0e0      	LDI  R30,LOW(0)
001122 93e0 051c 	STS  _timer2Count,R30
                 ; 0001 0A94     }
                 ; 0001 0A95 
                 ; 0001 0A96 
                 ; 0001 0A97         if(nRF24L01_RxPacket(RxBuf)==1)         // Neu nhan duoc du lieu
001124 e5e9      	LDI  R30,LOW(_RxBuf)
001125 e0f4      	LDI  R31,HIGH(_RxBuf)
001126 93fa      	ST   -Y,R31
001127 93ea      	ST   -Y,R30
001128 940e 034c 	CALL _nRF24L01_RxPacket
00112a 30e1      	CPI  R30,LOW(0x1)
00112b f011      	BREQ PC+3
00112c 940c 11eb 	JMP _0x202E2
                 ; 0001 0A98         {
                 ; 0001 0A99          IntRobot intRb;
                 ; 0001 0A9A          for( i=0;i<28;i++)
00112e 972e      	SBIW R28,14
                 ;	intRb -> Y+0
00112f e010      	LDI  R17,LOW(0)
                 _0x202E4:
001130 311c      	CPI  R17,28
001131 f460      	BRSH _0x202E5
                 ; 0001 0A9B          {
                 ; 0001 0A9C              *(uint8_t *) ((uint8_t *)&rb + i)=RxBuf[i];
001132 2fa1      	MOV  R26,R17
001133 e0b0      	LDI  R27,0
001134 53a1      	SUBI R26,LOW(-_rb)
001135 4fbc      	SBCI R27,HIGH(-_rb)
001136 940e 1530 	CALL SUBOPT_0x18
001138 5ae7      	SUBI R30,LOW(-_RxBuf)
001139 4ffb      	SBCI R31,HIGH(-_RxBuf)
00113a 81e0      	LD   R30,Z
00113b 93ec      	ST   X,R30
                 ; 0001 0A9D          }
00113c 5f1f      	SUBI R17,-1
00113d cff2      	RJMP _0x202E4
                 _0x202E5:
                 ; 0001 0A9E 
                 ; 0001 0A9F 
                 ; 0001 0AA0          idRobot = fmod(rb.id,10); // doc id
00113e 940e 17a6 	CALL SUBOPT_0x6D
001140 940e 1a94 	CALL __PUTPARD1
001142 940e 174a 	CALL SUBOPT_0x5D
001144 940e 1a94 	CALL __PUTPARD1
001146 940e 12e0 	CALL _fmod
001148 940e 184d 	CALL __CFD1U
00114a 016f      	MOVW R12,R30
                 ; 0001 0AA1          cmdCtrlRobot = (int)rb.id/10; // doc ma lenh
00114b 940e 17af 	CALL SUBOPT_0x6E
                 ; 0001 0AA2 
                 ; 0001 0AA3          intRb = convertRobot2IntRobot(rb);
00114d ecef      	LDI  R30,LOW(_rb)
00114e e0f3      	LDI  R31,HIGH(_rb)
00114f e1ac      	LDI  R26,28
001150 940e 1a99 	CALL __PUTPARL
001152 940e 06f1 	CALL _convertRobot2IntRobot
001154 01de      	MOVW R26,R28
001155 940e 1ab3 	CALL __COPYMML
001157 be1f      	OUT  SREG,R1
                 ; 0001 0AA4 
                 ; 0001 0AA5          switch (idRobot)
001158 01f6      	MOVW R30,R12
                 ; 0001 0AA6          {
                 ; 0001 0AA7               case 1:
001159 30e1      	CPI  R30,LOW(0x1)
00115a e0a0      	LDI  R26,HIGH(0x1)
00115b 07fa      	CPC  R31,R26
00115c f421      	BRNE _0x202E9
                 ; 0001 0AA8                 robot11=intRb;
00115d 01fe      	MOVW R30,R28
00115e eeab      	LDI  R26,LOW(_robot11)
00115f e0b3      	LDI  R27,HIGH(_robot11)
001160 c027      	RJMP _0x20323
                 ; 0001 0AA9                 break;
                 ; 0001 0AAA               case 2:
                 _0x202E9:
001161 30e2      	CPI  R30,LOW(0x2)
001162 e0a0      	LDI  R26,HIGH(0x2)
001163 07fa      	CPC  R31,R26
001164 f421      	BRNE _0x202EA
                 ; 0001 0AAB                 robot12=intRb;
001165 01fe      	MOVW R30,R28
001166 efa9      	LDI  R26,LOW(_robot12)
001167 e0b3      	LDI  R27,HIGH(_robot12)
001168 c01f      	RJMP _0x20323
                 ; 0001 0AAC                 break;
                 ; 0001 0AAD               case 3:
                 _0x202EA:
001169 30e3      	CPI  R30,LOW(0x3)
00116a e0a0      	LDI  R26,HIGH(0x3)
00116b 07fa      	CPC  R31,R26
00116c f421      	BRNE _0x202EB
                 ; 0001 0AAE                 robot13=intRb;
00116d 01fe      	MOVW R30,R28
00116e e0a7      	LDI  R26,LOW(_robot13)
00116f e0b4      	LDI  R27,HIGH(_robot13)
001170 c017      	RJMP _0x20323
                 ; 0001 0AAF                 break;
                 ; 0001 0AB0               case 4:
                 _0x202EB:
001171 30e4      	CPI  R30,LOW(0x4)
001172 e0a0      	LDI  R26,HIGH(0x4)
001173 07fa      	CPC  R31,R26
001174 f421      	BRNE _0x202EC
                 ; 0001 0AB1                 robot21=intRb;
001175 01fe      	MOVW R30,R28
001176 e1a5      	LDI  R26,LOW(_robot21)
001177 e0b4      	LDI  R27,HIGH(_robot21)
001178 c00f      	RJMP _0x20323
                 ; 0001 0AB2                 break;
                 ; 0001 0AB3               case 5:
                 _0x202EC:
001179 30e5      	CPI  R30,LOW(0x5)
00117a e0a0      	LDI  R26,HIGH(0x5)
00117b 07fa      	CPC  R31,R26
00117c f421      	BRNE _0x202ED
                 ; 0001 0AB4                 robot22=intRb;
00117d 01fe      	MOVW R30,R28
00117e e2a3      	LDI  R26,LOW(_robot22)
00117f e0b4      	LDI  R27,HIGH(_robot22)
001180 c007      	RJMP _0x20323
                 ; 0001 0AB5                 break;
                 ; 0001 0AB6               case 6:
                 _0x202ED:
001181 30e6      	CPI  R30,LOW(0x6)
001182 e0a0      	LDI  R26,HIGH(0x6)
001183 07fa      	CPC  R31,R26
001184 f431      	BRNE _0x202E8
                 ; 0001 0AB7                 robot23=intRb;
001185 01fe      	MOVW R30,R28
001186 e3a1      	LDI  R26,LOW(_robot23)
001187 e0b4      	LDI  R27,HIGH(_robot23)
                 _0x20323:
001188 e08e      	LDI  R24,14
001189 940e 1ab3 	CALL __COPYMML
                 ; 0001 0AB8                 break;
                 ; 0001 0AB9 
                 ; 0001 0ABA          }
                 _0x202E8:
                 ; 0001 0ABB          if(idRobot==ROBOT_ID)
00118b e0e4      	LDI  R30,LOW(4)
00118c e0f0      	LDI  R31,HIGH(4)
00118d 15ec      	CP   R30,R12
00118e 05fd      	CPC  R31,R13
00118f f011      	BREQ PC+3
001190 940c 11ea 	JMP _0x202EF
                 ; 0001 0ABC          {
                 ; 0001 0ABD              LEDL=!LEDL;
001192 9bac      	SBIS 0x15,4
001193 c002      	RJMP _0x202F0
001194 98ac      	CBI  0x15,4
001195 c001      	RJMP _0x202F1
                 _0x202F0:
001196 9aac      	SBI  0x15,4
                 _0x202F1:
                 ; 0001 0ABE              cmdCtrlRobot = (int)rb.id/10; // doc ma lenh
001197 940e 17af 	CALL SUBOPT_0x6E
                 ; 0001 0ABF              posUpdateFlag=1;
001199 e0e1      	LDI  R30,LOW(1)
00119a 93e0 051d 	STS  _posUpdateFlag,R30
                 ; 0001 0AC0 			 robotctrl=intRb;
00119c 01fe      	MOVW R30,R28
00119d e3af      	LDI  R26,LOW(_robotctrl)
00119e e0b4      	LDI  R27,HIGH(_robotctrl)
00119f e08e      	LDI  R24,14
0011a0 940e 1ab3 	CALL __COPYMML
                 ; 0001 0AC1             if((robotctrl.x - oldPos.x >= distThresh)|| (robotctrl.y - oldPos.y >= distThresh))
                +
0011a2 91a0 0441+LDS R26 , _robotctrl + ( 2 )
0011a4 91b0 0442+LDS R27 , _robotctrl + ( 2 ) + 1
                 	__GETW2MN _robotctrl,2
0011a6 91e0 051e 	LDS  R30,_oldPos
0011a8 91f0 051f 	LDS  R31,_oldPos+1
0011aa 1bae      	SUB  R26,R30
0011ab 0bbf      	SBC  R27,R31
0011ac 36a4      	CPI  R26,LOW(0x64)
0011ad e0e0      	LDI  R30,HIGH(0x64)
0011ae 07be      	CPC  R27,R30
0011af f474      	BRGE _0x202F3
                +
0011b0 91a0 0443+LDS R26 , _robotctrl + ( 4 )
0011b2 91b0 0444+LDS R27 , _robotctrl + ( 4 ) + 1
                 	__GETW2MN _robotctrl,4
                +
0011b4 91e0 0520+LDS R30 , _oldPos + ( 2 )
0011b6 91f0 0521+LDS R31 , _oldPos + ( 2 ) + 1
                 	__GETW1MN _oldPos,2
0011b8 1bae      	SUB  R26,R30
0011b9 0bbf      	SBC  R27,R31
0011ba 36a4      	CPI  R26,LOW(0x64)
0011bb e0e0      	LDI  R30,HIGH(0x64)
0011bc 07be      	CPC  R27,R30
0011bd f104      	BRLT _0x202F2
                 _0x202F3:
                 ; 0001 0AC2 			 {
                 ; 0001 0AC3 				IntBall estPos;
                 ; 0001 0AC4 				IntBall curPos;
                 ; 0001 0AC5 				curPos.x = robotctrl.x;
0011be 9728      	SBIW R28,8
                 ;	intRb -> Y+8
                 ;	estPos -> Y+4
                 ;	curPos -> Y+0
0011bf 940e 1684 	CALL SUBOPT_0x39
0011c1 83e8      	ST   Y,R30
0011c2 83f9      	STD  Y+1,R31
                 ; 0001 0AC6 				curPos.y = robotctrl.y;
0011c3 940e 168e 	CALL SUBOPT_0x3B
0011c5 83ea      	STD  Y+2,R30
0011c6 83fb      	STD  Y+2+1,R31
                 ; 0001 0AC7 				estPos = estimatePos(curPos);
0011c7 01fe      	MOVW R30,R28
0011c8 e0a4      	LDI  R26,4
0011c9 940e 1a99 	CALL __PUTPARL
0011cb df2d      	RCALL _estimatePos
0011cc 01de      	MOVW R26,R28
0011cd 9614      	ADIW R26,4
0011ce 940e 1ab3 	CALL __COPYMML
0011d0 be1f      	OUT  SREG,R1
                 ; 0001 0AC8 				robotctrl.x = estPos.x;
0011d1 81ec      	LDD  R30,Y+4
0011d2 81fd      	LDD  R31,Y+4+1
                +
0011d3 93e0 0441+STS _robotctrl + ( 2 ) , R30
0011d5 93f0 0442+STS _robotctrl + ( 2 ) + 1 , R31
                 	__PUTW1MN _robotctrl,2
                 ; 0001 0AC9 				robotctrl.y = estPos.y;
0011d7 81ee      	LDD  R30,Y+6
0011d8 81ff      	LDD  R31,Y+6+1
                +
0011d9 93e0 0443+STS _robotctrl + ( 4 ) , R30
0011db 93f0 0444+STS _robotctrl + ( 4 ) + 1 , R31
                 	__PUTW1MN _robotctrl,4
                 ; 0001 0ACA 
                 ; 0001 0ACB 			 }
0011dd 9628      	ADIW R28,8
                 ; 0001 0ACC 			 oldPos.x = robotctrl.x;
                 _0x202F2:
0011de 940e 1684 	CALL SUBOPT_0x39
0011e0 93e0 051e 	STS  _oldPos,R30
0011e2 93f0 051f 	STS  _oldPos+1,R31
                 ; 0001 0ACD 			 oldPos.y = robotctrl.y;
0011e4 940e 168e 	CALL SUBOPT_0x3B
                +
0011e6 93e0 0520+STS _oldPos + ( 2 ) , R30
0011e8 93f0 0521+STS _oldPos + ( 2 ) + 1 , R31
                 	__PUTW1MN _oldPos,2
                 ; 0001 0ACE 		}
                 ; 0001 0ACF 
                 ; 0001 0AD0      }
                 _0x202EF:
0011ea 962e      	ADIW R28,14
                 ; 0001 0AD1 }
                 _0x202E2:
                 _0x20324:
0011eb 9119      	LD   R17,Y+
0011ec 940e 165f 	CALL SUBOPT_0x34
0011ee 9518      	RETI
                 ;unsigned char readposition()
                 ; 0001 0AD3 {
                 _readposition:
                 ; 0001 0AD4     return;
0011ef e0e0      	LDI  R30,LOW(0)
0011f0 9508      	RET
                 ; 0001 0AD5 }
                 ;
                 ;//========================================================
                 ;//          HAM MAIN
                 ;//========================================================
                 ;void main(void)
                 ; 0001 0ADB {
                 _main:
                 ; 0001 0ADC     // For Testing purpose only, creating a fake robot
                 ; 0001 0ADD     IntRobot rbFake;
                 ; 0001 0ADE     unsigned char flagreadrb;
                 ; 0001 0ADF     unsigned int adctest;
                 ; 0001 0AE0     unsigned char i;
                 ; 0001 0AE1     float PIdl,PIdr,pl,il,pr,ir,ur,ul;
                 ; 0001 0AE2 
                 ; 0001 0AE3     // Testing robot declaration
                 ; 0001 0AE4     rbFake.id = 4;
0011f1 97ae      	SBIW R28,46
                 ;	rbFake -> Y+32
                 ;	flagreadrb -> R17
                 ;	adctest -> R18,R19
                 ;	i -> R16
                 ;	PIdl -> Y+28
                 ;	PIdr -> Y+24
                 ;	pl -> Y+20
                 ;	il -> Y+16
                 ;	pr -> Y+12
                 ;	ir -> Y+8
                 ;	ur -> Y+4
                 ;	ul -> Y+0
0011f2 e0e4      	LDI  R30,LOW(4)
0011f3 e0f0      	LDI  R31,HIGH(4)
0011f4 a3e8      	STD  Y+32,R30
0011f5 a3f9      	STD  Y+32+1,R31
                 ; 0001 0AE5     rbFake.x = -42;
0011f6 ede6      	LDI  R30,LOW(65494)
0011f7 efff      	LDI  R31,HIGH(65494)
0011f8 a3ea      	STD  Y+34,R30
0011f9 a3fb      	STD  Y+34+1,R31
                 ; 0001 0AE6     rbFake.y = 48;
0011fa e3e0      	LDI  R30,LOW(48)
0011fb e0f0      	LDI  R31,HIGH(48)
0011fc a3ec      	STD  Y+36,R30
0011fd a3fd      	STD  Y+36+1,R31
                 ; 0001 0AE7     rbFake.ox = -35;
0011fe eded      	LDI  R30,LOW(65501)
0011ff efff      	LDI  R31,HIGH(65501)
001200 a3ee      	STD  Y+38,R30
001201 a3ff      	STD  Y+38+1,R31
                 ; 0001 0AE8     rbFake.oy = -50;
001202 ecee      	LDI  R30,LOW(65486)
001203 efff      	LDI  R31,HIGH(65486)
001204 a7e8      	STD  Y+40,R30
001205 a7f9      	STD  Y+40+1,R31
                 ; 0001 0AE9     rbFake.ball.x = 0;
001206 e0e0      	LDI  R30,LOW(0)
001207 a7ea      	STD  Y+42,R30
001208 a7eb      	STD  Y+42+1,R30
                 ; 0001 0AEA     rbFake.ball.y = 0;
001209 a7ec      	STD  Y+44,R30
00120a a7ed      	STD  Y+44+1,R30
                 ; 0001 0AEB 
                 ; 0001 0AEC     //------------- khai  bao chuc nang in out cua cac port
                 ; 0001 0AED     DDRA    = 0xFF;
00120b efef      	LDI  R30,LOW(255)
00120c bbea      	OUT  0x1A,R30
                 ; 0001 0AEE     DDRB    = 0b10111111;
00120d ebef      	LDI  R30,LOW(191)
00120e bbe7      	OUT  0x17,R30
                 ; 0001 0AEF     DDRC    = 0b11111100;
00120f efec      	LDI  R30,LOW(252)
001210 bbe4      	OUT  0x14,R30
                 ; 0001 0AF0     DDRD    = 0b11110010;
001211 efe2      	LDI  R30,LOW(242)
001212 bbe1      	OUT  0x11,R30
                 ; 0001 0AF1 
                 ; 0001 0AF2     //------------- khai  bao chuc nang cua adc
                 ; 0001 0AF3     // ADC initialization
                 ; 0001 0AF4     // ADC Clock frequency: 1000.000 kHz
                 ; 0001 0AF5     // ADC Voltage Reference: AVCC pin
                 ; 0001 0AF6     ADMUX=ADC_VREF_TYPE & 0xff;
001213 e4e0      	LDI  R30,LOW(64)
001214 b9e7      	OUT  0x7,R30
                 ; 0001 0AF7     ADCSRA=0x83;
001215 e8e3      	LDI  R30,LOW(131)
001216 b9e6      	OUT  0x6,R30
                 ; 0001 0AF8     //---------------------------------------------------------------------
                 ; 0001 0AF9     //------------- khai  bao chuc nang cua bo timer dung lam PWM cho 2 dong co
                 ; 0001 0AFA     // Timer/Counter 1 initialization
                 ; 0001 0AFB     // Clock source: System Clock
                 ; 0001 0AFC     // Clock value: 1000.000 kHz   //PWM 2KHz
                 ; 0001 0AFD     // Mode: Ph. correct PWM top=0x00FF
                 ; 0001 0AFE     // OC1A output: Non-Inv.
                 ; 0001 0AFF     // OC1B output: Non-Inv.
                 ; 0001 0B00     // Noise Canceler: Off
                 ; 0001 0B01     // Input Capture on Falling Edge
                 ; 0001 0B02     // Timer1 Overflow Interrupt: On  // voi period =1/2khz= 0.5ms
                 ; 0001 0B03     // Input Capture Interrupt: Off
                 ; 0001 0B04     // Compare A Match Interrupt: Off
                 ; 0001 0B05     // Compare B Match Interrupt: Off
                 ; 0001 0B06     TCCR1A=0xA1;
001217 eae1      	LDI  R30,LOW(161)
001218 bdef      	OUT  0x2F,R30
                 ; 0001 0B07     TCCR1B=0x02;
001219 e0e2      	LDI  R30,LOW(2)
00121a bdee      	OUT  0x2E,R30
                 ; 0001 0B08     TCNT1H=0x00;
00121b e0e0      	LDI  R30,LOW(0)
00121c bded      	OUT  0x2D,R30
                 ; 0001 0B09     TCNT1L=0x00;
00121d bdec      	OUT  0x2C,R30
                 ; 0001 0B0A     ICR1H=0x00;
00121e bde7      	OUT  0x27,R30
                 ; 0001 0B0B     ICR1L=0x00;
00121f bde6      	OUT  0x26,R30
                 ; 0001 0B0C     OCR1AH=0x00;
001220 bdeb      	OUT  0x2B,R30
                 ; 0001 0B0D     OCR1AL=0x00;
001221 bdea      	OUT  0x2A,R30
                 ; 0001 0B0E     OCR1BH=0x00;
001222 bde9      	OUT  0x29,R30
                 ; 0001 0B0F     OCR1BL=0x00;
001223 bde8      	OUT  0x28,R30
                 ; 0001 0B10     // Timer(s)/Counter(s) Interrupt(s) initialization  timer0
                 ; 0001 0B11     TIMSK=0x04;
001224 e0e4      	LDI  R30,LOW(4)
001225 bfe9      	OUT  0x39,R30
                 ; 0001 0B12 
                 ; 0001 0B13     //OCR1A=0-255; MOTOR LEFT
                 ; 0001 0B14     //OCR1B=0-255; MOTOR RIGHT
                 ; 0001 0B15     for(i=0;i<1;i++)
001226 e000      	LDI  R16,LOW(0)
                 _0x202F6:
001227 3001      	CPI  R16,1
001228 f420      	BRSH _0x202F7
                 ; 0001 0B16     {
                 ; 0001 0B17         LEDL=1; LEDR=1;
001229 940e 1764 	CALL SUBOPT_0x62
                 ; 0001 0B18         delay_ms(100);
                 ; 0001 0B19         LEDL=0; LEDR=0;
                 ; 0001 0B1A         delay_ms(100);
                 ; 0001 0B1B     }
00122b 5f0f      	SUBI R16,-1
00122c cffa      	RJMP _0x202F6
                 _0x202F7:
                 ; 0001 0B1C 
                 ; 0001 0B1D     //khai  bao su dung cua glcd
                 ; 0001 0B1E     SPIinit();
00122d 940e 05ec 	CALL _SPIinit
                 ; 0001 0B1F     LCDinit();
00122f 940e 05f1 	CALL _LCDinit
                 ; 0001 0B20 
                 ; 0001 0B21     // khai  bao su dung rf dung de cap nhat gia tri vi tri cua robot
                 ; 0001 0B22     init_NRF24L01();
001231 940e 02b0 	CALL _init_NRF24L01
                 ; 0001 0B23     SetRX_Mode();  // chon kenh tan so phat, va dia chi phat trong file nRF14l01.c
001233 940e 0340 	CALL _SetRX_Mode
                 ; 0001 0B24     // khai bao su dung encoder
                 ; 0001 0B25     initencoder(); //lay 2 canh len  xuong
001235 940e 06b4 	CALL _initencoder
                 ; 0001 0B26     // khai bao su dung uart
                 ; 0001 0B27     inituart();
001237 940e 0694 	CALL _inituart
                 ; 0001 0B28 
                 ; 0001 0B29     // Set interrupt timer 2
                 ; 0001 0B2A     updatePosInit();
001239 decc      	RCALL _updatePosInit
                 ; 0001 0B2B     // Set for oldPos variable
                 ; 0001 0B2C     initPos();
00123a dea5      	RCALL _initPos
                 ; 0001 0B2D 
                 ; 0001 0B2E     #asm("sei")
00123b 9478      	sei
                 ; 0001 0B2F 
                 ; 0001 0B30     //man hinh khoi dong robokit
                 ; 0001 0B31     hc(0,10);
00123c 940e 1698 	CALL SUBOPT_0x3D
00123e 940e 16a9 	CALL SUBOPT_0x40
                 ; 0001 0B32     ws("<AKBOTKIT>");
                +
001240 eae0     +LDI R30 , LOW ( _0x20300 + ( 0 ) )
001241 e0f3     +LDI R31 , HIGH ( _0x20300 + ( 0 ) )
                 	__POINTW1MN _0x20300,0
001242 940e 1566 	CALL SUBOPT_0x1E
                 ; 0001 0B33     hc(1,0);
001244 940e 16af 	CALL SUBOPT_0x41
                 ; 0001 0B34     ws("************");
                +
001246 eaeb     +LDI R30 , LOW ( _0x20300 + ( 11 ) )
001247 e0f3     +LDI R31 , HIGH ( _0x20300 + ( 11 ) )
                 	__POINTW1MN _0x20300,11
001248 940e 1566 	CALL SUBOPT_0x1E
                 ; 0001 0B35 
                 ; 0001 0B36     //robotwhiteline();
                 ; 0001 0B37     //robotblackline();
                 ; 0001 0B38     //kiem tra neu nhan va giu nut trai se vao chuong trinh selftest (kiem tra hoat dong cua robot)
                 ; 0001 0B39     while (keyKT==0)
                 _0x20301:
00124a 9998      	SBIC 0x13,0
00124b c01d      	RJMP _0x20303
                 ; 0001 0B3A     {
                 ; 0001 0B3B       cntselftest++;
00124c eba7      	LDI  R26,LOW(_cntselftest)
00124d e0b4      	LDI  R27,HIGH(_cntselftest)
00124e 940e 162c 	CALL SUBOPT_0x2B
                 ; 0001 0B3C       if(cntselftest>10)
001250 91a0 04b7 	LDS  R26,_cntselftest
001252 91b0 04b8 	LDS  R27,_cntselftest+1
001254 971b      	SBIW R26,11
001255 f070      	BRLO _0x20304
                 ; 0001 0B3D       {
                 ; 0001 0B3E            while (keyKT==0);//CHO NHA NUT AN
                 _0x20305:
001256 9b98      	SBIS 0x13,0
001257 cffe      	RJMP _0x20305
                 ; 0001 0B3F            cntselftest=0;
001258 e0e0      	LDI  R30,LOW(0)
001259 93e0 04b7 	STS  _cntselftest,R30
00125b 93e0 04b8 	STS  _cntselftest+1,R30
                 ; 0001 0B40            flagselftest=1;
00125d e0e1      	LDI  R30,LOW(1)
00125e e0f0      	LDI  R31,HIGH(1)
00125f 93e0 04b5 	STS  _flagselftest,R30
001261 93f0 04b6 	STS  _flagselftest+1,R31
                 ; 0001 0B41            selftest();
001263 ddc1      	RCALL _selftest
                 ; 0001 0B42       }
                 ; 0001 0B43       delay_ms(100);
                 _0x20304:
001264 e6e4      	LDI  R30,LOW(100)
001265 e0f0      	LDI  R31,HIGH(100)
001266 940e 1799 	CALL SUBOPT_0x6A
                 ; 0001 0B44     }
001268 cfe1      	RJMP _0x20301
                 _0x20303:
                 ; 0001 0B45 
                 ; 0001 0B46     // vao chuong trinh chinh sau khi bo qua phan selftest
                 ; 0001 0B47     hc(2,0);
001269 940e 1782 	CALL SUBOPT_0x65
                 ; 0001 0B48     ws("MAIN PROGRAM");
                +
00126b ebe8     +LDI R30 , LOW ( _0x20300 + ( 24 ) )
00126c e0f3     +LDI R31 , HIGH ( _0x20300 + ( 24 ) )
                 	__POINTW1MN _0x20300,24
00126d 940e 1566 	CALL SUBOPT_0x1E
                 ; 0001 0B49     settoadoHomRB();
00126f 940e 0737 	CALL _settoadoHomRB
                 ; 0001 0B4A 
                 ; 0001 0B4B     // code you here
                 ; 0001 0B4C 
                 ; 0001 0B4D     while (1)
                 _0x20308:
                 ; 0001 0B4E     {
                 ; 0001 0B4F         #ifdef !DEBUG_MODE
                 ; 0001 0B50         {
                 ; 0001 0B51      //LEDR=!LEDR;
                 ; 0001 0B52      //PHUC
                 ; 0001 0B53 ////     //=========================================================   PHUC ID
                 ; 0001 0B54 //         chay theo banh co dinh huong tan cong
                 ; 0001 0B55         readposition();
                 ; 0001 0B56         calcvitri(0,0);    // de xac dinh huong tan cong
                 ; 0001 0B57 
                 ; 0001 0B58         //flagtancong=1;
                 ; 0001 0B59         if(flagtancong==1)
                 ; 0001 0B5A         {
                 ; 0001 0B5B             flagtask=2;
                 ; 0001 0B5C             rb_wait(50);
                 ; 0001 0B5D 
                 ; 0001 0B5E         }else
                 ; 0001 0B5F         {
                 ; 0001 0B60             if(offsetphongthu<0)    offsetphongthu=-offsetphongthu;//lay do lon
                 ; 0001 0B61             if(robotctrl.ball.y <= 0)
                 ; 0001 0B62             {
                 ; 0001 0B63                 setRobotX = robotctrl.ball.x;
                 ; 0001 0B64                 setRobotY = robotctrl.ball.y + offsetphongthu;
                 ; 0001 0B65 
                 ; 0001 0B66                 flagtask=0;
                 ; 0001 0B67                 rb_wait(200);
                 ; 0001 0B68 
                 ; 0001 0B69             }else
                 ; 0001 0B6A             {
                 ; 0001 0B6B                 setRobotX = robotctrl.ball.x;
                 ; 0001 0B6C                 setRobotY = robotctrl.ball.y - offsetphongthu;
                 ; 0001 0B6D 
                 ; 0001 0B6E                 flagtask=0;
                 ; 0001 0B6F                 rb_wait(200);
                 ; 0001 0B70 
                 ; 0001 0B71             }
                 ; 0001 0B72 
                 ; 0001 0B73              setRobotX = robotctrl.ball.x+offsetphongthu;
                 ; 0001 0B74              setRobotY = robotctrl.ball.y;
                 ; 0001 0B75              rb_wait(200);
                 ; 0001 0B76              rb_goball();
                 ; 0001 0B77              rb_wait(200);
                 ; 0001 0B78         }
                 ; 0001 0B79         ctrrobot();// can phai luon luon chay de dieu khien robot
                 ; 0001 0B7A         }
                 ; 0001 0B7B         #else
                 ; 0001 0B7C         {
                 ; 0001 0B7D 
                 ; 0001 0B7E 	        #ifdef DEBUG_EN
                 ; 0001 0B7F             {
                 ; 0001 0B80                 char dbgLen;
                 ; 0001 0B81                 // left speed
                 ; 0001 0B82                 dbgLen=sprintf(debugMsgBuff,"Left Speed: %d \n\r", leftSpeed);
                 ; 0001 0B83                 debug_out(debugMsgBuff,dbgLen);
                 ; 0001 0B84 
                 ; 0001 0B85                 dbgLen=sprintf(debugMsgBuff,"Right Speed: %d \n\n\r", rightSpeed);
                 ; 0001 0B86                 debug_out(debugMsgBuff,dbgLen);
                 ; 0001 0B87             }
                 ; 0001 0B88             #endif
                 ; 0001 0B89 
                 ; 0001 0B8A             movePoint(robotctrl, 0, 0, 0, 'f');
001271 e3ef      	LDI  R30,LOW(_robotctrl)
001272 e0f4      	LDI  R31,HIGH(_robotctrl)
001273 e0ae      	LDI  R26,14
001274 940e 1a99 	CALL __PUTPARL
001276 940e 1698 	CALL SUBOPT_0x3D
001278 940e 1698 	CALL SUBOPT_0x3D
00127a 940e 1698 	CALL SUBOPT_0x3D
00127c e6e6      	LDI  R30,LOW(102)
00127d 93ea      	ST   -Y,R30
00127e 940e 03c2 	CALL _movePoint
                 ; 0001 0B8B             setSpeed(leftSpeed, rightSpeed);
001280 91e0 04b9 	LDS  R30,_leftSpeed
001282 91f0 04ba 	LDS  R31,_leftSpeed+1
001284 93fa      	ST   -Y,R31
001285 93ea      	ST   -Y,R30
001286 91e0 04bb 	LDS  R30,_rightSpeed
001288 91f0 04bc 	LDS  R31,_rightSpeed+1
00128a 93fa      	ST   -Y,R31
00128b 93ea      	ST   -Y,R30
00128c 940e 0399 	CALL _setSpeed
                 ; 0001 0B8C 
                 ; 0001 0B8D         }
                 ; 0001 0B8E         #endif
                 ; 0001 0B8F      } //end while(1)
00128e cfe2      	RJMP _0x20308
                 ; 0001 0B90 }
                 _0x2030B:
00128f cfff      	RJMP _0x2030B
                 
                 	.DSEG
                 _0x20300:
0003a0           	.BYTE 0x25
                 ;
                 
                 	.CSEG
                 	#ifndef __SLEEP_DEFINED__
                 	#endif
                 
                 	.CSEG
                 _spi:
001290 81e8      	LD   R30,Y
001291 b9ef      	OUT  0xF,R30
                 _0x2020003:
001292 9b77      	SBIS 0xE,7
001293 cffe      	RJMP _0x2020003
001294 b1ef      	IN   R30,0xF
001295 9621      	ADIW R28,1
001296 9508      	RET
                 	#ifndef __SLEEP_DEFINED__
                 	#endif
                 
                 	.CSEG
                 
                 	.CSEG
                 _ftrunc:
001297 817b         ldd  r23,y+3
001298 816a         ldd  r22,y+2
001299 81f9         ldd  r31,y+1
00129a 81e8         ld   r30,y
00129b fb77         bst  r23,7
00129c 0f77         lsl  r23
00129d fd67         sbrc r22,7
00129e 6071         sbr  r23,1
00129f 2f97         mov  r25,r23
0012a0 579e         subi r25,0x7e
0012a1 f081         breq __ftrunc0
0012a2 f078         brcs __ftrunc0
0012a3 3198         cpi  r25,24
0012a4 f490         brsh __ftrunc1
0012a5 27aa         clr  r26
0012a6 27bb         clr  r27
0012a7 2788         clr  r24
                 __ftrunc2:
0012a8 9408         sec
0012a9 9587         ror  r24
0012aa 95b7         ror  r27
0012ab 95a7         ror  r26
0012ac 959a         dec  r25
0012ad f7d1         brne __ftrunc2
0012ae 23ea         and  r30,r26
0012af 23fb         and  r31,r27
0012b0 2368         and  r22,r24
0012b1 c005         rjmp __ftrunc1
                 __ftrunc0:
0012b2 94e8         clt
0012b3 2777         clr  r23
0012b4 27ee         clr  r30
0012b5 27ff         clr  r31
0012b6 2766         clr  r22
                 __ftrunc1:
0012b7 776f         cbr  r22,0x80
0012b8 9576         lsr  r23
0012b9 f408         brcc __ftrunc3
0012ba 6860         sbr  r22,0x80
                 __ftrunc3:
0012bb f977         bld  r23,7
0012bc 91a9         ld   r26,y+
0012bd 91b9         ld   r27,y+
0012be 9189         ld   r24,y+
0012bf 9199         ld   r25,y+
0012c0 17ea         cp   r30,r26
0012c1 07fb         cpc  r31,r27
0012c2 0768         cpc  r22,r24
0012c3 0779         cpc  r23,r25
0012c4 fb97         bst  r25,7
0012c5 9508         ret
                 _floor:
0012c6 940e 17b9 	CALL SUBOPT_0x6F
0012c8 940e 17bc 	CALL SUBOPT_0x70
0012ca f419          brne __floor1
                 __floor0:
0012cb 940e 17b9 	CALL SUBOPT_0x6F
0012cd c163      	RJMP _0x20C0002
                 __floor1:
0012ce f7e6          brtc __floor0
0012cf 940e 17c3 	CALL SUBOPT_0x71
0012d1 940e 18b9 	CALL __SUBF12
0012d3 c15d      	RJMP _0x20C0002
                 _ceil:
0012d4 940e 17b9 	CALL SUBOPT_0x6F
0012d6 940e 17bc 	CALL SUBOPT_0x70
0012d8 f419          brne __ceil1
                 __ceil0:
0012d9 940e 17b9 	CALL SUBOPT_0x6F
0012db c155      	RJMP _0x20C0002
                 __ceil1:
0012dc f3e6          brts __ceil0
0012dd 940e 17c3 	CALL SUBOPT_0x71
0012df c14f      	RJMP _0x20C0003
                 _fmod:
0012e0 9724      	SBIW R28,4
0012e1 940e 14a2 	CALL SUBOPT_0x4
0012e3 940e 1abd 	CALL __CPD10
0012e5 f429      	BRNE _0x2060005
                +
0012e6 e0e0     +LDI R30 , LOW ( 0x0 )
0012e7 e0f0     +LDI R31 , HIGH ( 0x0 )
0012e8 e060     +LDI R22 , BYTE3 ( 0x0 )
0012e9 e070     +LDI R23 , BYTE4 ( 0x0 )
                 	__GETD1N 0x0
0012ea c191      	RJMP _0x20C0001
                 _0x2060005:
0012eb 940e 17c9 	CALL SUBOPT_0x72
0012ed 940e 17b9 	CALL SUBOPT_0x6F
0012ef 940e 1abd 	CALL __CPD10
0012f1 f429      	BRNE _0x2060006
                +
0012f2 e0e0     +LDI R30 , LOW ( 0x0 )
0012f3 e0f0     +LDI R31 , HIGH ( 0x0 )
0012f4 e060     +LDI R22 , BYTE3 ( 0x0 )
0012f5 e070     +LDI R23 , BYTE4 ( 0x0 )
                 	__GETD1N 0x0
0012f6 c185      	RJMP _0x20C0001
                 _0x2060006:
0012f7 940e 17d0 	CALL SUBOPT_0x73
0012f9 940e 1ac5 	CALL __CPD02
0012fb f424      	BRGE _0x2060007
0012fc 940e 17d3 	CALL SUBOPT_0x74
0012fe dfc7      	RCALL _floor
0012ff c003      	RJMP _0x2060033
                 _0x2060007:
001300 940e 17d3 	CALL SUBOPT_0x74
001302 dfd1      	RCALL _ceil
                 _0x2060033:
001303 940e 1a8f 	CALL __PUTD1S0
001305 940e 17b9 	CALL SUBOPT_0x6F
001307 940e 17d7 	CALL SUBOPT_0x75
001309 940e 1910 	CALL __MULF12
00130b 940e 173b 	CALL SUBOPT_0x5A
00130d 940e 14e9 	CALL SUBOPT_0xF
00130f c16c      	RJMP _0x20C0001
                 _sin:
001310 9724      	SBIW R28,4
001311 931a      	ST   -Y,R17
001312 e010      	LDI  R17,0
001313 940e 17dc 	CALL SUBOPT_0x76
                +
001315 e8e3     +LDI R30 , LOW ( 0x3E22F983 )
001316 eff9     +LDI R31 , HIGH ( 0x3E22F983 )
001317 e262     +LDI R22 , BYTE3 ( 0x3E22F983 )
001318 e37e     +LDI R23 , BYTE4 ( 0x3E22F983 )
                 	__GETD1N 0x3E22F983
001319 940e 1910 	CALL __MULF12
00131b 940e 17e1 	CALL SUBOPT_0x77
00131d 940e 17e6 	CALL SUBOPT_0x78
00131f 940e 1a94 	CALL __PUTPARD1
001321 dfa4      	RCALL _floor
001322 940e 17dc 	CALL SUBOPT_0x76
001324 940e 14e9 	CALL SUBOPT_0xF
001326 940e 17e1 	CALL SUBOPT_0x77
001328 940e 17eb 	CALL SUBOPT_0x79
00132a 940e 19a3 	CALL __CMPF12
00132c f009      	BREQ PC+2
00132d f410      	BRCC PC+3
00132e 940c 133b 	JMP  _0x2060017
001330 940e 17e6 	CALL SUBOPT_0x78
                +
001332 e0a0     +LDI R26 , LOW ( 0x3F000000 )
001333 e0b0     +LDI R27 , HIGH ( 0x3F000000 )
001334 e080     +LDI R24 , BYTE3 ( 0x3F000000 )
001335 e39f     +LDI R25 , BYTE4 ( 0x3F000000 )
                 	__GETD2N 0x3F000000
001336 940e 18b9 	CALL __SUBF12
001338 940e 17e1 	CALL SUBOPT_0x77
00133a e011      	LDI  R17,LOW(1)
                 _0x2060017:
00133b 940e 17dc 	CALL SUBOPT_0x76
                +
00133d e0e0     +LDI R30 , LOW ( 0x3E800000 )
00133e e0f0     +LDI R31 , HIGH ( 0x3E800000 )
00133f e860     +LDI R22 , BYTE3 ( 0x3E800000 )
001340 e37e     +LDI R23 , BYTE4 ( 0x3E800000 )
                 	__GETD1N 0x3E800000
001341 940e 19a3 	CALL __CMPF12
001343 f009      	BREQ PC+2
001344 f410      	BRCC PC+3
001345 940c 134d 	JMP  _0x2060018
001347 940e 17eb 	CALL SUBOPT_0x79
001349 940e 18b9 	CALL __SUBF12
00134b 940e 17e1 	CALL SUBOPT_0x77
                 _0x2060018:
00134d 3010      	CPI  R17,0
00134e f031      	BREQ _0x2060019
00134f 940e 17e6 	CALL SUBOPT_0x78
001351 940e 181a 	CALL __ANEGF1
001353 940e 17e1 	CALL SUBOPT_0x77
                 _0x2060019:
001355 940e 17e6 	CALL SUBOPT_0x78
001357 940e 17dc 	CALL SUBOPT_0x76
001359 940e 1910 	CALL __MULF12
                +
00135b 83e9     +STD Y + 1 , R30
00135c 83fa     +STD Y + 1 + 1 , R31
00135d 836b     +STD Y + 1 + 2 , R22
00135e 837c     +STD Y + 1 + 3 , R23
                 	__PUTD1S 1
                +
00135f eba1     +LDI R26 , LOW ( 0x4226C4B1 )
001360 ecb4     +LDI R27 , HIGH ( 0x4226C4B1 )
001361 e286     +LDI R24 , BYTE3 ( 0x4226C4B1 )
001362 e492     +LDI R25 , BYTE4 ( 0x4226C4B1 )
                 	__GETD2N 0x4226C4B1
001363 940e 1910 	CALL __MULF12
001365 01df      	MOVW R26,R30
001366 01cb      	MOVW R24,R22
                +
001367 e1ed     +LDI R30 , LOW ( 0x422DE51D )
001368 eef5     +LDI R31 , HIGH ( 0x422DE51D )
001369 e26d     +LDI R22 , BYTE3 ( 0x422DE51D )
00136a e472     +LDI R23 , BYTE4 ( 0x422DE51D )
                 	__GETD1N 0x422DE51D
00136b 940e 14e9 	CALL SUBOPT_0xF
00136d 940e 17f1 	CALL SUBOPT_0x7A
                +
00136f e4ac     +LDI R26 , LOW ( 0x4104534C )
001370 e5b3     +LDI R27 , HIGH ( 0x4104534C )
001371 e084     +LDI R24 , BYTE3 ( 0x4104534C )
001372 e491     +LDI R25 , BYTE4 ( 0x4104534C )
                 	__GETD2N 0x4104534C
001373 940e 18c0 	CALL __ADDF12
001375 940e 17dc 	CALL SUBOPT_0x76
001377 940e 1910 	CALL __MULF12
001379 937f      	PUSH R23
00137a 936f      	PUSH R22
00137b 93ff      	PUSH R31
00137c 93ef      	PUSH R30
                +
00137d 81e9     +LDD R30 , Y + 1
00137e 81fa     +LDD R31 , Y + 1 + 1
00137f 816b     +LDD R22 , Y + 1 + 2
001380 817c     +LDD R23 , Y + 1 + 3
                 	__GETD1S 1
                +
001381 e1a1     +LDI R26 , LOW ( 0x3FDEED11 )
001382 eebd     +LDI R27 , HIGH ( 0x3FDEED11 )
001383 ed8e     +LDI R24 , BYTE3 ( 0x3FDEED11 )
001384 e39f     +LDI R25 , BYTE4 ( 0x3FDEED11 )
                 	__GETD2N 0x3FDEED11
001385 940e 18c0 	CALL __ADDF12
001387 940e 17f1 	CALL SUBOPT_0x7A
                +
001389 e5ae     +LDI R26 , LOW ( 0x3FA87B5E )
00138a e7bb     +LDI R27 , HIGH ( 0x3FA87B5E )
00138b ea88     +LDI R24 , BYTE3 ( 0x3FA87B5E )
00138c e39f     +LDI R25 , BYTE4 ( 0x3FA87B5E )
                 	__GETD2N 0x3FA87B5E
00138d 940e 18c0 	CALL __ADDF12
00138f 91af      	POP  R26
001390 91bf      	POP  R27
001391 918f      	POP  R24
001392 919f      	POP  R25
001393 940e 195e 	CALL __DIVF21
001395 8118      	LDD  R17,Y+0
001396 9629      	ADIW R28,9
001397 9508      	RET
                 _cos:
001398 940e 17d0 	CALL SUBOPT_0x73
                +
00139a edeb     +LDI R30 , LOW ( 0x3FC90FDB )
00139b e0ff     +LDI R31 , HIGH ( 0x3FC90FDB )
00139c ec69     +LDI R22 , BYTE3 ( 0x3FC90FDB )
00139d e37f     +LDI R23 , BYTE4 ( 0x3FC90FDB )
                 	__GETD1N 0x3FC90FDB
00139e 940e 18b9 	CALL __SUBF12
0013a0 940e 1a94 	CALL __PUTPARD1
0013a2 df6d      	RCALL _sin
0013a3 c08d      	RJMP _0x20C0002
                 _tan:
0013a4 9724      	SBIW R28,4
0013a5 940e 14a2 	CALL SUBOPT_0x4
0013a7 940e 1a94 	CALL __PUTPARD1
0013a9 dfee      	RCALL _cos
0013aa 940e 1a8f 	CALL __PUTD1S0
0013ac 940e 1abd 	CALL __CPD10
0013ae f479      	BRNE _0x206001A
0013af 940e 17d7 	CALL SUBOPT_0x75
0013b1 940e 1ac5 	CALL __CPD02
0013b3 f42c      	BRGE _0x206001B
                +
0013b4 efef     +LDI R30 , LOW ( 0x7F7FFFFF )
0013b5 efff     +LDI R31 , HIGH ( 0x7F7FFFFF )
0013b6 e76f     +LDI R22 , BYTE3 ( 0x7F7FFFFF )
0013b7 e77f     +LDI R23 , BYTE4 ( 0x7F7FFFFF )
                 	__GETD1N 0x7F7FFFFF
0013b8 c03a      	RJMP _0x20C0005
                 _0x206001B:
                +
0013b9 efef     +LDI R30 , LOW ( 0xFF7FFFFF )
0013ba efff     +LDI R31 , HIGH ( 0xFF7FFFFF )
0013bb e76f     +LDI R22 , BYTE3 ( 0xFF7FFFFF )
0013bc ef7f     +LDI R23 , BYTE4 ( 0xFF7FFFFF )
                 	__GETD1N 0xFF7FFFFF
0013bd c035      	RJMP _0x20C0005
                 _0x206001A:
0013be 940e 14a2 	CALL SUBOPT_0x4
0013c0 940e 1a94 	CALL __PUTPARD1
0013c2 df4d      	RCALL _sin
0013c3 01df      	MOVW R26,R30
0013c4 01cb      	MOVW R24,R22
0013c5 940e 17b9 	CALL SUBOPT_0x6F
0013c7 c029      	RJMP _0x20C0004
                 _xatan:
0013c8 9724      	SBIW R28,4
0013c9 940e 14a2 	CALL SUBOPT_0x4
0013cb 940e 17d7 	CALL SUBOPT_0x75
0013cd 940e 1910 	CALL __MULF12
0013cf 940e 1a8f 	CALL __PUTD1S0
0013d1 940e 17b9 	CALL SUBOPT_0x6F
                +
0013d3 e6a5     +LDI R26 , LOW ( 0x40CBD065 )
0013d4 edb0     +LDI R27 , HIGH ( 0x40CBD065 )
0013d5 ec8b     +LDI R24 , BYTE3 ( 0x40CBD065 )
0013d6 e490     +LDI R25 , BYTE4 ( 0x40CBD065 )
                 	__GETD2N 0x40CBD065
0013d7 940e 17f8 	CALL SUBOPT_0x7B
0013d9 940e 17d7 	CALL SUBOPT_0x75
0013db 940e 1910 	CALL __MULF12
0013dd 937f      	PUSH R23
0013de 936f      	PUSH R22
0013df 93ff      	PUSH R31
0013e0 93ef      	PUSH R30
0013e1 940e 17b9 	CALL SUBOPT_0x6F
                +
0013e3 e0a0     +LDI R26 , LOW ( 0x41296D00 )
0013e4 e6bd     +LDI R27 , HIGH ( 0x41296D00 )
0013e5 e289     +LDI R24 , BYTE3 ( 0x41296D00 )
0013e6 e491     +LDI R25 , BYTE4 ( 0x41296D00 )
                 	__GETD2N 0x41296D00
0013e7 940e 18c0 	CALL __ADDF12
0013e9 940e 17d0 	CALL SUBOPT_0x73
0013eb 940e 17f8 	CALL SUBOPT_0x7B
0013ed 91af      	POP  R26
0013ee 91bf      	POP  R27
0013ef 918f      	POP  R24
0013f0 919f      	POP  R25
                 _0x20C0004:
0013f1 940e 195e 	CALL __DIVF21
                 _0x20C0005:
0013f3 9628      	ADIW R28,8
0013f4 9508      	RET
                 _yatan:
0013f5 940e 17d0 	CALL SUBOPT_0x73
                +
0013f7 eced     +LDI R30 , LOW ( 0x3ED413CD )
0013f8 e1f3     +LDI R31 , HIGH ( 0x3ED413CD )
0013f9 ed64     +LDI R22 , BYTE3 ( 0x3ED413CD )
0013fa e37e     +LDI R23 , BYTE4 ( 0x3ED413CD )
                 	__GETD1N 0x3ED413CD
0013fb 940e 19a3 	CALL __CMPF12
0013fd f420      	BRSH _0x2060020
0013fe 940e 17d3 	CALL SUBOPT_0x74
001400 dfc7      	RCALL _xatan
001401 c02f      	RJMP _0x20C0002
                 _0x2060020:
001402 940e 17d0 	CALL SUBOPT_0x73
                +
001404 e7ea     +LDI R30 , LOW ( 0x401A827A )
001405 e8f2     +LDI R31 , HIGH ( 0x401A827A )
001406 e16a     +LDI R22 , BYTE3 ( 0x401A827A )
001407 e470     +LDI R23 , BYTE4 ( 0x401A827A )
                 	__GETD1N 0x401A827A
001408 940e 19a3 	CALL __CMPF12
00140a f009      	BREQ PC+2
00140b f410      	BRCC PC+3
00140c 940c 1419 	JMP  _0x2060021
00140e 940e 17c3 	CALL SUBOPT_0x71
001410 940e 1801 	CALL SUBOPT_0x7C
                +
001412 edab     +LDI R26 , LOW ( 0x3FC90FDB )
001413 e0bf     +LDI R27 , HIGH ( 0x3FC90FDB )
001414 ec89     +LDI R24 , BYTE3 ( 0x3FC90FDB )
001415 e39f     +LDI R25 , BYTE4 ( 0x3FC90FDB )
                 	__GETD2N 0x3FC90FDB
001416 940e 14e9 	CALL SUBOPT_0xF
001418 c018      	RJMP _0x20C0002
                 _0x2060021:
001419 940e 17c3 	CALL SUBOPT_0x71
00141b 940e 18b9 	CALL __SUBF12
00141d 937f      	PUSH R23
00141e 936f      	PUSH R22
00141f 93ff      	PUSH R31
001420 93ef      	PUSH R30
001421 940e 17c3 	CALL SUBOPT_0x71
001423 940e 18c0 	CALL __ADDF12
001425 91af      	POP  R26
001426 91bf      	POP  R27
001427 918f      	POP  R24
001428 919f      	POP  R25
001429 940e 1801 	CALL SUBOPT_0x7C
                +
00142b edab     +LDI R26 , LOW ( 0x3F490FDB )
00142c e0bf     +LDI R27 , HIGH ( 0x3F490FDB )
00142d e489     +LDI R24 , BYTE3 ( 0x3F490FDB )
00142e e39f     +LDI R25 , BYTE4 ( 0x3F490FDB )
                 	__GETD2N 0x3F490FDB
                 _0x20C0003:
00142f 940e 18c0 	CALL __ADDF12
                 _0x20C0002:
001431 9624      	ADIW R28,4
001432 9508      	RET
                 _atan2:
001433 9724      	SBIW R28,4
001434 940e 14a2 	CALL SUBOPT_0x4
001436 940e 1abd 	CALL __CPD10
001438 f4d9      	BRNE _0x206002D
                +
001439 85e8     +LDD R30 , Y + 8
00143a 85f9     +LDD R31 , Y + 8 + 1
00143b 856a     +LDD R22 , Y + 8 + 2
00143c 857b     +LDD R23 , Y + 8 + 3
                 	__GETD1S 8
00143d 940e 1abd 	CALL __CPD10
00143f f429      	BRNE _0x206002E
                +
001440 efef     +LDI R30 , LOW ( 0x7F7FFFFF )
001441 efff     +LDI R31 , HIGH ( 0x7F7FFFFF )
001442 e76f     +LDI R22 , BYTE3 ( 0x7F7FFFFF )
001443 e77f     +LDI R23 , BYTE4 ( 0x7F7FFFFF )
                 	__GETD1N 0x7F7FFFFF
001444 c037      	RJMP _0x20C0001
                 _0x206002E:
001445 940e 173b 	CALL SUBOPT_0x5A
001447 940e 1ac5 	CALL __CPD02
001449 f42c      	BRGE _0x206002F
                +
00144a edeb     +LDI R30 , LOW ( 0x3FC90FDB )
00144b e0ff     +LDI R31 , HIGH ( 0x3FC90FDB )
00144c ec69     +LDI R22 , BYTE3 ( 0x3FC90FDB )
00144d e37f     +LDI R23 , BYTE4 ( 0x3FC90FDB )
                 	__GETD1N 0x3FC90FDB
00144e c02d      	RJMP _0x20C0001
                 _0x206002F:
                +
00144f edeb     +LDI R30 , LOW ( 0xBFC90FDB )
001450 e0ff     +LDI R31 , HIGH ( 0xBFC90FDB )
001451 ec69     +LDI R22 , BYTE3 ( 0xBFC90FDB )
001452 eb7f     +LDI R23 , BYTE4 ( 0xBFC90FDB )
                 	__GETD1N 0xBFC90FDB
001453 c028      	RJMP _0x20C0001
                 _0x206002D:
001454 940e 17c9 	CALL SUBOPT_0x72
001456 940e 17d7 	CALL SUBOPT_0x75
001458 940e 1ac5 	CALL __CPD02
00145a f464      	BRGE _0x2060030
00145b 85ab      	LDD  R26,Y+11
00145c 23aa      	TST  R26
00145d f022      	BRMI _0x2060031
00145e 940e 17d3 	CALL SUBOPT_0x74
001460 df94      	RCALL _yatan
001461 c01a      	RJMP _0x20C0001
                 _0x2060031:
001462 940e 1807 	CALL SUBOPT_0x7D
001464 940e 181a 	CALL __ANEGF1
001466 c015      	RJMP _0x20C0001
                 _0x2060030:
001467 85ab      	LDD  R26,Y+11
001468 23aa      	TST  R26
001469 f04a      	BRMI _0x2060032
00146a 940e 1807 	CALL SUBOPT_0x7D
                +
00146c edab     +LDI R26 , LOW ( 0x40490FDB )
00146d e0bf     +LDI R27 , HIGH ( 0x40490FDB )
00146e e489     +LDI R24 , BYTE3 ( 0x40490FDB )
00146f e490     +LDI R25 , BYTE4 ( 0x40490FDB )
                 	__GETD2N 0x40490FDB
001470 940e 14e9 	CALL SUBOPT_0xF
001472 c009      	RJMP _0x20C0001
                 _0x2060032:
001473 940e 17d3 	CALL SUBOPT_0x74
001475 df7f      	RCALL _yatan
                +
001476 edab     +LDI R26 , LOW ( 0xC0490FDB )
001477 e0bf     +LDI R27 , HIGH ( 0xC0490FDB )
001478 e489     +LDI R24 , BYTE3 ( 0xC0490FDB )
001479 ec90     +LDI R25 , BYTE4 ( 0xC0490FDB )
                 	__GETD2N 0xC0490FDB
00147a 940e 18c0 	CALL __ADDF12
                 _0x20C0001:
00147c 962c      	ADIW R28,12
00147d 9508      	RET
                 
                 	.CSEG
                 
                 	.CSEG
                 
                 	.DSEG
                 
                 	.CSEG
                 
                 	.DSEG
                 _TX_ADDRESS:
0003c5           	.BYTE 0x5
                 _RX_ADDRESS:
0003ca           	.BYTE 0x5
                 _rb:
0003cf           	.BYTE 0x1C
                 _robot11:
0003eb           	.BYTE 0xE
                 _robot12:
0003f9           	.BYTE 0xE
                 _robot13:
000407           	.BYTE 0xE
                 _robot21:
000415           	.BYTE 0xE
                 _robot22:
000423           	.BYTE 0xE
                 _robot23:
000431           	.BYTE 0xE
                 _robotctrl:
00043f           	.BYTE 0xE
                 _errangle:
00044d           	.BYTE 0x4
                 _distance:
000451           	.BYTE 0x4
                 _orentation:
000455           	.BYTE 0x4
                 _RxBuf:
000459           	.BYTE 0x20
                 _setRobotX:
000479           	.BYTE 0x4
                 _setRobotY:
00047d           	.BYTE 0x4
                 _setRobotXmin:
000481           	.BYTE 0x4
                 _setRobotXmax:
000485           	.BYTE 0x4
                 _setRobotAngleX:
000489           	.BYTE 0x4
                 _setRobotAngleY:
00048d           	.BYTE 0x4
                 _offestsanco:
000491           	.BYTE 0x4
                 _rbctrlHomeX:
000495           	.BYTE 0x4
                 _rbctrlHomeY:
000499           	.BYTE 0x4
                 _rbctrlPenaltyX:
00049d           	.BYTE 0x4
                 _rbctrlPenaltyY:
0004a1           	.BYTE 0x4
                 _rbctrlPenaltyAngle:
0004a5           	.BYTE 0x4
                 _rbctrlHomeAngle:
0004a9           	.BYTE 0x4
                 _cntsethomeRB:
0004ad           	.BYTE 0x2
                 _cntstuckRB:
0004af           	.BYTE 0x2
                 _cntunlookRB:
0004b1           	.BYTE 0x2
                 _flagsethome:
0004b3           	.BYTE 0x2
                 _flagselftest:
0004b5           	.BYTE 0x2
                 _cntselftest:
0004b7           	.BYTE 0x2
                 _leftSpeed:
0004b9           	.BYTE 0x2
                 _rightSpeed:
0004bb           	.BYTE 0x2
                 _id:
0004bd           	.BYTE 0x1
                 _IRFL:
0004be           	.BYTE 0x2
                 _IRFR:
0004c0           	.BYTE 0x2
                 _IRLINE:
0004c2           	.BYTE 0xA
                 _timerstick:
0004cc           	.BYTE 0x2
                 _timerstickdis:
0004ce           	.BYTE 0x2
                 _timerstickang:
0004d0           	.BYTE 0x2
                 _timerstickctr:
0004d2           	.BYTE 0x2
                 _vQEL:
0004d4           	.BYTE 0x2
                 _vQER:
0004d6           	.BYTE 0x2
                 _oldQEL:
0004d8           	.BYTE 0x2
                 _oldQER:
0004da           	.BYTE 0x2
                 _svQEL:
0004dc           	.BYTE 0x2
                 _svQER:
0004de           	.BYTE 0x2
                 _seRki_G001:
0004e0           	.BYTE 0x2
                 _seLki_G001:
0004e2           	.BYTE 0x2
                 _uL:
0004e4           	.BYTE 0x2
                 _uR:
0004e6           	.BYTE 0x2
                 _KpR:
0004e8           	.BYTE 0x2
                 _KiR:
0004ea           	.BYTE 0x2
                 _KpL:
0004ec           	.BYTE 0x2
                 _KiL:
0004ee           	.BYTE 0x2
                 _sd:
0004f0           	.BYTE 0x2
                 _oldd:
0004f2           	.BYTE 0x2
                 _flagwaitctrRobot:
0004f4           	.BYTE 0x1
                 _sa:
0004f5           	.BYTE 0x2
                 _olda:
0004f7           	.BYTE 0x2
                 _flagwaitctrAngle:
0004f9           	.BYTE 0x1
                 _flagtask:
0004fa           	.BYTE 0x2
                 _flagtaskold:
0004fc           	.BYTE 0x2
                 _flaghuongtrue:
0004fe           	.BYTE 0x2
                 _verranglekisum:
000500           	.BYTE 0x2
                 _QEL:
000502           	.BYTE 0x2
                 _QER:
000504           	.BYTE 0x2
                 _rx_buffer:
000506           	.BYTE 0x8
                 _rx_wr_index:
00050e           	.BYTE 0x1
                 _rx_rd_index:
00050f           	.BYTE 0x1
                 _rx_counter:
000510           	.BYTE 0x1
                 _tx_buffer:
000511           	.BYTE 0x8
                 _tx_wr_index:
000519           	.BYTE 0x1
                 _tx_rd_index:
00051a           	.BYTE 0x1
                 _tx_counter:
00051b           	.BYTE 0x1
                 _timer2Count:
00051c           	.BYTE 0x1
                 _posUpdateFlag:
00051d           	.BYTE 0x1
                 _oldPos:
00051e           	.BYTE 0x4
                 __seed_G105:
000522           	.BYTE 0x4
                 
                 	.CSEG
                 ;OPTIMIZER ADDED SUBROUTINE, CALLED 2 TIMES, CODE SIZE REDUCTION:3 WORDS
                 SUBOPT_0x0:
00147e 93fa      	ST   -Y,R31
00147f 93ea      	ST   -Y,R30
001480 e0e5      	LDI  R30,LOW(5)
001481 e0f0      	LDI  R31,HIGH(5)
001482 93fa      	ST   -Y,R31
001483 93ea      	ST   -Y,R30
001484 940c 0323 	JMP  _SPI_Write_Buf
                 
                 ;OPTIMIZER ADDED SUBROUTINE, CALLED 4 TIMES, CODE SIZE REDUCTION:3 WORDS
                 SUBOPT_0x1:
001486 93ea      	ST   -Y,R30
001487 940e 02e5 	CALL _SPI_RW
001489 2f1e      	MOV  R17,R30
00148a 9508      	RET
                 
                 ;OPTIMIZER ADDED SUBROUTINE, CALLED 2 TIMES, CODE SIZE REDUCTION:14 WORDS
                 SUBOPT_0x2:
00148b 9724      	SBIW R28,4
                +
00148c 85ec     +LDD R30 , Y + 12
00148d 85fd     +LDD R31 , Y + 12 + 1
00148e 856e     +LDD R22 , Y + 12 + 2
00148f 857f     +LDD R23 , Y + 12 + 3
                 	__GETD1S 12
001490 940e 1a8f 	CALL __PUTD1S0
                +
001492 85e8     +LDD R30 , Y + 8
001493 85f9     +LDD R31 , Y + 8 + 1
001494 856a     +LDD R22 , Y + 8 + 2
001495 857b     +LDD R23 , Y + 8 + 3
                 	__GETD1S 8
001496 940e 1a8a 	CALL __GETD2S0
001498 940e 19a3 	CALL __CMPF12
00149a 9508      	RET
                 
                 ;OPTIMIZER ADDED SUBROUTINE, CALLED 2 TIMES, CODE SIZE REDUCTION:3 WORDS
                 SUBOPT_0x3:
                +
00149b 85e8     +LDD R30 , Y + 8
00149c 85f9     +LDD R31 , Y + 8 + 1
00149d 856a     +LDD R22 , Y + 8 + 2
00149e 857b     +LDD R23 , Y + 8 + 3
                 	__GETD1S 8
00149f 940e 1a8f 	CALL __PUTD1S0
0014a1 9508      	RET
                 
                 ;OPTIMIZER ADDED SUBROUTINE, CALLED 11 TIMES, CODE SIZE REDUCTION:17 WORDS
                 SUBOPT_0x4:
                +
0014a2 81ec     +LDD R30 , Y + 4
0014a3 81fd     +LDD R31 , Y + 4 + 1
0014a4 816e     +LDD R22 , Y + 4 + 2
0014a5 817f     +LDD R23 , Y + 4 + 3
                 	__GETD1S 4
0014a6 9508      	RET
                 
                 ;OPTIMIZER ADDED SUBROUTINE, CALLED 2 TIMES, CODE SIZE REDUCTION:1 WORDS
                 SUBOPT_0x5:
0014a7 940e 1a8a 	CALL __GETD2S0
0014a9 940e 19a3 	CALL __CMPF12
0014ab 9508      	RET
                 
                 ;OPTIMIZER ADDED SUBROUTINE, CALLED 2 TIMES, CODE SIZE REDUCTION:1 WORDS
                 SUBOPT_0x6:
0014ac dff5      	RCALL SUBOPT_0x4
0014ad 940e 1a8f 	CALL __PUTD1S0
0014af 9508      	RET
                 
                 ;OPTIMIZER ADDED SUBROUTINE, CALLED 7 TIMES, CODE SIZE REDUCTION:45 WORDS
                 SUBOPT_0x7:
0014b0 e0e0      	LDI  R30,LOW(0)
0014b1 93e0 04e0 	STS  _seRki_G001,R30
0014b3 93e0 04e1 	STS  _seRki_G001+1,R30
0014b5 93e0 04e2 	STS  _seLki_G001,R30
0014b7 93e0 04e3 	STS  _seLki_G001+1,R30
0014b9 9508      	RET
                 
                 ;OPTIMIZER ADDED SUBROUTINE, CALLED 3 TIMES, CODE SIZE REDUCTION:1 WORDS
                 SUBOPT_0x8:
0014ba 93e0 04dc 	STS  _svQEL,R30
0014bc 93f0 04dd 	STS  _svQEL+1,R31
0014be 9508      	RET
                 
                 ;OPTIMIZER ADDED SUBROUTINE, CALLED 13 TIMES, CODE SIZE REDUCTION:45 WORDS
                 SUBOPT_0x9:
0014bf 940e 19d9 	CALL __CWD1
0014c1 940e 1886 	CALL __CDF1
0014c3 940e 1a94 	CALL __PUTPARD1
0014c5 9508      	RET
                 
                 ;OPTIMIZER ADDED SUBROUTINE, CALLED 10 TIMES, CODE SIZE REDUCTION:15 WORDS
                 SUBOPT_0xA:
0014c6 940e 184f 	CALL __CFD1
0014c8 93ed      	ST   X+,R30
0014c9 93fc      	ST   X,R31
0014ca 9508      	RET
                 
                 ;OPTIMIZER ADDED SUBROUTINE, CALLED 4 TIMES, CODE SIZE REDUCTION:9 WORDS
                 SUBOPT_0xB:
0014cb 89ee      	LDD  R30,Y+22
0014cc 89ff      	LDD  R31,Y+22+1
0014cd 940e 19d9 	CALL __CWD1
0014cf 940e 1886 	CALL __CDF1
0014d1 9508      	RET
                 
                 ;OPTIMIZER ADDED SUBROUTINE, CALLED 2 TIMES, CODE SIZE REDUCTION:1 WORDS
                 SUBOPT_0xC:
0014d2 8dec      	LDD  R30,Y+28
0014d3 8dfd      	LDD  R31,Y+28+1
0014d4 8da8      	LDD  R26,Y+24
0014d5 8db9      	LDD  R27,Y+24+1
0014d6 17ea      	CP   R30,R26
0014d7 07fb      	CPC  R31,R27
0014d8 9508      	RET
                 
                 ;OPTIMIZER ADDED SUBROUTINE, CALLED 3 TIMES, CODE SIZE REDUCTION:5 WORDS
                 SUBOPT_0xD:
0014d9 89ee      	LDD  R30,Y+22
0014da 89ff      	LDD  R31,Y+22+1
0014db 940e 19cd 	CALL __ANEGW1
0014dd 8bee      	STD  Y+22,R30
0014de 8bff      	STD  Y+22+1,R31
0014df 9508      	RET
                 
                 ;OPTIMIZER ADDED SUBROUTINE, CALLED 2 TIMES, CODE SIZE REDUCTION:3 WORDS
                 SUBOPT_0xE:
0014e0 01df      	MOVW R26,R30
0014e1 01cb      	MOVW R24,R22
                +
0014e2 edeb     +LDI R30 , LOW ( 0x40490FDB )
0014e3 e0ff     +LDI R31 , HIGH ( 0x40490FDB )
0014e4 e469     +LDI R22 , BYTE3 ( 0x40490FDB )
0014e5 e470     +LDI R23 , BYTE4 ( 0x40490FDB )
                 	__GETD1N 0x40490FDB
0014e6 940e 19a3 	CALL __CMPF12
0014e8 9508      	RET
                 
                 ;OPTIMIZER ADDED SUBROUTINE, CALLED 6 TIMES, CODE SIZE REDUCTION:7 WORDS
                 SUBOPT_0xF:
0014e9 940e 1aa6 	CALL __SWAPD12
0014eb 940e 18b9 	CALL __SUBF12
0014ed 9508      	RET
                 
                 ;OPTIMIZER ADDED SUBROUTINE, CALLED 4 TIMES, CODE SIZE REDUCTION:3 WORDS
                 SUBOPT_0x10:
0014ee a1e8      	LDD  R30,Y+32
0014ef a1f9      	LDD  R31,Y+32+1
0014f0 cfce      	RJMP SUBOPT_0x9
                 
                 ;OPTIMIZER ADDED SUBROUTINE, CALLED 4 TIMES, CODE SIZE REDUCTION:9 WORDS
                 SUBOPT_0x11:
0014f1 89ee      	LDD  R30,Y+22
0014f2 89ff      	LDD  R31,Y+22+1
0014f3 e1a9      	LDI  R26,LOW(25)
0014f4 e0b0      	LDI  R27,HIGH(25)
0014f5 940e 1a11 	CALL __MULW12
0014f7 9508      	RET
                 
                 ;OPTIMIZER ADDED SUBROUTINE, CALLED 6 TIMES, CODE SIZE REDUCTION:12 WORDS
                 SUBOPT_0x12:
0014f8 93ea      	ST   -Y,R30
0014f9 940e 052b 	CALL _LcdWrite
0014fb e0e0      	LDI  R30,LOW(0)
0014fc 93ea      	ST   -Y,R30
0014fd 9508      	RET
                 
                 ;OPTIMIZER ADDED SUBROUTINE, CALLED 2 TIMES, CODE SIZE REDUCTION:7 WORDS
                 SUBOPT_0x13:
0014fe 931a      	ST   -Y,R17
0014ff 930a      	ST   -Y,R16
                +
001500 e000     +LDI R16 , LOW ( 0 )
001501 e010     +LDI R17 , HIGH ( 0 )
                 	__GETWRN 16,17,0
001502 e0e1      	LDI  R30,LOW(1)
001503 93ea      	ST   -Y,R30
001504 e0e0      	LDI  R30,LOW(0)
001505 93ea      	ST   -Y,R30
001506 940e 052b 	CALL _LcdWrite
                +
001508 e000     +LDI R16 , LOW ( 0 )
001509 e010     +LDI R17 , HIGH ( 0 )
                 	__GETWRN 16,17,0
00150a 9508      	RET
                 
                 ;OPTIMIZER ADDED SUBROUTINE, CALLED 2 TIMES, CODE SIZE REDUCTION:14 WORDS
                 SUBOPT_0x14:
00150b e0e1      	LDI  R30,LOW(1)
00150c 93ea      	ST   -Y,R30
00150d 81eb      	LDD  R30,Y+3
00150e e0f0      	LDI  R31,0
00150f 97b0      	SBIW R30,32
001510 e0a5      	LDI  R26,LOW(5)
001511 e0b0      	LDI  R27,HIGH(5)
001512 940e 19e9 	CALL __MULW12U
001514 5aec      	SUBI R30,LOW(-_ASCII*2)
001515 4fff      	SBCI R31,HIGH(-_ASCII*2)
001516 0fe0      	ADD  R30,R16
001517 1ff1      	ADC  R31,R17
001518 91e4      	LPM  R30,Z
001519 93ea      	ST   -Y,R30
00151a 940c 052b 	JMP  _LcdWrite
                 
                 ;OPTIMIZER ADDED SUBROUTINE, CALLED 3 TIMES, CODE SIZE REDUCTION:3 WORDS
                 SUBOPT_0x15:
00151c 93ea      	ST   -Y,R30
00151d e0e0      	LDI  R30,LOW(0)
00151e 93ea      	ST   -Y,R30
00151f 940c 052b 	JMP  _LcdWrite
                 
                 ;OPTIMIZER ADDED SUBROUTINE, CALLED 2 TIMES, CODE SIZE REDUCTION:1 WORDS
                 SUBOPT_0x16:
001521 931a      	ST   -Y,R17
001522 930a      	ST   -Y,R16
                +
001523 e000     +LDI R16 , LOW ( 0 )
001524 e010     +LDI R17 , HIGH ( 0 )
                 	__GETWRN 16,17,0
                +
001525 e000     +LDI R16 , LOW ( 0 )
001526 e010     +LDI R17 , HIGH ( 0 )
                 	__GETWRN 16,17,0
001527 9508      	RET
                 
                 ;OPTIMIZER ADDED SUBROUTINE, CALLED 22 TIMES, CODE SIZE REDUCTION:123 WORDS
                 SUBOPT_0x17:
001528 93fa      	ST   -Y,R31
001529 93ea      	ST   -Y,R30
00152a e0e0      	LDI  R30,LOW(0)
00152b e0f0      	LDI  R31,HIGH(0)
00152c 93fa      	ST   -Y,R31
00152d 93ea      	ST   -Y,R30
00152e 940c 0538 	JMP  _hc
                 
                 ;OPTIMIZER ADDED SUBROUTINE, CALLED 5 TIMES, CODE SIZE REDUCTION:5 WORDS
                 SUBOPT_0x18:
001530 2fe1      	MOV  R30,R17
001531 e0f0      	LDI  R31,0
001532 9508      	RET
                 
                 ;OPTIMIZER ADDED SUBROUTINE, CALLED 2 TIMES, CODE SIZE REDUCTION:16 WORDS
                 SUBOPT_0x19:
001533 01de      	MOVW R26,R28
001534 9611      	ADIW R26,1
001535 0fea      	ADD  R30,R26
001536 1ffb      	ADC  R31,R27
001537 01bf      	MOVW R22,R30
001538 81ae      	LDD  R26,Y+6
001539 81bf      	LDD  R27,Y+6+1
00153a e0ea      	LDI  R30,LOW(10)
00153b e0f0      	LDI  R31,HIGH(10)
00153c 940e 1a5d 	CALL __MODW21U
00153e 01db      	MOVW R26,R22
00153f 93ec      	ST   X,R30
001540 81ae      	LDD  R26,Y+6
001541 81bf      	LDD  R27,Y+6+1
001542 e0ea      	LDI  R30,LOW(10)
001543 e0f0      	LDI  R31,HIGH(10)
001544 940e 1a1b 	CALL __DIVW21U
001546 83ee      	STD  Y+6,R30
001547 83ff      	STD  Y+6+1,R31
001548 9508      	RET
                 
                 ;OPTIMIZER ADDED SUBROUTINE, CALLED 2 TIMES, CODE SIZE REDUCTION:8 WORDS
                 SUBOPT_0x1A:
001549 e0a4      	LDI  R26,LOW(4)
00154a e0b0      	LDI  R27,HIGH(4)
00154b 940e 1aac 	CALL __SWAPW12
00154d 1bea      	SUB  R30,R26
00154e 0bfb      	SBC  R31,R27
00154f 01de      	MOVW R26,R28
001550 9611      	ADIW R26,1
001551 0fae      	ADD  R26,R30
001552 1fbf      	ADC  R27,R31
001553 91ec      	LD   R30,X
001554 5de0      	SUBI R30,-LOW(48)
001555 93ea      	ST   -Y,R30
001556 9508      	RET
                 
                 ;OPTIMIZER ADDED SUBROUTINE, CALLED 2 TIMES, CODE SIZE REDUCTION:1 WORDS
                 SUBOPT_0x1B:
001557 eee8      	LDI  R30,LOW(1000)
001558 e0f3      	LDI  R31,HIGH(1000)
001559 93fa      	ST   -Y,R31
00155a 93ea      	ST   -Y,R30
00155b 940c 180e 	JMP  _delay_ms
                 
                 ;OPTIMIZER ADDED SUBROUTINE, CALLED 4 TIMES, CODE SIZE REDUCTION:3 WORDS
                 SUBOPT_0x1C:
00155d 1bea      	SUB  R30,R26
00155e 0bfb      	SBC  R31,R27
00155f 83e8      	ST   Y,R30
001560 83f9      	STD  Y+1,R31
001561 9508      	RET
                 
                 ;OPTIMIZER ADDED SUBROUTINE, CALLED 5 TIMES, CODE SIZE REDUCTION:5 WORDS
                 SUBOPT_0x1D:
001562 93fa      	ST   -Y,R31
001563 93ea      	ST   -Y,R30
001564 940c 05c0 	JMP  _wn16
                 
                 ;OPTIMIZER ADDED SUBROUTINE, CALLED 28 TIMES, CODE SIZE REDUCTION:51 WORDS
                 SUBOPT_0x1E:
001566 93fa      	ST   -Y,R31
001567 93ea      	ST   -Y,R30
001568 940c 0562 	JMP  _ws
                 
                 ;OPTIMIZER ADDED SUBROUTINE, CALLED 2 TIMES, CODE SIZE REDUCTION:1 WORDS
                 SUBOPT_0x1F:
00156a 50e1      	SUBI R30,LOW(1)
00156b e0f0      	LDI  R31,0
00156c 5fea      	SUBI R30,LOW(-_rx_buffer)
00156d 4ffa      	SBCI R31,HIGH(-_rx_buffer)
00156e 9508      	RET
                 
                 ;OPTIMIZER ADDED SUBROUTINE, CALLED 2 TIMES, CODE SIZE REDUCTION:1 WORDS
                 SUBOPT_0x20:
00156f 50e1      	SUBI R30,LOW(1)
001570 e0f0      	LDI  R31,0
001571 5eef      	SUBI R30,LOW(-_tx_buffer)
001572 4ffa      	SBCI R31,HIGH(-_tx_buffer)
001573 9508      	RET
                 
                 ;OPTIMIZER ADDED SUBROUTINE, CALLED 2 TIMES, CODE SIZE REDUCTION:1 WORDS
                 SUBOPT_0x21:
001574 93aa      	ST   -Y,R26
001575 93ba      	ST   -Y,R27
001576 93ea      	ST   -Y,R30
001577 93fa      	ST   -Y,R31
001578 b7ef      	IN   R30,SREG
001579 93ea      	ST   -Y,R30
00157a 9508      	RET
                 
                 ;OPTIMIZER ADDED SUBROUTINE, CALLED 2 TIMES, CODE SIZE REDUCTION:1 WORDS
                 SUBOPT_0x22:
00157b 81e8      	LD   R30,Y
00157c e0f0      	LDI  R31,0
00157d cf3c      	RJMP SUBOPT_0x8
                 
                 ;OPTIMIZER ADDED SUBROUTINE, CALLED 5 TIMES, CODE SIZE REDUCTION:157 WORDS
                 SUBOPT_0x23:
00157e e0e0      	LDI  R30,LOW(0)
00157f 93e0 049d 	STS  _rbctrlPenaltyX,R30
001581 93e0 049e 	STS  _rbctrlPenaltyX+1,R30
001583 93e0 049f 	STS  _rbctrlPenaltyX+2,R30
001585 93e0 04a0 	STS  _rbctrlPenaltyX+3,R30
001587 93e0 04a1 	STS  _rbctrlPenaltyY,R30
001589 93e0 04a2 	STS  _rbctrlPenaltyY+1,R30
00158b 93e0 04a3 	STS  _rbctrlPenaltyY+2,R30
00158d 93e0 04a4 	STS  _rbctrlPenaltyY+3,R30
                +
00158f e0e0     +LDI R30 , LOW ( 0x43330000 )
001590 e0f0     +LDI R31 , HIGH ( 0x43330000 )
001591 e363     +LDI R22 , BYTE3 ( 0x43330000 )
001592 e473     +LDI R23 , BYTE4 ( 0x43330000 )
                 	__GETD1N 0x43330000
001593 93e0 04a5 	STS  _rbctrlPenaltyAngle,R30
001595 93f0 04a6 	STS  _rbctrlPenaltyAngle+1,R31
001597 9360 04a7 	STS  _rbctrlPenaltyAngle+2,R22
001599 9370 04a8 	STS  _rbctrlPenaltyAngle+3,R23
00159b 93e0 04a9 	STS  _rbctrlHomeAngle,R30
00159d 93f0 04aa 	STS  _rbctrlHomeAngle+1,R31
00159f 9360 04ab 	STS  _rbctrlHomeAngle+2,R22
0015a1 9370 04ac 	STS  _rbctrlHomeAngle+3,R23
0015a3 9508      	RET
                 
                 ;OPTIMIZER ADDED SUBROUTINE, CALLED 2 TIMES, CODE SIZE REDUCTION:35 WORDS
                 SUBOPT_0x24:
                +
0015a4 e9ea     +LDI R30 , LOW ( 0x4386D99A )
0015a5 edf9     +LDI R31 , HIGH ( 0x4386D99A )
0015a6 e866     +LDI R22 , BYTE3 ( 0x4386D99A )
0015a7 e473     +LDI R23 , BYTE4 ( 0x4386D99A )
                 	__GETD1N 0x4386D99A
0015a8 93e0 0495 	STS  _rbctrlHomeX,R30
0015aa 93f0 0496 	STS  _rbctrlHomeX+1,R31
0015ac 9360 0497 	STS  _rbctrlHomeX+2,R22
0015ae 9370 0498 	STS  _rbctrlHomeX+3,R23
                +
0015b0 e9ea     +LDI R30 , LOW ( 0x3FD9999A )
0015b1 e9f9     +LDI R31 , HIGH ( 0x3FD9999A )
0015b2 ed69     +LDI R22 , BYTE3 ( 0x3FD9999A )
0015b3 e37f     +LDI R23 , BYTE4 ( 0x3FD9999A )
                 	__GETD1N 0x3FD9999A
0015b4 93e0 0499 	STS  _rbctrlHomeY,R30
0015b6 93f0 049a 	STS  _rbctrlHomeY+1,R31
0015b8 9360 049b 	STS  _rbctrlHomeY+2,R22
0015ba 9370 049c 	STS  _rbctrlHomeY+3,R23
                +
0015bc e0e0     +LDI R30 , LOW ( 0x42A00000 )
0015bd e0f0     +LDI R31 , HIGH ( 0x42A00000 )
0015be ea60     +LDI R22 , BYTE3 ( 0x42A00000 )
0015bf e472     +LDI R23 , BYTE4 ( 0x42A00000 )
                 	__GETD1N 0x42A00000
0015c0 93e0 0481 	STS  _setRobotXmin,R30
0015c2 93f0 0482 	STS  _setRobotXmin+1,R31
0015c4 9360 0483 	STS  _setRobotXmin+2,R22
0015c6 9370 0484 	STS  _setRobotXmin+3,R23
                +
0015c8 e0e0     +LDI R30 , LOW ( 0x43820000 )
0015c9 e0f0     +LDI R31 , HIGH ( 0x43820000 )
0015ca e862     +LDI R22 , BYTE3 ( 0x43820000 )
0015cb e473     +LDI R23 , BYTE4 ( 0x43820000 )
                 	__GETD1N 0x43820000
0015cc 9508      	RET
                 
                 ;OPTIMIZER ADDED SUBROUTINE, CALLED 2 TIMES, CODE SIZE REDUCTION:11 WORDS
                 SUBOPT_0x25:
                +
0015cd e0e0     +LDI R30 , LOW ( 0x42840000 )
0015ce e0f0     +LDI R31 , HIGH ( 0x42840000 )
0015cf e864     +LDI R22 , BYTE3 ( 0x42840000 )
0015d0 e472     +LDI R23 , BYTE4 ( 0x42840000 )
                 	__GETD1N 0x42840000
0015d1 93e0 0495 	STS  _rbctrlHomeX,R30
0015d3 93f0 0496 	STS  _rbctrlHomeX+1,R31
0015d5 9360 0497 	STS  _rbctrlHomeX+2,R22
0015d7 9370 0498 	STS  _rbctrlHomeX+3,R23
                +
0015d9 eced     +LDI R30 , LOW ( 0x429ECCCD )
0015da ecfc     +LDI R31 , HIGH ( 0x429ECCCD )
0015db e96e     +LDI R22 , BYTE3 ( 0x429ECCCD )
0015dc e472     +LDI R23 , BYTE4 ( 0x429ECCCD )
                 	__GETD1N 0x429ECCCD
0015dd 9508      	RET
                 
                 ;OPTIMIZER ADDED SUBROUTINE, CALLED 4 TIMES, CODE SIZE REDUCTION:27 WORDS
                 SUBOPT_0x26:
                +
0015de e0e0     +LDI R30 , LOW ( 0xC3870000 )
0015df e0f0     +LDI R31 , HIGH ( 0xC3870000 )
0015e0 e867     +LDI R22 , BYTE3 ( 0xC3870000 )
0015e1 ec73     +LDI R23 , BYTE4 ( 0xC3870000 )
                 	__GETD1N 0xC3870000
0015e2 93e0 0481 	STS  _setRobotXmin,R30
0015e4 93f0 0482 	STS  _setRobotXmin+1,R31
0015e6 9360 0483 	STS  _setRobotXmin+2,R22
0015e8 9370 0484 	STS  _setRobotXmin+3,R23
0015ea 9508      	RET
                 
                 ;OPTIMIZER ADDED SUBROUTINE, CALLED 2 TIMES, CODE SIZE REDUCTION:7 WORDS
                 SUBOPT_0x27:
                +
0015eb e0e0     +LDI R30 , LOW ( 0x43870000 )
0015ec e0f0     +LDI R31 , HIGH ( 0x43870000 )
0015ed e867     +LDI R22 , BYTE3 ( 0x43870000 )
0015ee e473     +LDI R23 , BYTE4 ( 0x43870000 )
                 	__GETD1N 0x43870000
0015ef 93e0 0485 	STS  _setRobotXmax,R30
0015f1 93f0 0486 	STS  _setRobotXmax+1,R31
0015f3 9360 0487 	STS  _setRobotXmax+2,R22
0015f5 9370 0488 	STS  _setRobotXmax+3,R23
0015f7 9508      	RET
                 
                 ;OPTIMIZER ADDED SUBROUTINE, CALLED 2 TIMES, CODE SIZE REDUCTION:7 WORDS
                 SUBOPT_0x28:
0015f8 93e0 04a5 	STS  _rbctrlPenaltyAngle,R30
0015fa 93f0 04a6 	STS  _rbctrlPenaltyAngle+1,R31
0015fc 9360 04a7 	STS  _rbctrlPenaltyAngle+2,R22
0015fe 9370 04a8 	STS  _rbctrlPenaltyAngle+3,R23
                +
001600 e0e0     +LDI R30 , LOW ( 0x43330000 )
001601 e0f0     +LDI R31 , HIGH ( 0x43330000 )
001602 e363     +LDI R22 , BYTE3 ( 0x43330000 )
001603 e473     +LDI R23 , BYTE4 ( 0x43330000 )
                 	__GETD1N 0x43330000
001604 9508      	RET
                 
                 ;OPTIMIZER ADDED SUBROUTINE, CALLED 2 TIMES, CODE SIZE REDUCTION:21 WORDS
                 SUBOPT_0x29:
                +
001605 e6e6     +LDI R30 , LOW ( 0x42586666 )
001606 e6f6     +LDI R31 , HIGH ( 0x42586666 )
001607 e568     +LDI R22 , BYTE3 ( 0x42586666 )
001608 e472     +LDI R23 , BYTE4 ( 0x42586666 )
                 	__GETD1N 0x42586666
001609 93e0 0495 	STS  _rbctrlHomeX,R30
00160b 93f0 0496 	STS  _rbctrlHomeX+1,R31
00160d 9360 0497 	STS  _rbctrlHomeX+2,R22
00160f 9370 0498 	STS  _rbctrlHomeX+3,R23
                +
001611 eced     +LDI R30 , LOW ( 0xC2C7CCCD )
001612 ecfc     +LDI R31 , HIGH ( 0xC2C7CCCD )
001613 ec67     +LDI R22 , BYTE3 ( 0xC2C7CCCD )
001614 ec72     +LDI R23 , BYTE4 ( 0xC2C7CCCD )
                 	__GETD1N 0xC2C7CCCD
001615 93e0 0499 	STS  _rbctrlHomeY,R30
001617 93f0 049a 	STS  _rbctrlHomeY+1,R31
001619 9360 049b 	STS  _rbctrlHomeY+2,R22
00161b 9370 049c 	STS  _rbctrlHomeY+3,R23
00161d cfc0      	RJMP SUBOPT_0x26
                 
                 ;OPTIMIZER ADDED SUBROUTINE, CALLED 2 TIMES, CODE SIZE REDUCTION:8 WORDS
                 SUBOPT_0x2A:
00161e 920a      	ST   -Y,R0
00161f 921a      	ST   -Y,R1
001620 92fa      	ST   -Y,R15
001621 936a      	ST   -Y,R22
001622 937a      	ST   -Y,R23
001623 938a      	ST   -Y,R24
001624 939a      	ST   -Y,R25
001625 93aa      	ST   -Y,R26
001626 93ba      	ST   -Y,R27
001627 93ea      	ST   -Y,R30
001628 93fa      	ST   -Y,R31
001629 b7ef      	IN   R30,SREG
00162a 93ea      	ST   -Y,R30
00162b 9508      	RET
                 
                 ;OPTIMIZER ADDED SUBROUTINE, CALLED 5 TIMES, CODE SIZE REDUCTION:9 WORDS
                 SUBOPT_0x2B:
00162c 91ed      	LD   R30,X+
00162d 91fd      	LD   R31,X+
00162e 9631      	ADIW R30,1
00162f 93fe      	ST   -X,R31
001630 93ee      	ST   -X,R30
001631 9508      	RET
                 
                 ;OPTIMIZER ADDED SUBROUTINE, CALLED 4 TIMES, CODE SIZE REDUCTION:3 WORDS
                 SUBOPT_0x2C:
001632 e0e0      	LDI  R30,LOW(0)
001633 83e8      	ST   Y,R30
001634 83e9      	STD  Y+1,R30
001635 9508      	RET
                 
                 ;OPTIMIZER ADDED SUBROUTINE, CALLED 3 TIMES, CODE SIZE REDUCTION:1 WORDS
                 SUBOPT_0x2D:
001636 91e0 0504 	LDS  R30,_QER
001638 91f0 0505 	LDS  R31,_QER+1
00163a 9508      	RET
                 
                 ;OPTIMIZER ADDED SUBROUTINE, CALLED 7 TIMES, CODE SIZE REDUCTION:9 WORDS
                 SUBOPT_0x2E:
00163b 91e0 0502 	LDS  R30,_QEL
00163d 91f0 0503 	LDS  R31,_QEL+1
00163f 9508      	RET
                 
                 ;OPTIMIZER ADDED SUBROUTINE, CALLED 4 TIMES, CODE SIZE REDUCTION:3 WORDS
                 SUBOPT_0x2F:
001640 91a0 04e0 	LDS  R26,_seRki_G001
001642 91b0 04e1 	LDS  R27,_seRki_G001+1
001644 9508      	RET
                 
                 ;OPTIMIZER ADDED SUBROUTINE, CALLED 3 TIMES, CODE SIZE REDUCTION:1 WORDS
                 SUBOPT_0x30:
001645 93e0 04e0 	STS  _seRki_G001,R30
001647 93f0 04e1 	STS  _seRki_G001+1,R31
001649 9508      	RET
                 
                 ;OPTIMIZER ADDED SUBROUTINE, CALLED 4 TIMES, CODE SIZE REDUCTION:3 WORDS
                 SUBOPT_0x31:
00164a 91a0 04e2 	LDS  R26,_seLki_G001
00164c 91b0 04e3 	LDS  R27,_seLki_G001+1
00164e 9508      	RET
                 
                 ;OPTIMIZER ADDED SUBROUTINE, CALLED 3 TIMES, CODE SIZE REDUCTION:1 WORDS
                 SUBOPT_0x32:
00164f 93e0 04e2 	STS  _seLki_G001,R30
001651 93f0 04e3 	STS  _seLki_G001+1,R31
001653 9508      	RET
                 
                 ;OPTIMIZER ADDED SUBROUTINE, CALLED 2 TIMES, CODE SIZE REDUCTION:6 WORDS
                 SUBOPT_0x33:
001654 dfe6      	RCALL SUBOPT_0x2E
001655 91a0 0504 	LDS  R26,_QER
001657 91b0 0505 	LDS  R27,_QER+1
001659 0fae      	ADD  R26,R30
00165a 1fbf      	ADC  R27,R31
00165b 01fd      	MOVW R30,R26
00165c 95f6      	LSR  R31
00165d 95e7      	ROR  R30
00165e 9508      	RET
                 
                 ;OPTIMIZER ADDED SUBROUTINE, CALLED 2 TIMES, CODE SIZE REDUCTION:8 WORDS
                 SUBOPT_0x34:
00165f 91e9      	LD   R30,Y+
001660 bfef      	OUT  SREG,R30
001661 91f9      	LD   R31,Y+
001662 91e9      	LD   R30,Y+
001663 91b9      	LD   R27,Y+
001664 91a9      	LD   R26,Y+
001665 9199      	LD   R25,Y+
001666 9189      	LD   R24,Y+
001667 9179      	LD   R23,Y+
001668 9169      	LD   R22,Y+
001669 90f9      	LD   R15,Y+
00166a 9019      	LD   R1,Y+
00166b 9009      	LD   R0,Y+
00166c 9508      	RET
                 
                 ;OPTIMIZER ADDED SUBROUTINE, CALLED 2 TIMES, CODE SIZE REDUCTION:3 WORDS
                 SUBOPT_0x35:
00166d 93fa      	ST   -Y,R31
00166e 93ea      	ST   -Y,R30
00166f e2e8      	LDI  R30,LOW(40)
001670 e0f0      	LDI  R31,HIGH(40)
001671 93fa      	ST   -Y,R31
001672 93ea      	ST   -Y,R30
001673 940c 0538 	JMP  _hc
                 
                 ;OPTIMIZER ADDED SUBROUTINE, CALLED 11 TIMES, CODE SIZE REDUCTION:17 WORDS
                 SUBOPT_0x36:
001675 93fa      	ST   -Y,R31
001676 93ea      	ST   -Y,R30
001677 940c 05d8 	JMP  _wn16s
                 
                 ;OPTIMIZER ADDED SUBROUTINE, CALLED 6 TIMES, CODE SIZE REDUCTION:7 WORDS
                 SUBOPT_0x37:
001679 e0e3      	LDI  R30,LOW(3)
00167a e0f0      	LDI  R31,HIGH(3)
00167b 93fa      	ST   -Y,R31
00167c 93ea      	ST   -Y,R30
00167d 9508      	RET
                 
                 ;OPTIMIZER ADDED SUBROUTINE, CALLED 2 TIMES, CODE SIZE REDUCTION:1 WORDS
                 SUBOPT_0x38:
00167e e1e4      	LDI  R30,LOW(20)
00167f e0f0      	LDI  R31,HIGH(20)
001680 93fa      	ST   -Y,R31
001681 93ea      	ST   -Y,R30
001682 940c 0538 	JMP  _hc
                 
                 ;OPTIMIZER ADDED SUBROUTINE, CALLED 3 TIMES, CODE SIZE REDUCTION:1 WORDS
                 SUBOPT_0x39:
                +
001684 91e0 0441+LDS R30 , _robotctrl + ( 2 )
001686 91f0 0442+LDS R31 , _robotctrl + ( 2 ) + 1
                 	__GETW1MN _robotctrl,2
001688 9508      	RET
                 
                 ;OPTIMIZER ADDED SUBROUTINE, CALLED 5 TIMES, CODE SIZE REDUCTION:5 WORDS
                 SUBOPT_0x3A:
001689 e0e2      	LDI  R30,LOW(2)
00168a e0f0      	LDI  R31,HIGH(2)
00168b 93fa      	ST   -Y,R31
00168c 93ea      	ST   -Y,R30
00168d 9508      	RET
                 
                 ;OPTIMIZER ADDED SUBROUTINE, CALLED 3 TIMES, CODE SIZE REDUCTION:1 WORDS
                 SUBOPT_0x3B:
                +
00168e 91e0 0443+LDS R30 , _robotctrl + ( 4 )
001690 91f0 0444+LDS R31 , _robotctrl + ( 4 ) + 1
                 	__GETW1MN _robotctrl,4
001692 9508      	RET
                 
                 ;OPTIMIZER ADDED SUBROUTINE, CALLED 10 TIMES, CODE SIZE REDUCTION:15 WORDS
                 SUBOPT_0x3C:
001693 e0e1      	LDI  R30,LOW(1)
001694 e0f0      	LDI  R31,HIGH(1)
001695 93fa      	ST   -Y,R31
001696 93ea      	ST   -Y,R30
001697 9508      	RET
                 
                 ;OPTIMIZER ADDED SUBROUTINE, CALLED 14 TIMES, CODE SIZE REDUCTION:23 WORDS
                 SUBOPT_0x3D:
001698 e0e0      	LDI  R30,LOW(0)
001699 e0f0      	LDI  R31,HIGH(0)
00169a 93fa      	ST   -Y,R31
00169b 93ea      	ST   -Y,R30
00169c 9508      	RET
                 
                 ;OPTIMIZER ADDED SUBROUTINE, CALLED 3 TIMES, CODE SIZE REDUCTION:5 WORDS
                 SUBOPT_0x3E:
00169d ece8      	LDI  R30,LOW(200)
00169e e0f0      	LDI  R31,HIGH(200)
00169f 93fa      	ST   -Y,R31
0016a0 93ea      	ST   -Y,R30
0016a1 940c 180e 	JMP  _delay_ms
                 
                 ;OPTIMIZER ADDED SUBROUTINE, CALLED 3 TIMES, CODE SIZE REDUCTION:9 WORDS
                 SUBOPT_0x3F:
0016a3 e0e0      	LDI  R30,LOW(0)
0016a4 bbea      	OUT  0x1A,R30
0016a5 bbeb      	OUT  0x1B,R30
0016a6 940e 056e 	CALL _LcdClear
0016a8 cfef      	RJMP SUBOPT_0x3D
                 
                 ;OPTIMIZER ADDED SUBROUTINE, CALLED 16 TIMES, CODE SIZE REDUCTION:57 WORDS
                 SUBOPT_0x40:
0016a9 e0ea      	LDI  R30,LOW(10)
0016aa e0f0      	LDI  R31,HIGH(10)
0016ab 93fa      	ST   -Y,R31
0016ac 93ea      	ST   -Y,R30
0016ad 940c 0538 	JMP  _hc
                 
                 ;OPTIMIZER ADDED SUBROUTINE, CALLED 4 TIMES, CODE SIZE REDUCTION:3 WORDS
                 SUBOPT_0x41:
0016af e0e1      	LDI  R30,LOW(1)
0016b0 e0f0      	LDI  R31,HIGH(1)
0016b1 ce76      	RJMP SUBOPT_0x17
                 
                 ;OPTIMIZER ADDED SUBROUTINE, CALLED 2 TIMES, CODE SIZE REDUCTION:1 WORDS
                 SUBOPT_0x42:
0016b2 e2ea      	LDI  R30,LOW(42)
0016b3 e0f0      	LDI  R31,HIGH(42)
0016b4 93fa      	ST   -Y,R31
0016b5 93ea      	ST   -Y,R30
0016b6 940c 0538 	JMP  _hc
                 
                 ;OPTIMIZER ADDED SUBROUTINE, CALLED 2 TIMES, CODE SIZE REDUCTION:4 WORDS
                 SUBOPT_0x43:
0016b8 93ea      	ST   -Y,R30
0016b9 940e 06da 	CALL _vMRlui
0016bb e5e8      	LDI  R30,LOW(600)
0016bc e0f2      	LDI  R31,HIGH(600)
0016bd 93fa      	ST   -Y,R31
0016be 93ea      	ST   -Y,R30
0016bf 940c 180e 	JMP  _delay_ms
                 
                 ;OPTIMIZER ADDED SUBROUTINE, CALLED 4 TIMES, CODE SIZE REDUCTION:3 WORDS
                 SUBOPT_0x44:
0016c1 940e 051a 	CALL _LEDLtoggle
0016c3 940c 0520 	JMP  _LEDRtoggle
                 
                 ;OPTIMIZER ADDED SUBROUTINE, CALLED 16 TIMES, CODE SIZE REDUCTION:42 WORDS
                 SUBOPT_0x45:
0016c5 01f8      	MOVW R30,R16
0016c6 eca2      	LDI  R26,LOW(_IRLINE)
0016c7 e0b4      	LDI  R27,HIGH(_IRLINE)
0016c8 0fee      	LSL  R30
0016c9 1fff      	ROL  R31
0016ca 9508      	RET
                 
                 ;OPTIMIZER ADDED SUBROUTINE, CALLED 5 TIMES, CODE SIZE REDUCTION:5 WORDS
                 SUBOPT_0x46:
                +
0016cb 91a0 04c6+LDS R26 , _IRLINE + ( 4 )
0016cd 91b0 04c7+LDS R27 , _IRLINE + ( 4 ) + 1
                 	__GETW2MN _IRLINE,4
0016cf 9508      	RET
                 
                 ;OPTIMIZER ADDED SUBROUTINE, CALLED 18 TIMES, CODE SIZE REDUCTION:31 WORDS
                 SUBOPT_0x47:
0016d0 0fae      	ADD  R26,R30
0016d1 1fbf      	ADC  R27,R31
0016d2 940e 1a81 	CALL __GETW1P
0016d4 9508      	RET
                 
                 ;OPTIMIZER ADDED SUBROUTINE, CALLED 4 TIMES, CODE SIZE REDUCTION:15 WORDS
                 SUBOPT_0x48:
0016d5 940e 0a01 	CALL _readline
                +
0016d7 9140 04c2+LDS R20 , 0 + ( _IRLINE )
0016d9 9150 04c3+LDS R21 , 0 + ( _IRLINE ) + 1
                 	__GETWRMN 20,21,0,_IRLINE
0016db e000      	LDI  R16,LOW(0)
0016dc e011      	LDI  R17,LOW(1)
0016dd 9508      	RET
                 
                 ;OPTIMIZER ADDED SUBROUTINE, CALLED 8 TIMES, CODE SIZE REDUCTION:39 WORDS
                 SUBOPT_0x49:
0016de 2fe1      	MOV  R30,R17
0016df eca2      	LDI  R26,LOW(_IRLINE)
0016e0 e0b4      	LDI  R27,HIGH(_IRLINE)
0016e1 e0f0      	LDI  R31,0
0016e2 0fee      	LSL  R30
0016e3 1fff      	ROL  R31
0016e4 9508      	RET
                 
                 ;OPTIMIZER ADDED SUBROUTINE, CALLED 4 TIMES, CODE SIZE REDUCTION:6 WORDS
                 SUBOPT_0x4A:
0016e5 0fae      	ADD  R26,R30
0016e6 1fbf      	ADC  R27,R31
0016e7 914d      	LD   R20,X+
0016e8 915c      	LD   R21,X
0016e9 2f01      	MOV  R16,R17
0016ea 9508      	RET
                 
                 ;OPTIMIZER ADDED SUBROUTINE, CALLED 3 TIMES, CODE SIZE REDUCTION:1 WORDS
                 SUBOPT_0x4B:
0016eb 2fe0      	MOV  R30,R16
0016ec e0f0      	LDI  R31,0
0016ed 9508      	RET
                 
                 ;OPTIMIZER ADDED SUBROUTINE, CALLED 4 TIMES, CODE SIZE REDUCTION:3 WORDS
                 SUBOPT_0x4C:
0016ee e0e1      	LDI  R30,LOW(1)
0016ef 93ea      	ST   -Y,R30
0016f0 940c 06be 	JMP  _vMLtoi
                 
                 ;OPTIMIZER ADDED SUBROUTINE, CALLED 4 TIMES, CODE SIZE REDUCTION:3 WORDS
                 SUBOPT_0x4D:
0016f2 e1e4      	LDI  R30,LOW(20)
0016f3 93ea      	ST   -Y,R30
0016f4 940c 06d6 	JMP  _vMRtoi
                 
                 ;OPTIMIZER ADDED SUBROUTINE, CALLED 3 TIMES, CODE SIZE REDUCTION:1 WORDS
                 SUBOPT_0x4E:
0016f6 e0ef      	LDI  R30,LOW(15)
0016f7 93ea      	ST   -Y,R30
0016f8 940c 06d6 	JMP  _vMRtoi
                 
                 ;OPTIMIZER ADDED SUBROUTINE, CALLED 3 TIMES, CODE SIZE REDUCTION:1 WORDS
                 SUBOPT_0x4F:
0016fa e0ef      	LDI  R30,LOW(15)
0016fb 93ea      	ST   -Y,R30
0016fc 940c 06be 	JMP  _vMLtoi
                 
                 ;OPTIMIZER ADDED SUBROUTINE, CALLED 4 TIMES, CODE SIZE REDUCTION:3 WORDS
                 SUBOPT_0x50:
0016fe e0e1      	LDI  R30,LOW(1)
0016ff 93ea      	ST   -Y,R30
001700 940c 06d6 	JMP  _vMRtoi
                 
                 ;OPTIMIZER ADDED SUBROUTINE, CALLED 2 TIMES, CODE SIZE REDUCTION:1 WORDS
                 SUBOPT_0x51:
001702 e1e4      	LDI  R30,LOW(20)
001703 93ea      	ST   -Y,R30
001704 940e 06be 	CALL _vMLtoi
001706 cff7      	RJMP SUBOPT_0x50
                 
                 ;OPTIMIZER ADDED SUBROUTINE, CALLED 4 TIMES, CODE SIZE REDUCTION:3 WORDS
                 SUBOPT_0x52:
001707 e0a0      	LDI  R26,0
001708 9998      	SBIC 0x13,0
001709 e0a1      	LDI  R26,1
00170a 30a0      	CPI  R26,LOW(0x0)
00170b 9508      	RET
                 
                 ;OPTIMIZER ADDED SUBROUTINE, CALLED 3 TIMES, CODE SIZE REDUCTION:5 WORDS
                 SUBOPT_0x53:
00170c e0e4      	LDI  R30,LOW(4)
00170d e0f0      	LDI  R31,HIGH(4)
00170e 93fa      	ST   -Y,R31
00170f 93ea      	ST   -Y,R30
001710 cf98      	RJMP SUBOPT_0x40
                 
                 ;OPTIMIZER ADDED SUBROUTINE, CALLED 4 TIMES, CODE SIZE REDUCTION:27 WORDS
                 SUBOPT_0x54:
001711 940e 0a01 	CALL _readline
001713 91e0 04c2 	LDS  R30,_IRLINE
001715 91f0 04c3 	LDS  R31,_IRLINE+1
001717 a3eb      	STD  Y+35,R30
001718 a3fc      	STD  Y+35+1,R31
                +
001719 e040     +LDI R20 , LOW ( 0 )
00171a e050     +LDI R21 , HIGH ( 0 )
                 	__GETWRN 20,21,0
                +
00171b e001     +LDI R16 , LOW ( 1 )
00171c e010     +LDI R17 , HIGH ( 1 )
                 	__GETWRN 16,17,1
00171d 9508      	RET
                 
                 ;OPTIMIZER ADDED SUBROUTINE, CALLED 5 TIMES, CODE SIZE REDUCTION:5 WORDS
                 SUBOPT_0x55:
00171e a1ab      	LDD  R26,Y+35
00171f a1bc      	LDD  R27,Y+35+1
001720 17ea      	CP   R30,R26
001721 07fb      	CPC  R31,R27
001722 9508      	RET
                 
                 ;OPTIMIZER ADDED SUBROUTINE, CALLED 3 TIMES, CODE SIZE REDUCTION:1 WORDS
                 SUBOPT_0x56:
                +
001723 87ec     +STD Y + 12 , R30
001724 87fd     +STD Y + 12 + 1 , R31
001725 876e     +STD Y + 12 + 2 , R22
001726 877f     +STD Y + 12 + 3 , R23
                 	__PUTD1S 12
001727 9508      	RET
                 
                 ;OPTIMIZER ADDED SUBROUTINE, CALLED 4 TIMES, CODE SIZE REDUCTION:3 WORDS
                 SUBOPT_0x57:
                +
001728 85ac     +LDD R26 , Y + 12
001729 85bd     +LDD R27 , Y + 12 + 1
00172a 858e     +LDD R24 , Y + 12 + 2
00172b 859f     +LDD R25 , Y + 12 + 3
                 	__GETD2S 12
00172c 9508      	RET
                 
                 ;OPTIMIZER ADDED SUBROUTINE, CALLED 2 TIMES, CODE SIZE REDUCTION:3 WORDS
                 SUBOPT_0x58:
00172d 940e 195e 	CALL __DIVF21
                +
00172f 89a8     +LDD R26 , Y + 16
001730 89b9     +LDD R27 , Y + 16 + 1
001731 898a     +LDD R24 , Y + 16 + 2
001732 899b     +LDD R25 , Y + 16 + 3
                 	__GETD2S 16
001733 940e 18c0 	CALL __ADDF12
001735 9508      	RET
                 
                 ;OPTIMIZER ADDED SUBROUTINE, CALLED 3 TIMES, CODE SIZE REDUCTION:1 WORDS
                 SUBOPT_0x59:
                +
001736 8be8     +STD Y + 16 , R30
001737 8bf9     +STD Y + 16 + 1 , R31
001738 8b6a     +STD Y + 16 + 2 , R22
001739 8b7b     +STD Y + 16 + 3 , R23
                 	__PUTD1S 16
00173a 9508      	RET
                 
                 ;OPTIMIZER ADDED SUBROUTINE, CALLED 5 TIMES, CODE SIZE REDUCTION:5 WORDS
                 SUBOPT_0x5A:
                +
00173b 85a8     +LDD R26 , Y + 8
00173c 85b9     +LDD R27 , Y + 8 + 1
00173d 858a     +LDD R24 , Y + 8 + 2
00173e 859b     +LDD R25 , Y + 8 + 3
                 	__GETD2S 8
00173f 9508      	RET
                 
                 ;OPTIMIZER ADDED SUBROUTINE, CALLED 3 TIMES, CODE SIZE REDUCTION:1 WORDS
                 SUBOPT_0x5B:
                +
001740 8bec     +STD Y + 20 , R30
001741 8bfd     +STD Y + 20 + 1 , R31
001742 8b6e     +STD Y + 20 + 2 , R22
001743 8b7f     +STD Y + 20 + 3 , R23
                 	__PUTD1S 20
001744 9508      	RET
                 
                 ;OPTIMIZER ADDED SUBROUTINE, CALLED 3 TIMES, CODE SIZE REDUCTION:1 WORDS
                 SUBOPT_0x5C:
                +
001745 89ac     +LDD R26 , Y + 20
001746 89bd     +LDD R27 , Y + 20 + 1
001747 898e     +LDD R24 , Y + 20 + 2
001748 899f     +LDD R25 , Y + 20 + 3
                 	__GETD2S 20
001749 9508      	RET
                 
                 ;OPTIMIZER ADDED SUBROUTINE, CALLED 3 TIMES, CODE SIZE REDUCTION:1 WORDS
                 SUBOPT_0x5D:
                +
00174a e0e0     +LDI R30 , LOW ( 0x41200000 )
00174b e0f0     +LDI R31 , HIGH ( 0x41200000 )
00174c e260     +LDI R22 , BYTE3 ( 0x41200000 )
00174d e471     +LDI R23 , BYTE4 ( 0x41200000 )
                 	__GETD1N 0x41200000
00174e 9508      	RET
                 
                 ;OPTIMIZER ADDED SUBROUTINE, CALLED 2 TIMES, CODE SIZE REDUCTION:2 WORDS
                 SUBOPT_0x5E:
00174f dff0      	RCALL SUBOPT_0x5B
001750 e0e0      	LDI  R30,LOW(0)
                +
001751 8be8     +STD Y + 16 , R30
001752 8be9     +STD Y + 16 + 1 , R30
001753 8bea     +STD Y + 16 + 2 , R30
001754 8beb     +STD Y + 16 + 3 , R30
                 	__CLRD1S 16
001755 9508      	RET
                 
                 ;OPTIMIZER ADDED SUBROUTINE, CALLED 2 TIMES, CODE SIZE REDUCTION:2 WORDS
                 SUBOPT_0x5F:
001756 93ea      	ST   -Y,R30
001757 940e 06be 	CALL _vMLtoi
001759 e0e2      	LDI  R30,LOW(2)
00175a 93ea      	ST   -Y,R30
00175b 940c 06d6 	JMP  _vMRtoi
                 
                 ;OPTIMIZER ADDED SUBROUTINE, CALLED 4 TIMES, CODE SIZE REDUCTION:3 WORDS
                 SUBOPT_0x60:
00175d 940e 056e 	CALL _LcdClear
00175f cf38      	RJMP SUBOPT_0x3D
                 
                 ;OPTIMIZER ADDED SUBROUTINE, CALLED 8 TIMES, CODE SIZE REDUCTION:11 WORDS
                 SUBOPT_0x61:
001760 93fa      	ST   -Y,R31
001761 93ea      	ST   -Y,R30
001762 940c 0538 	JMP  _hc
                 
                 ;OPTIMIZER ADDED SUBROUTINE, CALLED 2 TIMES, CODE SIZE REDUCTION:11 WORDS
                 SUBOPT_0x62:
001764 9aac      	SBI  0x15,4
001765 9aad      	SBI  0x15,5
001766 e6e4      	LDI  R30,LOW(100)
001767 e0f0      	LDI  R31,HIGH(100)
001768 93fa      	ST   -Y,R31
001769 93ea      	ST   -Y,R30
00176a 940e 180e 	CALL _delay_ms
00176c 98ac      	CBI  0x15,4
00176d 98ad      	CBI  0x15,5
00176e e6e4      	LDI  R30,LOW(100)
00176f e0f0      	LDI  R31,HIGH(100)
001770 93fa      	ST   -Y,R31
001771 93ea      	ST   -Y,R30
001772 940c 180e 	JMP  _delay_ms
                 
                 ;OPTIMIZER ADDED SUBROUTINE, CALLED 2 TIMES, CODE SIZE REDUCTION:2 WORDS
                 SUBOPT_0x63:
001774 93ea      	ST   -Y,R30
001775 940e 06be 	CALL _vMLtoi
001777 e0e0      	LDI  R30,LOW(0)
001778 93ea      	ST   -Y,R30
001779 940c 06d6 	JMP  _vMRtoi
                 
                 ;OPTIMIZER ADDED SUBROUTINE, CALLED 2 TIMES, CODE SIZE REDUCTION:2 WORDS
                 SUBOPT_0x64:
00177b 93ea      	ST   -Y,R30
00177c 940e 06be 	CALL _vMLtoi
00177e e6e4      	LDI  R30,LOW(100)
00177f 93ea      	ST   -Y,R30
001780 940c 06d6 	JMP  _vMRtoi
                 
                 ;OPTIMIZER ADDED SUBROUTINE, CALLED 14 TIMES, CODE SIZE REDUCTION:23 WORDS
                 SUBOPT_0x65:
001782 e0e2      	LDI  R30,LOW(2)
001783 e0f0      	LDI  R31,HIGH(2)
001784 cda3      	RJMP SUBOPT_0x17
                 
                 ;OPTIMIZER ADDED SUBROUTINE, CALLED 10 TIMES, CODE SIZE REDUCTION:33 WORDS
                 SUBOPT_0x66:
001785 e0ea      	LDI  R30,LOW(10)
001786 e0f0      	LDI  R31,HIGH(10)
001787 93fa      	ST   -Y,R31
001788 93ea      	ST   -Y,R30
001789 940c 180e 	JMP  _delay_ms
                 
                 ;OPTIMIZER ADDED SUBROUTINE, CALLED 8 TIMES, CODE SIZE REDUCTION:11 WORDS
                 SUBOPT_0x67:
00178b 93fa      	ST   -Y,R31
00178c 93ea      	ST   -Y,R30
00178d 940c 058e 	JMP  _wn164
                 
                 ;OPTIMIZER ADDED SUBROUTINE, CALLED 4 TIMES, CODE SIZE REDUCTION:3 WORDS
                 SUBOPT_0x68:
00178f e2eb      	LDI  R30,LOW(43)
001790 e0f0      	LDI  R31,HIGH(43)
001791 cfce      	RJMP SUBOPT_0x61
                 
                 ;OPTIMIZER ADDED SUBROUTINE, CALLED 3 TIMES, CODE SIZE REDUCTION:9 WORDS
                 SUBOPT_0x69:
001792 91e0 04bd 	LDS  R30,_id
001794 e0f0      	LDI  R31,0
001795 30e1      	CPI  R30,LOW(0x1)
001796 e0a0      	LDI  R26,HIGH(0x1)
001797 07fa      	CPC  R31,R26
001798 9508      	RET
                 
                 ;OPTIMIZER ADDED SUBROUTINE, CALLED 4 TIMES, CODE SIZE REDUCTION:3 WORDS
                 SUBOPT_0x6A:
001799 93fa      	ST   -Y,R31
00179a 93ea      	ST   -Y,R30
00179b 940c 180e 	JMP  _delay_ms
                 
                 ;OPTIMIZER ADDED SUBROUTINE, CALLED 2 TIMES, CODE SIZE REDUCTION:2 WORDS
                 SUBOPT_0x6B:
00179d bfe3      	OUT  0x33,R30
00179e e0e0      	LDI  R30,LOW(0)
00179f bfe2      	OUT  0x32,R30
0017a0 bfec      	OUT  0x3C,R30
0017a1 bde2      	OUT  0x22,R30
0017a2 9508      	RET
                 
                 ;OPTIMIZER ADDED SUBROUTINE, CALLED 11 TIMES, CODE SIZE REDUCTION:17 WORDS
                 SUBOPT_0x6C:
0017a3 940e 0f74 	CALL _outlcd1
0017a5 cfdc      	RJMP SUBOPT_0x65
                 
                 ;OPTIMIZER ADDED SUBROUTINE, CALLED 3 TIMES, CODE SIZE REDUCTION:9 WORDS
                 SUBOPT_0x6D:
0017a6 91e0 03cf 	LDS  R30,_rb
0017a8 91f0 03d0 	LDS  R31,_rb+1
0017aa 9160 03d1 	LDS  R22,_rb+2
0017ac 9170 03d2 	LDS  R23,_rb+3
0017ae 9508      	RET
                 
                 ;OPTIMIZER ADDED SUBROUTINE, CALLED 2 TIMES, CODE SIZE REDUCTION:5 WORDS
                 SUBOPT_0x6E:
0017af dff6      	RCALL SUBOPT_0x6D
0017b0 940e 184f 	CALL __CFD1
0017b2 01df      	MOVW R26,R30
0017b3 e0ea      	LDI  R30,LOW(10)
0017b4 e0f0      	LDI  R31,HIGH(10)
0017b5 940e 1a2e 	CALL __DIVW21
0017b7 015f      	MOVW R10,R30
0017b8 9508      	RET
                 
                 ;OPTIMIZER ADDED SUBROUTINE, CALLED 21 TIMES, CODE SIZE REDUCTION:37 WORDS
                 SUBOPT_0x6F:
0017b9 940e 1a85 	CALL __GETD1S0
0017bb 9508      	RET
                 
                 ;OPTIMIZER ADDED SUBROUTINE, CALLED 2 TIMES, CODE SIZE REDUCTION:3 WORDS
                 SUBOPT_0x70:
0017bc 940e 1a94 	CALL __PUTPARD1
0017be 940e 1297 	CALL _ftrunc
0017c0 940e 1a8f 	CALL __PUTD1S0
0017c2 9508      	RET
                 
                 ;OPTIMIZER ADDED SUBROUTINE, CALLED 5 TIMES, CODE SIZE REDUCTION:13 WORDS
                 SUBOPT_0x71:
0017c3 dff5      	RCALL SUBOPT_0x6F
                +
0017c4 e0a0     +LDI R26 , LOW ( 0x3F800000 )
0017c5 e0b0     +LDI R27 , HIGH ( 0x3F800000 )
0017c6 e880     +LDI R24 , BYTE3 ( 0x3F800000 )
0017c7 e39f     +LDI R25 , BYTE4 ( 0x3F800000 )
                 	__GETD2N 0x3F800000
0017c8 9508      	RET
                 
                 ;OPTIMIZER ADDED SUBROUTINE, CALLED 2 TIMES, CODE SIZE REDUCTION:5 WORDS
                 SUBOPT_0x72:
0017c9 dcd8      	RCALL SUBOPT_0x4
0017ca df70      	RCALL SUBOPT_0x5A
0017cb 940e 195e 	CALL __DIVF21
0017cd 940e 1a8f 	CALL __PUTD1S0
0017cf 9508      	RET
                 
                 ;OPTIMIZER ADDED SUBROUTINE, CALLED 5 TIMES, CODE SIZE REDUCTION:5 WORDS
                 SUBOPT_0x73:
0017d0 940e 1a8a 	CALL __GETD2S0
0017d2 9508      	RET
                 
                 ;OPTIMIZER ADDED SUBROUTINE, CALLED 5 TIMES, CODE SIZE REDUCTION:5 WORDS
                 SUBOPT_0x74:
0017d3 dfe5      	RCALL SUBOPT_0x6F
0017d4 940e 1a94 	CALL __PUTPARD1
0017d6 9508      	RET
                 
                 ;OPTIMIZER ADDED SUBROUTINE, CALLED 5 TIMES, CODE SIZE REDUCTION:5 WORDS
                 SUBOPT_0x75:
                +
0017d7 81ac     +LDD R26 , Y + 4
0017d8 81bd     +LDD R27 , Y + 4 + 1
0017d9 818e     +LDD R24 , Y + 4 + 2
0017da 819f     +LDD R25 , Y + 4 + 3
                 	__GETD2S 4
0017db 9508      	RET
                 
                 ;OPTIMIZER ADDED SUBROUTINE, CALLED 7 TIMES, CODE SIZE REDUCTION:9 WORDS
                 SUBOPT_0x76:
                +
0017dc 81ad     +LDD R26 , Y + 5
0017dd 81be     +LDD R27 , Y + 5 + 1
0017de 818f     +LDD R24 , Y + 5 + 2
0017df 8598     +LDD R25 , Y + 5 + 3
                 	__GETD2S 5
0017e0 9508      	RET
                 
                 ;OPTIMIZER ADDED SUBROUTINE, CALLED 5 TIMES, CODE SIZE REDUCTION:5 WORDS
                 SUBOPT_0x77:
                +
0017e1 83ed     +STD Y + 5 , R30
0017e2 83fe     +STD Y + 5 + 1 , R31
0017e3 836f     +STD Y + 5 + 2 , R22
0017e4 8778     +STD Y + 5 + 3 , R23
                 	__PUTD1S 5
0017e5 9508      	RET
                 
                 ;OPTIMIZER ADDED SUBROUTINE, CALLED 4 TIMES, CODE SIZE REDUCTION:3 WORDS
                 SUBOPT_0x78:
                +
0017e6 81ed     +LDD R30 , Y + 5
0017e7 81fe     +LDD R31 , Y + 5 + 1
0017e8 816f     +LDD R22 , Y + 5 + 2
0017e9 8578     +LDD R23 , Y + 5 + 3
                 	__GETD1S 5
0017ea 9508      	RET
                 
                 ;OPTIMIZER ADDED SUBROUTINE, CALLED 2 TIMES, CODE SIZE REDUCTION:1 WORDS
                 SUBOPT_0x79:
0017eb dff0      	RCALL SUBOPT_0x76
                +
0017ec e0e0     +LDI R30 , LOW ( 0x3F000000 )
0017ed e0f0     +LDI R31 , HIGH ( 0x3F000000 )
0017ee e060     +LDI R22 , BYTE3 ( 0x3F000000 )
0017ef e37f     +LDI R23 , BYTE4 ( 0x3F000000 )
                 	__GETD1N 0x3F000000
0017f0 9508      	RET
                 
                 ;OPTIMIZER ADDED SUBROUTINE, CALLED 2 TIMES, CODE SIZE REDUCTION:1 WORDS
                 SUBOPT_0x7A:
                +
0017f1 81a9     +LDD R26 , Y + 1
0017f2 81ba     +LDD R27 , Y + 1 + 1
0017f3 818b     +LDD R24 , Y + 1 + 2
0017f4 819c     +LDD R25 , Y + 1 + 3
                 	__GETD2S 1
0017f5 940e 1910 	CALL __MULF12
0017f7 9508      	RET
                 
                 ;OPTIMIZER ADDED SUBROUTINE, CALLED 2 TIMES, CODE SIZE REDUCTION:3 WORDS
                 SUBOPT_0x7B:
0017f8 940e 1910 	CALL __MULF12
                +
0017fa e4ae     +LDI R26 , LOW ( 0x414A8F4E )
0017fb e8bf     +LDI R27 , HIGH ( 0x414A8F4E )
0017fc e48a     +LDI R24 , BYTE3 ( 0x414A8F4E )
0017fd e491     +LDI R25 , BYTE4 ( 0x414A8F4E )
                 	__GETD2N 0x414A8F4E
0017fe 940e 18c0 	CALL __ADDF12
001800 9508      	RET
                 
                 ;OPTIMIZER ADDED SUBROUTINE, CALLED 2 TIMES, CODE SIZE REDUCTION:1 WORDS
                 SUBOPT_0x7C:
001801 940e 195e 	CALL __DIVF21
001803 940e 1a94 	CALL __PUTPARD1
001805 940c 13c8 	JMP  _xatan
                 
                 ;OPTIMIZER ADDED SUBROUTINE, CALLED 2 TIMES, CODE SIZE REDUCTION:3 WORDS
                 SUBOPT_0x7D:
001807 dfb1      	RCALL SUBOPT_0x6F
001808 940e 181a 	CALL __ANEGF1
00180a 940e 1a94 	CALL __PUTPARD1
00180c 940c 13f5 	JMP  _yatan
                 
                 
                 	.CSEG
                 _delay_ms:
00180e 91e9      	ld   r30,y+
00180f 91f9      	ld   r31,y+
001810 9630      	adiw r30,0
001811 f039      	breq __delay_ms1
                 __delay_ms0:
                +
001812 ed80     +LDI R24 , LOW ( 0x7D0 )
001813 e097     +LDI R25 , HIGH ( 0x7D0 )
                +__DELAY_USW_LOOP :
001814 9701     +SBIW R24 , 1
001815 f7f1     +BRNE __DELAY_USW_LOOP
                 	__DELAY_USW 0x7D0
001816 95a8      	wdr
001817 9731      	sbiw r30,1
001818 f7c9      	brne __delay_ms0
                 __delay_ms1:
001819 9508      	ret
                 
                 __ANEGF1:
00181a 9730      	SBIW R30,0
00181b 4060      	SBCI R22,0
00181c 4070      	SBCI R23,0
00181d f009      	BREQ __ANEGF10
00181e 5870      	SUBI R23,0x80
                 __ANEGF10:
00181f 9508      	RET
                 
                 __ROUND_REPACK:
001820 2355      	TST  R21
001821 f442      	BRPL __REPACK
001822 3850      	CPI  R21,0x80
001823 f411      	BRNE __ROUND_REPACK0
001824 ffe0      	SBRS R30,0
001825 c004      	RJMP __REPACK
                 __ROUND_REPACK0:
001826 9631      	ADIW R30,1
001827 1f69      	ADC  R22,R25
001828 1f79      	ADC  R23,R25
001829 f06b      	BRVS __REPACK1
                 
                 __REPACK:
00182a e850      	LDI  R21,0x80
00182b 2757      	EOR  R21,R23
00182c f411      	BRNE __REPACK0
00182d 935f      	PUSH R21
00182e c0cf      	RJMP __ZERORES
                 __REPACK0:
00182f 3f5f      	CPI  R21,0xFF
001830 f031      	BREQ __REPACK1
001831 0f66      	LSL  R22
001832 0c00      	LSL  R0
001833 9557      	ROR  R21
001834 9567      	ROR  R22
001835 2f75      	MOV  R23,R21
001836 9508      	RET
                 __REPACK1:
001837 935f      	PUSH R21
001838 2000      	TST  R0
001839 f00a      	BRMI __REPACK2
00183a c0cf      	RJMP __MAXRES
                 __REPACK2:
00183b c0c8      	RJMP __MINRES
                 
                 __UNPACK:
00183c e850      	LDI  R21,0x80
00183d 2e19      	MOV  R1,R25
00183e 2215      	AND  R1,R21
00183f 0f88      	LSL  R24
001840 1f99      	ROL  R25
001841 2795      	EOR  R25,R21
001842 0f55      	LSL  R21
001843 9587      	ROR  R24
                 
                 __UNPACK1:
001844 e850      	LDI  R21,0x80
001845 2e07      	MOV  R0,R23
001846 2205      	AND  R0,R21
001847 0f66      	LSL  R22
001848 1f77      	ROL  R23
001849 2775      	EOR  R23,R21
00184a 0f55      	LSL  R21
00184b 9567      	ROR  R22
00184c 9508      	RET
                 
                 __CFD1U:
00184d 9468      	SET
00184e c001      	RJMP __CFD1U0
                 __CFD1:
00184f 94e8      	CLT
                 __CFD1U0:
001850 935f      	PUSH R21
001851 dff2      	RCALL __UNPACK1
001852 3870      	CPI  R23,0x80
001853 f018      	BRLO __CFD10
001854 3f7f      	CPI  R23,0xFF
001855 f408      	BRCC __CFD10
001856 c0a7      	RJMP __ZERORES
                 __CFD10:
001857 e156      	LDI  R21,22
001858 1b57      	SUB  R21,R23
001859 f4aa      	BRPL __CFD11
00185a 9551      	NEG  R21
00185b 3058      	CPI  R21,8
00185c f40e      	BRTC __CFD19
00185d 3059      	CPI  R21,9
                 __CFD19:
00185e f030      	BRLO __CFD17
00185f efef      	SER  R30
001860 efff      	SER  R31
001861 ef6f      	SER  R22
001862 e77f      	LDI  R23,0x7F
001863 f977      	BLD  R23,7
001864 c01a      	RJMP __CFD15
                 __CFD17:
001865 2777      	CLR  R23
001866 2355      	TST  R21
001867 f0b9      	BREQ __CFD15
                 __CFD18:
001868 0fee      	LSL  R30
001869 1fff      	ROL  R31
00186a 1f66      	ROL  R22
00186b 1f77      	ROL  R23
00186c 955a      	DEC  R21
00186d f7d1      	BRNE __CFD18
00186e c010      	RJMP __CFD15
                 __CFD11:
00186f 2777      	CLR  R23
                 __CFD12:
001870 3058      	CPI  R21,8
001871 f028      	BRLO __CFD13
001872 2fef      	MOV  R30,R31
001873 2ff6      	MOV  R31,R22
001874 2f67      	MOV  R22,R23
001875 5058      	SUBI R21,8
001876 cff9      	RJMP __CFD12
                 __CFD13:
001877 2355      	TST  R21
001878 f031      	BREQ __CFD15
                 __CFD14:
001879 9576      	LSR  R23
00187a 9567      	ROR  R22
00187b 95f7      	ROR  R31
00187c 95e7      	ROR  R30
00187d 955a      	DEC  R21
00187e f7d1      	BRNE __CFD14
                 __CFD15:
00187f 2000      	TST  R0
001880 f40a      	BRPL __CFD16
001881 d14f      	RCALL __ANEGD1
                 __CFD16:
001882 915f      	POP  R21
001883 9508      	RET
                 
                 __CDF1U:
001884 9468      	SET
001885 c001      	RJMP __CDF1U0
                 __CDF1:
001886 94e8      	CLT
                 __CDF1U0:
001887 9730      	SBIW R30,0
001888 4060      	SBCI R22,0
001889 4070      	SBCI R23,0
00188a f0b1      	BREQ __CDF10
00188b 2400      	CLR  R0
00188c f026      	BRTS __CDF11
00188d 2377      	TST  R23
00188e f412      	BRPL __CDF11
00188f 9400      	COM  R0
001890 d140      	RCALL __ANEGD1
                 __CDF11:
001891 2e17      	MOV  R1,R23
001892 e17e      	LDI  R23,30
001893 2011      	TST  R1
                 __CDF12:
001894 f032      	BRMI __CDF13
001895 957a      	DEC  R23
001896 0fee      	LSL  R30
001897 1fff      	ROL  R31
001898 1f66      	ROL  R22
001899 1c11      	ROL  R1
00189a cff9      	RJMP __CDF12
                 __CDF13:
00189b 2fef      	MOV  R30,R31
00189c 2ff6      	MOV  R31,R22
00189d 2d61      	MOV  R22,R1
00189e 935f      	PUSH R21
00189f df8a      	RCALL __REPACK
0018a0 915f      	POP  R21
                 __CDF10:
0018a1 9508      	RET
                 
                 __SWAPACC:
0018a2 934f      	PUSH R20
0018a3 01af      	MOVW R20,R30
0018a4 01fd      	MOVW R30,R26
0018a5 01da      	MOVW R26,R20
0018a6 01ab      	MOVW R20,R22
0018a7 01bc      	MOVW R22,R24
0018a8 01ca      	MOVW R24,R20
0018a9 2d40      	MOV  R20,R0
0018aa 2c01      	MOV  R0,R1
0018ab 2e14      	MOV  R1,R20
0018ac 914f      	POP  R20
0018ad 9508      	RET
                 
                 __UADD12:
0018ae 0fea      	ADD  R30,R26
0018af 1ffb      	ADC  R31,R27
0018b0 1f68      	ADC  R22,R24
0018b1 9508      	RET
                 
                 __NEGMAN1:
0018b2 95e0      	COM  R30
0018b3 95f0      	COM  R31
0018b4 9560      	COM  R22
0018b5 5fef      	SUBI R30,-1
0018b6 4fff      	SBCI R31,-1
0018b7 4f6f      	SBCI R22,-1
0018b8 9508      	RET
                 
                 __SUBF12:
0018b9 935f      	PUSH R21
0018ba df81      	RCALL __UNPACK
0018bb 3890      	CPI  R25,0x80
0018bc f171      	BREQ __ADDF129
0018bd e850      	LDI  R21,0x80
0018be 2615      	EOR  R1,R21
                 
0018bf c004      	RJMP __ADDF120
                 
                 __ADDF12:
0018c0 935f      	PUSH R21
0018c1 df7a      	RCALL __UNPACK
0018c2 3890      	CPI  R25,0x80
0018c3 f139      	BREQ __ADDF129
                 
                 __ADDF120:
0018c4 3870      	CPI  R23,0x80
0018c5 f121      	BREQ __ADDF128
                 __ADDF121:
0018c6 2f57      	MOV  R21,R23
0018c7 1b59      	SUB  R21,R25
0018c8 f12b      	BRVS __ADDF1211
0018c9 f412      	BRPL __ADDF122
0018ca dfd7      	RCALL __SWAPACC
0018cb cffa      	RJMP __ADDF121
                 __ADDF122:
0018cc 3158      	CPI  R21,24
0018cd f018      	BRLO __ADDF123
0018ce 27aa      	CLR  R26
0018cf 27bb      	CLR  R27
0018d0 2788      	CLR  R24
                 __ADDF123:
0018d1 3058      	CPI  R21,8
0018d2 f028      	BRLO __ADDF124
0018d3 2fab      	MOV  R26,R27
0018d4 2fb8      	MOV  R27,R24
0018d5 2788      	CLR  R24
0018d6 5058      	SUBI R21,8
0018d7 cff9      	RJMP __ADDF123
                 __ADDF124:
0018d8 2355      	TST  R21
0018d9 f029      	BREQ __ADDF126
                 __ADDF125:
0018da 9586      	LSR  R24
0018db 95b7      	ROR  R27
0018dc 95a7      	ROR  R26
0018dd 955a      	DEC  R21
0018de f7d9      	BRNE __ADDF125
                 __ADDF126:
0018df 2d50      	MOV  R21,R0
0018e0 2551      	EOR  R21,R1
0018e1 f072      	BRMI __ADDF127
0018e2 dfcb      	RCALL __UADD12
0018e3 f438      	BRCC __ADDF129
0018e4 9567      	ROR  R22
0018e5 95f7      	ROR  R31
0018e6 95e7      	ROR  R30
0018e7 9573      	INC  R23
0018e8 f413      	BRVC __ADDF129
0018e9 c020      	RJMP __MAXRES
                 __ADDF128:
0018ea dfb7      	RCALL __SWAPACC
                 __ADDF129:
0018eb df3e      	RCALL __REPACK
0018ec 915f      	POP  R21
0018ed 9508      	RET
                 __ADDF1211:
0018ee f7d8      	BRCC __ADDF128
0018ef cffb      	RJMP __ADDF129
                 __ADDF127:
0018f0 1bea      	SUB  R30,R26
0018f1 0bfb      	SBC  R31,R27
0018f2 0b68      	SBC  R22,R24
0018f3 f051      	BREQ __ZERORES
0018f4 f410      	BRCC __ADDF1210
0018f5 9400      	COM  R0
0018f6 dfbb      	RCALL __NEGMAN1
                 __ADDF1210:
0018f7 2366      	TST  R22
0018f8 f392      	BRMI __ADDF129
0018f9 0fee      	LSL  R30
0018fa 1fff      	ROL  R31
0018fb 1f66      	ROL  R22
0018fc 957a      	DEC  R23
0018fd f7cb      	BRVC __ADDF1210
                 
                 __ZERORES:
0018fe 27ee      	CLR  R30
0018ff 27ff      	CLR  R31
001900 2766      	CLR  R22
001901 2777      	CLR  R23
001902 915f      	POP  R21
001903 9508      	RET
                 
                 __MINRES:
001904 efef      	SER  R30
001905 efff      	SER  R31
001906 e76f      	LDI  R22,0x7F
001907 ef7f      	SER  R23
001908 915f      	POP  R21
001909 9508      	RET
                 
                 __MAXRES:
00190a efef      	SER  R30
00190b efff      	SER  R31
00190c e76f      	LDI  R22,0x7F
00190d e77f      	LDI  R23,0x7F
00190e 915f      	POP  R21
00190f 9508      	RET
                 
                 __MULF12:
001910 935f      	PUSH R21
001911 df2a      	RCALL __UNPACK
001912 3870      	CPI  R23,0x80
001913 f351      	BREQ __ZERORES
001914 3890      	CPI  R25,0x80
001915 f341      	BREQ __ZERORES
001916 2401      	EOR  R0,R1
001917 9408      	SEC
001918 1f79      	ADC  R23,R25
001919 f423      	BRVC __MULF124
00191a f31c      	BRLT __ZERORES
                 __MULF125:
00191b 2000      	TST  R0
00191c f33a      	BRMI __MINRES
00191d cfec      	RJMP __MAXRES
                 __MULF124:
00191e 920f      	PUSH R0
00191f 931f      	PUSH R17
001920 932f      	PUSH R18
001921 933f      	PUSH R19
001922 934f      	PUSH R20
001923 2711      	CLR  R17
001924 2722      	CLR  R18
001925 2799      	CLR  R25
001926 9f68      	MUL  R22,R24
001927 01a0      	MOVW R20,R0
001928 9f8f      	MUL  R24,R31
001929 2d30      	MOV  R19,R0
00192a 0d41      	ADD  R20,R1
00192b 1f59      	ADC  R21,R25
00192c 9f6b      	MUL  R22,R27
00192d 0d30      	ADD  R19,R0
00192e 1d41      	ADC  R20,R1
00192f 1f59      	ADC  R21,R25
001930 9f8e      	MUL  R24,R30
001931 d027      	RCALL __MULF126
001932 9fbf      	MUL  R27,R31
001933 d025      	RCALL __MULF126
001934 9f6a      	MUL  R22,R26
001935 d023      	RCALL __MULF126
001936 9fbe      	MUL  R27,R30
001937 d01d      	RCALL __MULF127
001938 9faf      	MUL  R26,R31
001939 d01b      	RCALL __MULF127
00193a 9fae      	MUL  R26,R30
00193b 0d11      	ADD  R17,R1
00193c 1f29      	ADC  R18,R25
00193d 1f39      	ADC  R19,R25
00193e 1f49      	ADC  R20,R25
00193f 1f59      	ADC  R21,R25
001940 2fe3      	MOV  R30,R19
001941 2ff4      	MOV  R31,R20
001942 2f65      	MOV  R22,R21
001943 2f52      	MOV  R21,R18
001944 914f      	POP  R20
001945 913f      	POP  R19
001946 912f      	POP  R18
001947 911f      	POP  R17
001948 900f      	POP  R0
001949 2366      	TST  R22
00194a f02a      	BRMI __MULF122
00194b 0f55      	LSL  R21
00194c 1fee      	ROL  R30
00194d 1fff      	ROL  R31
00194e 1f66      	ROL  R22
00194f c002      	RJMP __MULF123
                 __MULF122:
001950 9573      	INC  R23
001951 f24b      	BRVS __MULF125
                 __MULF123:
001952 decd      	RCALL __ROUND_REPACK
001953 915f      	POP  R21
001954 9508      	RET
                 
                 __MULF127:
001955 0d10      	ADD  R17,R0
001956 1d21      	ADC  R18,R1
001957 1f39      	ADC  R19,R25
001958 c002      	RJMP __MULF128
                 __MULF126:
001959 0d20      	ADD  R18,R0
00195a 1d31      	ADC  R19,R1
                 __MULF128:
00195b 1f49      	ADC  R20,R25
00195c 1f59      	ADC  R21,R25
00195d 9508      	RET
                 
                 __DIVF21:
00195e 935f      	PUSH R21
00195f dedc      	RCALL __UNPACK
001960 3870      	CPI  R23,0x80
001961 f421      	BRNE __DIVF210
001962 2011      	TST  R1
                 __DIVF211:
001963 f40a      	BRPL __DIVF219
001964 cf9f      	RJMP __MINRES
                 __DIVF219:
001965 cfa4      	RJMP __MAXRES
                 __DIVF210:
001966 3890      	CPI  R25,0x80
001967 f409      	BRNE __DIVF218
                 __DIVF217:
001968 cf95      	RJMP __ZERORES
                 __DIVF218:
001969 2401      	EOR  R0,R1
00196a 9408      	SEC
00196b 0b97      	SBC  R25,R23
00196c f41b      	BRVC __DIVF216
00196d f3d4      	BRLT __DIVF217
00196e 2000      	TST  R0
00196f cff3      	RJMP __DIVF211
                 __DIVF216:
001970 2f79      	MOV  R23,R25
001971 931f      	PUSH R17
001972 932f      	PUSH R18
001973 933f      	PUSH R19
001974 934f      	PUSH R20
001975 2411      	CLR  R1
001976 2711      	CLR  R17
001977 2722      	CLR  R18
001978 2733      	CLR  R19
001979 2744      	CLR  R20
00197a 2755      	CLR  R21
00197b e290      	LDI  R25,32
                 __DIVF212:
00197c 17ae      	CP   R26,R30
00197d 07bf      	CPC  R27,R31
00197e 0786      	CPC  R24,R22
00197f 0741      	CPC  R20,R17
001980 f030      	BRLO __DIVF213
001981 1bae      	SUB  R26,R30
001982 0bbf      	SBC  R27,R31
001983 0b86      	SBC  R24,R22
001984 0b41      	SBC  R20,R17
001985 9408      	SEC
001986 c001      	RJMP __DIVF214
                 __DIVF213:
001987 9488      	CLC
                 __DIVF214:
001988 1f55      	ROL  R21
001989 1f22      	ROL  R18
00198a 1f33      	ROL  R19
00198b 1c11      	ROL  R1
00198c 1faa      	ROL  R26
00198d 1fbb      	ROL  R27
00198e 1f88      	ROL  R24
00198f 1f44      	ROL  R20
001990 959a      	DEC  R25
001991 f751      	BRNE __DIVF212
001992 01f9      	MOVW R30,R18
001993 2d61      	MOV  R22,R1
001994 914f      	POP  R20
001995 913f      	POP  R19
001996 912f      	POP  R18
001997 911f      	POP  R17
001998 2366      	TST  R22
001999 f032      	BRMI __DIVF215
00199a 0f55      	LSL  R21
00199b 1fee      	ROL  R30
00199c 1fff      	ROL  R31
00199d 1f66      	ROL  R22
00199e 957a      	DEC  R23
00199f f243      	BRVS __DIVF217
                 __DIVF215:
0019a0 de7f      	RCALL __ROUND_REPACK
0019a1 915f      	POP  R21
0019a2 9508      	RET
                 
                 __CMPF12:
0019a3 2399      	TST  R25
0019a4 f09a      	BRMI __CMPF120
0019a5 2377      	TST  R23
0019a6 f042      	BRMI __CMPF121
0019a7 1797      	CP   R25,R23
0019a8 f048      	BRLO __CMPF122
0019a9 f429      	BRNE __CMPF121
0019aa 17ae      	CP   R26,R30
0019ab 07bf      	CPC  R27,R31
0019ac 0786      	CPC  R24,R22
0019ad f020      	BRLO __CMPF122
0019ae f031      	BREQ __CMPF123
                 __CMPF121:
0019af 9498      	CLZ
0019b0 9488      	CLC
0019b1 9508      	RET
                 __CMPF122:
0019b2 9498      	CLZ
0019b3 9408      	SEC
0019b4 9508      	RET
                 __CMPF123:
0019b5 9418      	SEZ
0019b6 9488      	CLC
0019b7 9508      	RET
                 __CMPF120:
0019b8 2377      	TST  R23
0019b9 f7c2      	BRPL __CMPF122
0019ba 1797      	CP   R25,R23
0019bb f398      	BRLO __CMPF121
0019bc f7a9      	BRNE __CMPF122
0019bd 17ea      	CP   R30,R26
0019be 07fb      	CPC  R31,R27
0019bf 0768      	CPC  R22,R24
0019c0 f388      	BRLO __CMPF122
0019c1 f399      	BREQ __CMPF123
0019c2 cfec      	RJMP __CMPF121
                 
                 __ADDD12:
0019c3 0fea      	ADD  R30,R26
0019c4 1ffb      	ADC  R31,R27
0019c5 1f68      	ADC  R22,R24
0019c6 1f79      	ADC  R23,R25
0019c7 9508      	RET
                 
                 __SUBD12:
0019c8 1bea      	SUB  R30,R26
0019c9 0bfb      	SBC  R31,R27
0019ca 0b68      	SBC  R22,R24
0019cb 0b79      	SBC  R23,R25
0019cc 9508      	RET
                 
                 __ANEGW1:
0019cd 95f1      	NEG  R31
0019ce 95e1      	NEG  R30
0019cf 40f0      	SBCI R31,0
0019d0 9508      	RET
                 
                 __ANEGD1:
0019d1 95f0      	COM  R31
0019d2 9560      	COM  R22
0019d3 9570      	COM  R23
0019d4 95e1      	NEG  R30
0019d5 4fff      	SBCI R31,-1
0019d6 4f6f      	SBCI R22,-1
0019d7 4f7f      	SBCI R23,-1
0019d8 9508      	RET
                 
                 __CWD1:
0019d9 2f6f      	MOV  R22,R31
0019da 0f66      	ADD  R22,R22
0019db 0b66      	SBC  R22,R22
0019dc 2f76      	MOV  R23,R22
0019dd 9508      	RET
                 
                 __CWD2:
0019de 2f8b      	MOV  R24,R27
0019df 0f88      	ADD  R24,R24
0019e0 0b88      	SBC  R24,R24
0019e1 2f98      	MOV  R25,R24
0019e2 9508      	RET
                 
                 __LTW12U:
0019e3 17ae      	CP   R26,R30
0019e4 07bf      	CPC  R27,R31
0019e5 e0e1      	LDI  R30,1
0019e6 f008      	BRLO __LTW12UT
0019e7 27ee      	CLR  R30
                 __LTW12UT:
0019e8 9508      	RET
                 
                 __MULW12U:
0019e9 9ffa      	MUL  R31,R26
0019ea 2df0      	MOV  R31,R0
0019eb 9feb      	MUL  R30,R27
0019ec 0df0      	ADD  R31,R0
0019ed 9fea      	MUL  R30,R26
0019ee 2de0      	MOV  R30,R0
0019ef 0df1      	ADD  R31,R1
0019f0 9508      	RET
                 
                 __MULD12U:
0019f1 9f7a      	MUL  R23,R26
0019f2 2d70      	MOV  R23,R0
0019f3 9f6b      	MUL  R22,R27
0019f4 0d70      	ADD  R23,R0
0019f5 9ff8      	MUL  R31,R24
0019f6 0d70      	ADD  R23,R0
0019f7 9fe9      	MUL  R30,R25
0019f8 0d70      	ADD  R23,R0
0019f9 9f6a      	MUL  R22,R26
0019fa 2d60      	MOV  R22,R0
0019fb 0d71      	ADD  R23,R1
0019fc 9ffb      	MUL  R31,R27
0019fd 0d60      	ADD  R22,R0
0019fe 1d71      	ADC  R23,R1
0019ff 9fe8      	MUL  R30,R24
001a00 0d60      	ADD  R22,R0
001a01 1d71      	ADC  R23,R1
001a02 2788      	CLR  R24
001a03 9ffa      	MUL  R31,R26
001a04 2df0      	MOV  R31,R0
001a05 0d61      	ADD  R22,R1
001a06 1f78      	ADC  R23,R24
001a07 9feb      	MUL  R30,R27
001a08 0df0      	ADD  R31,R0
001a09 1d61      	ADC  R22,R1
001a0a 1f78      	ADC  R23,R24
001a0b 9fea      	MUL  R30,R26
001a0c 2de0      	MOV  R30,R0
001a0d 0df1      	ADD  R31,R1
001a0e 1f68      	ADC  R22,R24
001a0f 1f78      	ADC  R23,R24
001a10 9508      	RET
                 
                 __MULW12:
001a11 d04e      	RCALL __CHKSIGNW
001a12 dfd6      	RCALL __MULW12U
001a13 f40e      	BRTC __MULW121
001a14 dfb8      	RCALL __ANEGW1
                 __MULW121:
001a15 9508      	RET
                 
                 __MULD12:
001a16 d057      	RCALL __CHKSIGND
001a17 dfd9      	RCALL __MULD12U
001a18 f40e      	BRTC __MULD121
001a19 dfb7      	RCALL __ANEGD1
                 __MULD121:
001a1a 9508      	RET
                 
                 __DIVW21U:
001a1b 2400      	CLR  R0
001a1c 2411      	CLR  R1
001a1d e190      	LDI  R25,16
                 __DIVW21U1:
001a1e 0faa      	LSL  R26
001a1f 1fbb      	ROL  R27
001a20 1c00      	ROL  R0
001a21 1c11      	ROL  R1
001a22 1a0e      	SUB  R0,R30
001a23 0a1f      	SBC  R1,R31
001a24 f418      	BRCC __DIVW21U2
001a25 0e0e      	ADD  R0,R30
001a26 1e1f      	ADC  R1,R31
001a27 c001      	RJMP __DIVW21U3
                 __DIVW21U2:
001a28 60a1      	SBR  R26,1
                 __DIVW21U3:
001a29 959a      	DEC  R25
001a2a f799      	BRNE __DIVW21U1
001a2b 01fd      	MOVW R30,R26
001a2c 01d0      	MOVW R26,R0
001a2d 9508      	RET
                 
                 __DIVW21:
001a2e d031      	RCALL __CHKSIGNW
001a2f dfeb      	RCALL __DIVW21U
001a30 f40e      	BRTC __DIVW211
001a31 df9b      	RCALL __ANEGW1
                 __DIVW211:
001a32 9508      	RET
                 
                 __DIVD21U:
001a33 933f      	PUSH R19
001a34 934f      	PUSH R20
001a35 935f      	PUSH R21
001a36 2400      	CLR  R0
001a37 2411      	CLR  R1
001a38 2744      	CLR  R20
001a39 2755      	CLR  R21
001a3a e230      	LDI  R19,32
                 __DIVD21U1:
001a3b 0faa      	LSL  R26
001a3c 1fbb      	ROL  R27
001a3d 1f88      	ROL  R24
001a3e 1f99      	ROL  R25
001a3f 1c00      	ROL  R0
001a40 1c11      	ROL  R1
001a41 1f44      	ROL  R20
001a42 1f55      	ROL  R21
001a43 1a0e      	SUB  R0,R30
001a44 0a1f      	SBC  R1,R31
001a45 0b46      	SBC  R20,R22
001a46 0b57      	SBC  R21,R23
001a47 f428      	BRCC __DIVD21U2
001a48 0e0e      	ADD  R0,R30
001a49 1e1f      	ADC  R1,R31
001a4a 1f46      	ADC  R20,R22
001a4b 1f57      	ADC  R21,R23
001a4c c001      	RJMP __DIVD21U3
                 __DIVD21U2:
001a4d 60a1      	SBR  R26,1
                 __DIVD21U3:
001a4e 953a      	DEC  R19
001a4f f759      	BRNE __DIVD21U1
001a50 01fd      	MOVW R30,R26
001a51 01bc      	MOVW R22,R24
001a52 01d0      	MOVW R26,R0
001a53 01ca      	MOVW R24,R20
001a54 915f      	POP  R21
001a55 914f      	POP  R20
001a56 913f      	POP  R19
001a57 9508      	RET
                 
                 __DIVD21:
001a58 d015      	RCALL __CHKSIGND
001a59 dfd9      	RCALL __DIVD21U
001a5a f40e      	BRTC __DIVD211
001a5b df75      	RCALL __ANEGD1
                 __DIVD211:
001a5c 9508      	RET
                 
                 __MODW21U:
001a5d dfbd      	RCALL __DIVW21U
001a5e 01fd      	MOVW R30,R26
001a5f 9508      	RET
                 
                 __CHKSIGNW:
001a60 94e8      	CLT
001a61 fff7      	SBRS R31,7
001a62 c002      	RJMP __CHKSW1
001a63 df69      	RCALL __ANEGW1
001a64 9468      	SET
                 __CHKSW1:
001a65 ffb7      	SBRS R27,7
001a66 c006      	RJMP __CHKSW2
001a67 95a0      	COM  R26
001a68 95b0      	COM  R27
001a69 9611      	ADIW R26,1
001a6a f800      	BLD  R0,0
001a6b 9403      	INC  R0
001a6c fa00      	BST  R0,0
                 __CHKSW2:
001a6d 9508      	RET
                 
                 __CHKSIGND:
001a6e 94e8      	CLT
001a6f ff77      	SBRS R23,7
001a70 c002      	RJMP __CHKSD1
001a71 df5f      	RCALL __ANEGD1
001a72 9468      	SET
                 __CHKSD1:
001a73 ff97      	SBRS R25,7
001a74 c00b      	RJMP __CHKSD2
001a75 2400      	CLR  R0
001a76 95a0      	COM  R26
001a77 95b0      	COM  R27
001a78 9580      	COM  R24
001a79 9590      	COM  R25
001a7a 9611      	ADIW R26,1
001a7b 1d80      	ADC  R24,R0
001a7c 1d90      	ADC  R25,R0
001a7d f800      	BLD  R0,0
001a7e 9403      	INC  R0
001a7f fa00      	BST  R0,0
                 __CHKSD2:
001a80 9508      	RET
                 
                 __GETW1P:
001a81 91ed      	LD   R30,X+
001a82 91fc      	LD   R31,X
001a83 9711      	SBIW R26,1
001a84 9508      	RET
                 
                 __GETD1S0:
001a85 81e8      	LD   R30,Y
001a86 81f9      	LDD  R31,Y+1
001a87 816a      	LDD  R22,Y+2
001a88 817b      	LDD  R23,Y+3
001a89 9508      	RET
                 
                 __GETD2S0:
001a8a 81a8      	LD   R26,Y
001a8b 81b9      	LDD  R27,Y+1
001a8c 818a      	LDD  R24,Y+2
001a8d 819b      	LDD  R25,Y+3
001a8e 9508      	RET
                 
                 __PUTD1S0:
001a8f 83e8      	ST   Y,R30
001a90 83f9      	STD  Y+1,R31
001a91 836a      	STD  Y+2,R22
001a92 837b      	STD  Y+3,R23
001a93 9508      	RET
                 
                 __PUTPARD1:
001a94 937a      	ST   -Y,R23
001a95 936a      	ST   -Y,R22
001a96 93fa      	ST   -Y,R31
001a97 93ea      	ST   -Y,R30
001a98 9508      	RET
                 
                 __PUTPARL:
001a99 27bb      	CLR  R27
                 __PUTPAR:
001a9a 0fea      	ADD  R30,R26
001a9b 1ffb      	ADC  R31,R27
                 __PUTPAR0:
001a9c 9002      	LD   R0,-Z
001a9d 920a      	ST   -Y,R0
001a9e 9711      	SBIW R26,1
001a9f f7e1      	BRNE __PUTPAR0
001aa0 9508      	RET
                 
                 __CDF2U:
001aa1 9468      	SET
001aa2 c001      	RJMP __CDF2U0
                 __CDF2:
001aa3 94e8      	CLT
                 __CDF2U0:
001aa4 d001      	RCALL __SWAPD12
001aa5 dde1      	RCALL __CDF1U0
                 
                 __SWAPD12:
001aa6 2e18      	MOV  R1,R24
001aa7 2f86      	MOV  R24,R22
001aa8 2d61      	MOV  R22,R1
001aa9 2e19      	MOV  R1,R25
001aaa 2f97      	MOV  R25,R23
001aab 2d71      	MOV  R23,R1
                 
                 __SWAPW12:
001aac 2e1b      	MOV  R1,R27
001aad 2fbf      	MOV  R27,R31
001aae 2df1      	MOV  R31,R1
                 
                 __SWAPB12:
001aaf 2e1a      	MOV  R1,R26
001ab0 2fae      	MOV  R26,R30
001ab1 2de1      	MOV  R30,R1
001ab2 9508      	RET
                 
                 __COPYMML:
001ab3 2799      	CLR  R25
                 __COPYMM:
001ab4 93ef      	PUSH R30
001ab5 93ff      	PUSH R31
                 __COPYMM0:
001ab6 9161      	LD   R22,Z+
001ab7 936d      	ST   X+,R22
001ab8 9701      	SBIW R24,1
001ab9 f7e1      	BRNE __COPYMM0
001aba 91ff      	POP  R31
001abb 91ef      	POP  R30
001abc 9508      	RET
                 
                 __CPD10:
001abd 9730      	SBIW R30,0
001abe 4060      	SBCI R22,0
001abf 4070      	SBCI R23,0
001ac0 9508      	RET
                 
                 __CPW02:
001ac1 2400      	CLR  R0
001ac2 160a      	CP   R0,R26
001ac3 060b      	CPC  R0,R27
001ac4 9508      	RET
                 
                 __CPD02:
001ac5 2400      	CLR  R0
001ac6 160a      	CP   R0,R26
001ac7 060b      	CPC  R0,R27
001ac8 0608      	CPC  R0,R24
001ac9 0609      	CPC  R0,R25
001aca 9508      	RET
                 
                 __SAVELOCR6:
001acb 935a      	ST   -Y,R21
                 __SAVELOCR5:
001acc 934a      	ST   -Y,R20
                 __SAVELOCR4:
001acd 933a      	ST   -Y,R19
                 __SAVELOCR3:
001ace 932a      	ST   -Y,R18
                 __SAVELOCR2:
001acf 931a      	ST   -Y,R17
001ad0 930a      	ST   -Y,R16
001ad1 9508      	RET
                 
                 __LOADLOCR6:
001ad2 815d      	LDD  R21,Y+5
                 __LOADLOCR5:
001ad3 814c      	LDD  R20,Y+4
                 __LOADLOCR4:
001ad4 813b      	LDD  R19,Y+3
                 __LOADLOCR3:
001ad5 812a      	LDD  R18,Y+2
                 __LOADLOCR2:
001ad6 8119      	LDD  R17,Y+1
001ad7 8108      	LD   R16,Y
001ad8 9508      	RET
                 
                 __INITLOCB:
                 __INITLOCW:
001ad9 0fac      	ADD  R26,R28
001ada 1fbd      	ADC  R27,R29
                 __INITLOC0:
001adb 9005      	LPM  R0,Z+
001adc 920d      	ST   X+,R0
001add 958a      	DEC  R24
001ade f7e1      	BRNE __INITLOC0
001adf 9508      	RET
                 
                 ;END OF CODE MARKER
                 __END_OF_CODE:


RESOURCE USE INFORMATION
------------------------

Notice:
The register and instruction counts are symbol table hit counts,
and hence implicitly used resources are not counted, eg, the
'lpm' instruction without operands implicitly uses r0 and z,
none of which are counted.

x,y,z are separate entities in the symbol table and are
counted separately from r26..r31 here.

.dseg memory usage only counts static data declared with .byte

ATmega32A register use summary:
r0 :  74 r1 :  51 r2 :   1 r3 :   0 r4 :   0 r5 :   0 r6 :   0 r7 :   0 
r8 :   0 r9 :   0 r10:   1 r11:   0 r12:   4 r13:   2 r14:   0 r15:   2 
r16:  90 r17: 136 r18:  32 r19:  33 r20:  59 r21:  90 r22: 196 r23: 184 
r24: 119 r25:  96 r26: 450 r27: 243 r28:  72 r29:   2 r30:1276 r31: 618 
x  :  30 y  : 852 z  :  16 
Registers used: 26 out of 35 (74.3%)

ATmega32A instruction use summary:
.lds  :   0 .lds.l:   0 .sts  :   0 .sts.l:   0 adc   :  55 add   :  44 
adiw  :  49 and   :   6 andi  :   1 asr   :   0 bclr  :   0 bld   :   5 
brbc  :   0 brbs  :   0 brcc  :  17 brcs  :   1 break :   0 breq  :  43 
brge  :  30 brhc  :   0 brhs  :   0 brid  :   0 brie  :   0 brlo  :  24 
brlt  :  11 brmi  :  11 brne  : 113 brpl  :  10 brsh  :  36 brtc  :   6 
brts  :   2 brvc  :   4 brvs  :   4 bset  :   0 bst   :   4 call  : 729 
cbi   :  37 cbr   :   1 clc   :   3 clh   :   0 cli   :   5 cln   :   0 
clr   :  50 cls   :   0 clt   :   6 clv   :   0 clz   :   2 com   :  14 
cp    :  26 cpc   : 119 cpi   : 140 cpse  :   0 dec   :  14 des   :   0 
eor   :   7 fmul  :   0 fmuls :   0 fmulsu:   0 icall :   0 ijmp  :   0 
in    :  14 inc   :   4 jmp   :  70 ld    :  80 ldd   : 346 ldi   : 898 
lds   : 149 lpm   :  10 lsl   :  16 lsr   :   4 mov   :  70 movw  :  84 
mul   :  22 muls  :   0 mulsu :   0 neg   :   4 nop   :   0 or    :   0 
ori   :   6 out   :  78 pop   :  41 push  :  41 rcall : 130 ret   : 181 
reti  :   4 rjmp  : 225 rol   :  36 ror   :  16 sbc   :  32 sbci  :  35 
sbi   :  62 sbic  :   7 sbis  :  14 sbiw  :  52 sbr   :   4 sbrc  :   1 
sbrs  :   6 sec   :   5 seh   :   0 sei   :   3 sen   :   0 ser   :   8 
ses   :   0 set   :   6 sev   :   0 sez   :   1 sleep :   0 spm   :   0 
st    : 243 std   : 220 sts   : 188 sub   :  24 subi  :  54 swap  :   0 
tst   :  22 wdr   :   1 
Instructions used: 80 out of 116 (69.0%)

ATmega32A memory use summary [bytes]:
Segment   Begin    End      Code   Data   Used    Size   Use%
---------------------------------------------------------------
[.cseg] 0x000000 0x0035c0  12562   1198  13760   32768  42.0%
[.dseg] 0x000060 0x000526      0    710    710    2143  33.1%
[.eseg] 0x000000 0x000000      0      0      0    1024   0.0%

Assembly complete, 0 errors, 18 warnings
